 sl_groundvehicleDynamics_sfun

 Timestamp is 6711b67e (Fri Oct 18 11:14:38 2024)

 Preferred load address is 0000000180000000

 Start         Length     Name                   Class
 0001:00000000 0003b390H .text$mn                CODE
 0001:0003b390 00000040H .text$mn$00             CODE
 0001:0003b3d0 0000057aH .text$x                 CODE
 0002:00000000 000005c8H .idata$5                DATA
 0002:000005c8 00000038H .00cfg                  DATA
 0002:00000600 00000008H .CRT$XCA                DATA
 0002:00000608 00000008H .CRT$XCZ                DATA
 0002:00000610 00000008H .CRT$XIA                DATA
 0002:00000618 00000008H .CRT$XIZ                DATA
 0002:00000620 00000008H .CRT$XPA                DATA
 0002:00000628 00000008H .CRT$XPZ                DATA
 0002:00000630 00000008H .CRT$XTA                DATA
 0002:00000638 00000008H .CRT$XTZ                DATA
 0002:00000640 00000000H .gehcont$y              DATA
 0002:00000640 00000000H .gfids$y                DATA
 0002:00000640 000005c0H .rdata                  DATA
 0002:00000c00 00000080H .rdata$CastGuardVftablesA DATA
 0002:00000c80 00000080H .rdata$CastGuardVftablesC DATA
 0002:00000d00 000001f4H .rdata$r                DATA
 0002:00000ef4 00000224H .rdata$voltmd           DATA
 0002:00001118 000002c8H .rdata$zzzdbg           DATA
 0002:000013e0 00000008H .rtc$IAA                DATA
 0002:000013e8 00000008H .rtc$IZZ                DATA
 0002:000013f0 00000008H .rtc$TAA                DATA
 0002:000013f8 00000008H .rtc$TZZ                DATA
 0002:00001400 00002110H .xdata                  DATA
 0002:00003510 000000f0H .xdata$x                DATA
 0002:00003600 00000088H .edata                  DATA
 0002:00003688 00000140H .idata$2                DATA
 0002:000037c8 00000018H .idata$3                DATA
 0002:000037e0 000005c8H .idata$4                DATA
 0002:00003da8 0000103cH .idata$6                DATA
 0003:00000000 00015c38H .data                   DATA
 0003:00015c38 00000080H .data$r                 DATA
 0003:00015cb8 00000028H .data$rs                DATA
 0003:00015ce0 00000ee0H .bss                    DATA
 0004:00000000 000024e4H .pdata                  DATA

  Address         Publics by Value              Rva+Base               Lib:Object

 0000:00000000       __AbsoluteZero             0000000000000000     <absolute>
 0000:00000000       ___safe_se_handler_count   0000000000000000     <absolute>
 0000:00000000       ___safe_se_handler_table   0000000000000000     <absolute>
 0000:00000000       __arm64x_extra_rfe_table   0000000000000000     <absolute>
 0000:00000000       __arm64x_extra_rfe_table_size 0000000000000000     <absolute>
 0000:00000000       __arm64x_native_entrypoint 0000000000000000     <absolute>
 0000:00000000       __arm64x_redirection_metadata 0000000000000000     <absolute>
 0000:00000000       __arm64x_redirection_metadata_count 0000000000000000     <absolute>
 0000:00000000       __dynamic_value_reloc_table 0000000000000000     <absolute>
 0000:00000000       __enclave_config           0000000000000000     <absolute>
 0000:00000000       __guard_check_icall_a64n_fptr 0000000000000000     <absolute>
 0000:00000000       __guard_eh_cont_count      0000000000000000     <absolute>
 0000:00000000       __guard_eh_cont_table      0000000000000000     <absolute>
 0000:00000000       __guard_fids_count         0000000000000000     <absolute>
 0000:00000000       __guard_fids_table         0000000000000000     <absolute>
 0000:00000000       __guard_iat_count          0000000000000000     <absolute>
 0000:00000000       __guard_iat_table          0000000000000000     <absolute>
 0000:00000000       __guard_longjmp_count      0000000000000000     <absolute>
 0000:00000000       __guard_longjmp_table      0000000000000000     <absolute>
 0000:00000000       __hybrid_auxiliary_delayload_iat 0000000000000000     <absolute>
 0000:00000000       __hybrid_auxiliary_delayload_iat_copy 0000000000000000     <absolute>
 0000:00000000       __hybrid_auxiliary_iat     0000000000000000     <absolute>
 0000:00000000       __hybrid_auxiliary_iat_copy 0000000000000000     <absolute>
 0000:00000000       __hybrid_code_map          0000000000000000     <absolute>
 0000:00000000       __hybrid_code_map_count    0000000000000000     <absolute>
 0000:00000000       __hybrid_image_info_bitfield 0000000000000000     <absolute>
 0000:00000000       __x64_code_ranges_to_entry_points 0000000000000000     <absolute>
 0000:00000000       __x64_code_ranges_to_entry_points_count 0000000000000000     <absolute>
 0000:00000100       __guard_flags              0000000000000100     <absolute>
 0000:00000000       __ImageBase                0000000180000000     <linker-defined>
 0001:00000000       sl_groundvehicleDynamics_initializer 0000000180001000 f   sl_groundvehicleDynamics_sfun.obj
 0001:00000010       sl_groundvehicleDynamics_terminator 0000000180001010 f   sl_groundvehicleDynamics_sfun.obj
 0001:00000020       load_sl_groundvehicleDynamics_optimization_info 0000000180001020 f   sl_groundvehicleDynamics_sfun.obj
 0001:000000d0       unload_sl_groundvehicleDynamics_optimization_info 00000001800010d0 f   sl_groundvehicleDynamics_sfun.obj
 0001:00000100       sf_sl_groundvehicleDynamics_method_dispatcher 0000000180001100 f   sl_groundvehicleDynamics_sfun.obj
 0001:00000150       sf_sl_groundvehicleDynamics_process_check_sum_call 0000000180001150 f   sl_groundvehicleDynamics_sfun.obj
 0001:00000640       sf_sl_groundvehicleDynamics_get_eml_resolved_functions_info 0000000180001640 f   sl_groundvehicleDynamics_sfun.obj
 0001:00000820       sf_sl_groundvehicleDynamics_third_party_uses_info 0000000180001820 f   sl_groundvehicleDynamics_sfun.obj
 0001:000009f0       sf_sl_groundvehicleDynamics_jit_fallback_info 00000001800019f0 f   sl_groundvehicleDynamics_sfun.obj
 0001:00000bc0       sf_sl_groundvehicleDynamics_get_post_codegen_info 0000000180001bc0 f   sl_groundvehicleDynamics_sfun.obj
 0001:00000da0       sf_sl_groundvehicleDynamics_updateBuildInfo_args_info 0000000180001da0 f   sl_groundvehicleDynamics_sfun.obj
 0001:00000f60       sf_c5_sl_groundvehicleDynamics_get_eml_resolved_functions_info 0000000180001f60 f   c5_sl_groundvehicleDynamics.obj
 0001:00001000       sf_c5_sl_groundvehicleDynamics_get_check_sum 0000000180002000 f   c5_sl_groundvehicleDynamics.obj
 0001:000010d0       c5_sl_groundvehicleDynamics_method_dispatcher 00000001800020d0 f   c5_sl_groundvehicleDynamics.obj
 0001:00022300       sf_c5_sl_groundvehicleDynamics_third_party_uses_info 0000000180023300 f   c5_sl_groundvehicleDynamics.obj
 0001:00022350       sf_c5_sl_groundvehicleDynamics_jit_fallback_info 0000000180023350 f   c5_sl_groundvehicleDynamics.obj
 0001:000224e0       sf_c5_sl_groundvehicleDynamics_updateBuildInfo_args_info 00000001800234e0 f   c5_sl_groundvehicleDynamics.obj
 0001:00022800       sf_c5_sl_groundvehicleDynamics_get_post_codegen_info 0000000180023800 f   c5_sl_groundvehicleDynamics.obj
 0001:00022dd0       mexFunction                0000000180023dd0 f   sl_groundvehicleDynamics_sfun_registry.obj
 0001:000256a0       _ssSetInputPortDirectFeedThroughFcn 00000001800266a0 f   sl_groundvehicleDynamics_sfun_registry.obj
 0001:00025810       _ssSetRWorkValueFcn        0000000180026810 f   sl_groundvehicleDynamics_sfun_registry.obj
 0001:00025890       _ssGetRWorkValueFcn        0000000180026890 f   sl_groundvehicleDynamics_sfun_registry.obj
 0001:00025900       _ssSetIWorkValueFcn        0000000180026900 f   sl_groundvehicleDynamics_sfun_registry.obj
 0001:00025980       _ssGetIWorkValueFcn        0000000180026980 f   sl_groundvehicleDynamics_sfun_registry.obj
 0001:000259f0       _ssSetPWorkValueFcn        00000001800269f0 f   sl_groundvehicleDynamics_sfun_registry.obj
 0001:00025a70       _ssGetPWorkValueFcn        0000000180026a70 f   sl_groundvehicleDynamics_sfun_registry.obj
 0001:00025ae0       _ssGetInputPortSignalFcn   0000000180026ae0 f   sl_groundvehicleDynamics_sfun_registry.obj
 0001:00025e70       _ssGetInputPortBufferDstPortFcn 0000000180026e70 f   sl_groundvehicleDynamics_sfun_registry.obj
 0001:00025ef0       _ssGetInputPortSignalPtrsFcn 0000000180026ef0 f   sl_groundvehicleDynamics_sfun_registry.obj
 0001:00026280       ssGetParameterTuningCompliance 0000000180027280 f   sl_groundvehicleDynamics_sfun_registry.obj
 0001:000262f0       _ssReadInputStringFcn      00000001800272f0 f   sl_groundvehicleDynamics_sfun_registry.obj
 0001:00026360       ssGetDTypeIdFromMxArray    0000000180027360 f   sl_groundvehicleDynamics_sfun_registry.obj
 0001:00026480       ssWriteRTWMx2dMatParam     0000000180027480 f   sl_groundvehicleDynamics_sfun_registry.obj
 0001:00026510       ssWriteRTWMxVectParam      0000000180027510 f   sl_groundvehicleDynamics_sfun_registry.obj
 0001:00026590       ssWriteRTWParameters       0000000180027590 f   sl_groundvehicleDynamics_sfun_registry.obj
 0001:00026b50       ssWriteRTWParamSettings    0000000180027b50 f   sl_groundvehicleDynamics_sfun_registry.obj
 0001:00027240       ssWriteRTWStr              0000000180028240 f   sl_groundvehicleDynamics_sfun_registry.obj
 0001:000272a0       ssWriteRTWWorkVect         00000001800282a0 f   sl_groundvehicleDynamics_sfun_registry.obj
 0001:00027800       ssWarning                  0000000180028800 f   sl_groundvehicleDynamics_sfun_registry.obj
 0001:000278f0       ssGetRootSS                00000001800288f0 f   sl_groundvehicleDynamics_sfun_registry.obj
 0001:000279b0       ssGetParentSS              00000001800289b0 f   sl_groundvehicleDynamics_sfun_registry.obj
 0001:00027a70       ssWriteRTWNameValuePair    0000000180028a70 f   sl_groundvehicleDynamics_sfun_registry.obj
 0001:00027f70       _ssSetInputPortMatrixDimensions 0000000180028f70 f   sl_groundvehicleDynamics_sfun_registry.obj
 0001:000280c0       _ssSetOutputPortMatrixDimensions 00000001800290c0 f   sl_groundvehicleDynamics_sfun_registry.obj
 0001:00028210       _ssSetInputPortVectorDimension 0000000180029210 f   sl_groundvehicleDynamics_sfun_registry.obj
 0001:000282c0       _ssSetOutputPortVectorDimension 00000001800292c0 f   sl_groundvehicleDynamics_sfun_registry.obj
 0001:00028370       ssIsRunTimeParamTunable    0000000180029370 f   sl_groundvehicleDynamics_sfun_registry.obj
 0001:000283e0       ssGetSFuncBlockHandle      00000001800293e0 f   sl_groundvehicleDynamics_sfun_registry.obj
 0001:00028450       _ssGetCallSystemNumFcnCallDestinations 0000000180029450 f   sl_groundvehicleDynamics_sfun_registry.obj
 0001:000284c0       _ssGetCurrentInputPortWidth 00000001800294c0 f   sl_groundvehicleDynamics_sfun_registry.obj
 0001:00028600       _ssGetCurrentOutputPortWidth 0000000180029600 f   sl_groundvehicleDynamics_sfun_registry.obj
 0001:00028740       ssGetIsZeroCrossControlDisabled 0000000180029740 f   sl_groundvehicleDynamics_sfun_registry.obj
 0001:000287b0       ssSetIsInputPortUsedForContZcSignal 00000001800297b0 f   sl_groundvehicleDynamics_sfun_registry.obj
 0001:00028820       ssSetZcSignalIsZcElementDisc 0000000180029820 f   sl_groundvehicleDynamics_sfun_registry.obj
 0001:000288d0       ssSetZcSignalName          00000001800298d0 f   sl_groundvehicleDynamics_sfun_registry.obj
 0001:00028940       ssSetZcSignalWidth         0000000180029940 f   sl_groundvehicleDynamics_sfun_registry.obj
 0001:000289b0       ssSetZcSignalZcEventType   00000001800299b0 f   sl_groundvehicleDynamics_sfun_registry.obj
 0001:00028a20       ssSetZcSignalType          0000000180029a20 f   sl_groundvehicleDynamics_sfun_registry.obj
 0001:00028a90       ssSetZcSignalZcTol         0000000180029a90 f   sl_groundvehicleDynamics_sfun_registry.obj
 0001:00028b00       ssSetZcSignalNeedsEventNotification 0000000180029b00 f   sl_groundvehicleDynamics_sfun_registry.obj
 0001:00028b70       ssCreateAndAddZcSignalInfo 0000000180029b70 f   sl_groundvehicleDynamics_sfun_registry.obj
 0001:00028be0       ssCloneAndAddZcSignalInfo  0000000180029be0 f   sl_groundvehicleDynamics_sfun_registry.obj
 0001:00028c50       ssGetNumZcSignals          0000000180029c50 f   sl_groundvehicleDynamics_sfun_registry.obj
 0001:00028cc0       ssGetZcSignalVector        0000000180029cc0 f   sl_groundvehicleDynamics_sfun_registry.obj
 0001:00028d30       ssGetZcSignalName          0000000180029d30 f   sl_groundvehicleDynamics_sfun_registry.obj
 0001:00028da0       ssGetZcSignalWidth         0000000180029da0 f   sl_groundvehicleDynamics_sfun_registry.obj
 0001:00028e10       ssGetZcSignalZcEventType   0000000180029e10 f   sl_groundvehicleDynamics_sfun_registry.obj
 0001:00028e80       ssGetZcSignalZcEvents      0000000180029e80 f   sl_groundvehicleDynamics_sfun_registry.obj
 0001:00028ef0       ssGetZcSignalType          0000000180029ef0 f   sl_groundvehicleDynamics_sfun_registry.obj
 0001:00028f60       ssGetZcSignalZcTol         0000000180029f60 f   sl_groundvehicleDynamics_sfun_registry.obj
 0001:00028fe0       ssGetZcSignalNeedsEventNotification 0000000180029fe0 f   sl_groundvehicleDynamics_sfun_registry.obj
 0001:00029050       ssGetZcSignalIsZcElementDisc 000000018002a050 f   sl_groundvehicleDynamics_sfun_registry.obj
 0001:000290f0       ssGetIsInputPortElementContinuous 000000018002a0f0 f   sl_groundvehicleDynamics_sfun_registry.obj
 0001:00029190       _ssGetAbsTol               000000018002a190 f   sl_groundvehicleDynamics_sfun_registry.obj
 0001:00029200       _ssSetStateAbsTol          000000018002a200 f   sl_groundvehicleDynamics_sfun_registry.obj
 0001:000292e0       _ssSetInputPortReusableFcn 000000018002a2e0 f   sl_groundvehicleDynamics_sfun_registry.obj
 0001:000293e0       _ssSetOutputPortReusableFcn 000000018002a3e0 f   sl_groundvehicleDynamics_sfun_registry.obj
 0001:000294e0       _ssSetSymbolicDimsSupport  000000018002a4e0 f   sl_groundvehicleDynamics_sfun_registry.obj
 0001:00029550       _ssRegisterSymbolicDimsExpr 000000018002a550 f   sl_groundvehicleDynamics_sfun_registry.obj
 0001:000295d0       _ssRegisterSymbolicDimsMATLABExpr 000000018002a5d0 f   sl_groundvehicleDynamics_sfun_registry.obj
 0001:00029660       _ssRegisterSymbolicDims    000000018002a660 f   sl_groundvehicleDynamics_sfun_registry.obj
 0001:00029700       _ssRegisterSymbolicDimsString 000000018002a700 f   sl_groundvehicleDynamics_sfun_registry.obj
 0001:00029780       _ssRegisterSymbolicDimsIntValue 000000018002a780 f   sl_groundvehicleDynamics_sfun_registry.obj
 0001:000297f0       _ssRegisterSymbolicEqualRelation 000000018002a7f0 f   sl_groundvehicleDynamics_sfun_registry.obj
 0001:00029860       _ssRegisterSymbolicEqualValue 000000018002a860 f   sl_groundvehicleDynamics_sfun_registry.obj
 0001:000298d0       _ssAmendLeadingSymbolicDims 000000018002a8d0 f   sl_groundvehicleDynamics_sfun_registry.obj
 0001:00029950       _ssAmendTrailingSymbolicDims 000000018002a950 f   sl_groundvehicleDynamics_sfun_registry.obj
 0001:000299d0       _ssRegisterSymbolicDimsPlus 000000018002a9d0 f   sl_groundvehicleDynamics_sfun_registry.obj
 0001:00029a50       _ssRegisterSymbolicDimsMinus 000000018002aa50 f   sl_groundvehicleDynamics_sfun_registry.obj
 0001:00029ad0       _ssRegisterSymbolicDimsMultiply 000000018002aad0 f   sl_groundvehicleDynamics_sfun_registry.obj
 0001:00029b50       _ssRegisterSymbolicDimsDivide 000000018002ab50 f   sl_groundvehicleDynamics_sfun_registry.obj
 0001:00029bd0       _ssGetNumSymbolicDims      000000018002abd0 f   sl_groundvehicleDynamics_sfun_registry.obj
 0001:00029c40       _ssGetSymbolicDim          000000018002ac40 f   sl_groundvehicleDynamics_sfun_registry.obj
 0001:00029cc0       _ssSetInputPortSymbolicDimsId 000000018002acc0 f   sl_groundvehicleDynamics_sfun_registry.obj
 0001:00029d30       _ssGetCompInputPortSymbolicDimsId 000000018002ad30 f   sl_groundvehicleDynamics_sfun_registry.obj
 0001:00029da0       _ssSetCompInputPortSymbolicDimsId 000000018002ada0 f   sl_groundvehicleDynamics_sfun_registry.obj
 0001:00029e10       _ssSetOutputPortSymbolicDimsId 000000018002ae10 f   sl_groundvehicleDynamics_sfun_registry.obj
 0001:00029e80       _ssGetCompOutputPortSymbolicDimsId 000000018002ae80 f   sl_groundvehicleDynamics_sfun_registry.obj
 0001:00029ef0       _ssSetCompOutputPortSymbolicDimsId 000000018002aef0 f   sl_groundvehicleDynamics_sfun_registry.obj
 0001:00029f60       _ssGetDWorkSymbolicDimsId  000000018002af60 f   sl_groundvehicleDynamics_sfun_registry.obj
 0001:00029fd0       _ssSetDWorkSymbolicDimsId  000000018002afd0 f   sl_groundvehicleDynamics_sfun_registry.obj
 0001:0002a040       _ssGetCompDWorkSymbolicDimsId 000000018002b040 f   sl_groundvehicleDynamics_sfun_registry.obj
 0001:0002a0b0       _ssSetCompDWorkSymbolicDimsId 000000018002b0b0 f   sl_groundvehicleDynamics_sfun_registry.obj
 0001:0002a120       _ssCreateSLCGStringBuffer  000000018002b120 f   sl_groundvehicleDynamics_sfun_registry.obj
 0001:0002a190       _ssAddToSLCGStringBuffer   000000018002b190 f   sl_groundvehicleDynamics_sfun_registry.obj
 0001:0002a200       _ssGetPointerContainedData 000000018002b200 f   sl_groundvehicleDynamics_sfun_registry.obj
 0001:0002a290       _ssGetPointerContainedDataWidth 000000018002b290 f   sl_groundvehicleDynamics_sfun_registry.obj
 0001:0002a320       _ssRegisterDynamicArrayDataTypeFcn 000000018002b320 f   sl_groundvehicleDynamics_sfun_registry.obj
 0001:0002a3c0       _ssGetDynamicArrayContainedDataCurrentWidthFcn 000000018002b3c0 f   sl_groundvehicleDynamics_sfun_registry.obj
 0001:0002a490       _ssGetDynamicArrayContainedDataFcn 000000018002b490 f   sl_groundvehicleDynamics_sfun_registry.obj
 0001:0002a560       _ssGetInputPortDynamicArrayDataFcn 000000018002b560 f   sl_groundvehicleDynamics_sfun_registry.obj
 0001:0002a620       _ssGetOutputPortDynamicArrayDataFcn 000000018002b620 f   sl_groundvehicleDynamics_sfun_registry.obj
 0001:0002a6e0       _ssGetInputPortDynamicArrayContainedDataFcn 000000018002b6e0 f   sl_groundvehicleDynamics_sfun_registry.obj
 0001:0002a7a0       _ssGetOutputPortDynamicArrayContainedDataFcn 000000018002b7a0 f   sl_groundvehicleDynamics_sfun_registry.obj
 0001:0002a860       _ssGetDynamicArrayDWorkContainedDataFcn 000000018002b860 f   sl_groundvehicleDynamics_sfun_registry.obj
 0001:0002a920       sf_process_check_sum_call  000000018002b920 f   sl_groundvehicleDynamics_sfun_registry.obj
 0001:0002a970       sf_process_get_third_party_uses_info_call 000000018002b970 f   sl_groundvehicleDynamics_sfun_registry.obj
 0001:0002aba0       sf_process_get_jit_fallback_info_call 000000018002bba0 f   sl_groundvehicleDynamics_sfun_registry.obj
 0001:0002add0       sf_process_get_post_codegen_info_call 000000018002bdd0 f   sl_groundvehicleDynamics_sfun_registry.obj
 0001:0002b000       sf_process_get_updateBuildInfo_args_info_call 000000018002c000 f   sl_groundvehicleDynamics_sfun_registry.obj
 0001:0002b230       sf_process_get_eml_resolved_functions_info_call 000000018002c230 f   sl_groundvehicleDynamics_sfun_registry.obj
 0001:0002b460       sf_mex_unlock_call         000000018002c460 f   sl_groundvehicleDynamics_sfun_registry.obj
 0001:0002b680       sf_machine_global_initializer_called 000000018002c680 f   sl_groundvehicleDynamics_sfun_registry.obj
 0001:0002b6b0       sf_machine_global_method_dispatcher 000000018002c6b0 f   sl_groundvehicleDynamics_sfun_registry.obj
 0001:0002b710       sf_machine_global_terminator 000000018002c710 f   sl_groundvehicleDynamics_sfun_registry.obj
 0001:0002b740       callCustomFcn              000000018002c740 f   sl_groundvehicleDynamics_sfun_registry.obj
 0001:0002b750       sf_machine_global_initializer 000000018002c750 f   sl_groundvehicleDynamics_sfun_registry.obj
 0001:0002b780       mdlGetSimState             000000018002c780 f   sl_groundvehicleDynamics_sfun_registry.obj
 0001:0002b7c0       mdlSetSimState             000000018002c7c0 f   sl_groundvehicleDynamics_sfun_registry.obj
 0001:0002c130       ProcessMexSfunctionEveryCall 000000018002d130 f   sl_groundvehicleDynamics_sfun_registry.obj
 0001:0002d2b0       __local_stdio_printf_options 000000018002e2b0 f i sl_groundvehicleDynamics_sfun_registry.obj
 0001:0002d2c0       _vsnprintf_l               000000018002e2c0 f i sl_groundvehicleDynamics_sfun_registry.obj
 0001:0002d340       _vsprintf_l                000000018002e340 f i sl_groundvehicleDynamics_sfun_registry.obj
 0001:0002d390       sprintf                    000000018002e390 f i sl_groundvehicleDynamics_sfun_registry.obj
 0001:0002d3e0       mexfilerequiredapiversion  000000018002e3e0 f   c_mexapi_version.obj
 0001:0002d410       priorityqueuecodegen_constructPQ 000000018002e410 f   priorityqueue_api.obj
 0001:0002d490       priorityqueuecodegen_destructPQ 000000018002e490 f   priorityqueue_api.obj
 0001:0002d4f0       priorityqueuecodegen_push  000000018002e4f0 f   priorityqueue_api.obj
 0001:0002d530       priorityqueuecodegen_top   000000018002e530 f   priorityqueue_api.obj
 0001:0002d5d0       priorityqueuecodegen_pop   000000018002e5d0 f   priorityqueue_api.obj
 0001:0002d600       priorityqueuecodegen_size  000000018002e600 f   priorityqueue_api.obj
 0001:0002d630       priorityqueuecodegen_isEmpty 000000018002e630 f   priorityqueue_api.obj
 0001:0002d660       priorityqueuecodegen_getDataDim 000000018002e660 f   priorityqueue_api.obj
 0001:0002d690       priorityqueuecodegen_constructNodeMap 000000018002e690 f   priorityqueue_api.obj
 0001:0002d700       priorityqueuecodegen_destructNodeMap 000000018002e700 f   priorityqueue_api.obj
 0001:0002d760       priorityqueuecodegen_nodemap_getDataDim 000000018002e760 f   priorityqueue_api.obj
 0001:0002d790       priorityqueuecodegen_nodemap_getNumNodes 000000018002e790 f   priorityqueue_api.obj
 0001:0002d7e0       priorityqueuecodegen_nodemap_traceBack 000000018002e7e0 f   priorityqueue_api.obj
 0001:0002d930       priorityqueuecodegen_nodemap_insertNode 000000018002e930 f   priorityqueue_api.obj
 0001:0002d980       priorityqueuecodegen_nodemap_getNodeData 000000018002e980 f   priorityqueue_api.obj
 0001:0002da80       priorityqueuecodegen_constructSimpleMap 000000018002ea80 f   priorityqueue_api.obj
 0001:0002daf0       priorityqueuecodegen_destructSimpleMap 000000018002eaf0 f   priorityqueue_api.obj
 0001:0002db50       priorityqueuecodegen_simplemap_getDataDim 000000018002eb50 f   priorityqueue_api.obj
 0001:0002db80       priorityqueuecodegen_simplemap_getSize 000000018002eb80 f   priorityqueue_api.obj
 0001:0002dbd0       priorityqueuecodegen_simplemap_insertData 000000018002ebd0 f   priorityqueue_api.obj
 0001:0002dc20       priorityqueuecodegen_simplemap_getData 000000018002ec20 f   priorityqueue_api.obj
 0001:0002dd00       ??$?0$$V@?$_Compressed_pair@V?$allocator@N@std@@V?$_Vector_val@U?$_Simple_types@N@std@@@2@$00@std@@QEAA@U_Zero_then_variadic_args_t@1@@Z 000000018002ed00 f i priorityqueue_api.obj
 0001:0002dd30       ??$?0$$V@?$_Compressed_pair@V?$allocator@U?$pair@HV?$vector@NV?$allocator@N@std@@@std@@@std@@@std@@V?$_Vector_val@U?$_Simple_types@U?$pair@HV?$vector@NV?$allocator@N@std@@@std@@@std@@@std@@@2@$00@std@@QEAA@U_Zero_then_variadic_args_t@1@@Z 000000018002ed30 f i priorityqueue_api.obj
 0001:0002dd60       ??$?0$$V@?$_Compressed_pair@V?$allocator@V?$vector@NV?$allocator@N@std@@@std@@@std@@V?$_Vector_val@U?$_Simple_types@V?$vector@NV?$allocator@N@std@@@std@@@std@@@2@$00@std@@QEAA@U_Zero_then_variadic_args_t@1@@Z 000000018002ed60 f i priorityqueue_api.obj
 0001:0002dd90       ??$?0AEAHV?$vector@NV?$allocator@N@std@@@std@@$0A@@?$pair@HV?$vector@NV?$allocator@N@std@@@std@@@std@@QEAA@AEAH$$QEAV?$vector@NV?$allocator@N@std@@@1@@Z 000000018002ed90 f i priorityqueue_api.obj
 0001:0002dde0       ??$?0AEAPEAU?$_List_node@U?$pair@$$CBHH@std@@PEAX@std@@_N$0A@@?$pair@PEAU?$_List_node@U?$pair@$$CBHH@std@@PEAX@std@@_N@std@@QEAA@AEAPEAU?$_List_node@U?$pair@$$CBHH@std@@PEAX@1@$$QEA_N@Z 000000018002ede0 f i priorityqueue_api.obj
 0001:0002de30       ??$?0AEAPEAU?$_List_node@U?$pair@$$CBHV?$vector@NV?$allocator@N@std@@@std@@@std@@PEAX@std@@_N$0A@@?$pair@PEAU?$_List_node@U?$pair@$$CBHV?$vector@NV?$allocator@N@std@@@std@@@std@@PEAX@std@@_N@std@@QEAA@AEAPEAU?$_List_node@U?$pair@$$CBHV?$vector@NV?$allocator@N@std@@@std@@@std@@PEAX@1@$$QEA_N@Z 000000018002ee30 f i priorityqueue_api.obj
 0001:0002de80       ??$?0AEBH$$Z$$V@?$pair@$$CBHH@std@@QEAA@Upiecewise_construct_t@1@V?$tuple@AEBH@1@V?$tuple@$$V@1@@Z 000000018002ee80 f i priorityqueue_api.obj
 0001:0002def0       ??$?0AEBH$$Z$$V@?$pair@$$CBHV?$vector@NV?$allocator@N@std@@@std@@@std@@QEAA@Upiecewise_construct_t@1@V?$tuple@AEBH@1@V?$tuple@$$V@1@@Z 000000018002eef0 f i priorityqueue_api.obj
 0001:0002df60       ??$?0AEBH$0A@@?$tuple@AEBH@std@@QEAA@AEBH@Z 000000018002ef60 f i priorityqueue_api.obj
 0001:0002df90       ??$?0AEBH@?$_Tuple_val@AEBH@std@@QEAA@AEBH@Z 000000018002ef90 f i priorityqueue_api.obj
 0001:0002dfc0       ??$?0AEBUpiecewise_construct_t@std@@V?$tuple@AEBH@1@V?$tuple@$$V@1@@?$_List_node_emplace_op2@V?$allocator@U?$_List_node@U?$pair@$$CBHH@std@@PEAX@std@@@std@@@std@@QEAA@AEAV?$allocator@U?$_List_node@U?$pair@$$CBHH@std@@PEAX@std@@@1@AEBUpiecewise_construct_t@1@$$QEAV?$tuple@AEBH@1@$$QEAV?$tuple@$$V@1@@Z 000000018002efc0 f i priorityqueue_api.obj
 0001:0002e070       ??$?0AEBUpiecewise_construct_t@std@@V?$tuple@AEBH@1@V?$tuple@$$V@1@@?$_List_node_emplace_op2@V?$allocator@U?$_List_node@U?$pair@$$CBHV?$vector@NV?$allocator@N@std@@@std@@@std@@PEAX@std@@@std@@@std@@QEAA@AEAV?$allocator@U?$_List_node@U?$pair@$$CBHV?$vector@NV?$allocator@N@std@@@std@@@std@@PEAX@std@@@1@AEBUpiecewise_construct_t@1@$$QEAV?$tuple@AEBH@1@$$QEAV?$tuple@$$V@1@@Z 000000018002f070 f i priorityqueue_api.obj
 0001:0002e120       ??$?0AEBV?$allocator@N@std@@$$V@?$_Compressed_pair@V?$allocator@N@std@@V?$_Vector_val@U?$_Simple_types@N@std@@@2@$00@std@@QEAA@U_One_then_variadic_args_t@1@AEBV?$allocator@N@1@@Z 000000018002f120 f i priorityqueue_api.obj
 0001:0002e160       ??$?0AEBV?$allocator@U?$pair@$$CBHH@std@@@std@@$$V@?$_Compressed_pair@V?$allocator@U?$_List_node@U?$pair@$$CBHH@std@@PEAX@std@@@std@@V?$_List_val@U?$_List_simple_types@U?$pair@$$CBHH@std@@@std@@@2@$00@std@@QEAA@U_One_then_variadic_args_t@1@AEBV?$allocator@U?$pair@$$CBHH@std@@@1@@Z 000000018002f160 f i priorityqueue_api.obj
 0001:0002e1a0       ??$?0AEBV?$allocator@U?$pair@$$CBHH@std@@@std@@$$V@?$_Compressed_pair@V?$allocator@V?$_List_unchecked_iterator@V?$_List_val@U?$_List_simple_types@U?$pair@$$CBHH@std@@@std@@@std@@@std@@@std@@V?$_Vector_val@U?$_Simple_types@V?$_List_unchecked_iterator@V?$_List_val@U?$_List_simple_types@U?$pair@$$CBHH@std@@@std@@@std@@@std@@@std@@@2@$00@std@@QEAA@U_One_then_variadic_args_t@1@AEBV?$allocator@U?$pair@$$CBHH@std@@@1@@Z 000000018002f1a0 f i priorityqueue_api.obj
 0001:0002e1e0       ??$?0AEBV?$allocator@U?$pair@$$CBHH@std@@@std@@$0A@@?$_Hash_vec@V?$allocator@V?$_List_unchecked_iterator@V?$_List_val@U?$_List_simple_types@U?$pair@$$CBHH@std@@@std@@@std@@@std@@@std@@@std@@QEAA@AEBV?$allocator@U?$pair@$$CBHH@std@@@1@@Z 000000018002f1e0 f i priorityqueue_api.obj
 0001:0002e230       ??$?0AEBV?$allocator@U?$pair@$$CBHV?$vector@NV?$allocator@N@std@@@std@@@std@@@std@@$$V@?$_Compressed_pair@V?$allocator@U?$_List_node@U?$pair@$$CBHV?$vector@NV?$allocator@N@std@@@std@@@std@@PEAX@std@@@std@@V?$_List_val@U?$_List_simple_types@U?$pair@$$CBHV?$vector@NV?$allocator@N@std@@@std@@@std@@@std@@@2@$00@std@@QEAA@U_One_then_variadic_args_t@1@AEBV?$allocator@U?$pair@$$CBHV?$vector@NV?$allocator@N@std@@@std@@@std@@@1@@Z 000000018002f230 f i priorityqueue_api.obj
 0001:0002e270       ??$?0AEBV?$allocator@U?$pair@$$CBHV?$vector@NV?$allocator@N@std@@@std@@@std@@@std@@$$V@?$_Compressed_pair@V?$allocator@V?$_List_unchecked_iterator@V?$_List_val@U?$_List_simple_types@U?$pair@$$CBHV?$vector@NV?$allocator@N@std@@@std@@@std@@@std@@@std@@@std@@@std@@V?$_Vector_val@U?$_Simple_types@V?$_List_unchecked_iterator@V?$_List_val@U?$_List_simple_types@U?$pair@$$CBHV?$vector@NV?$allocator@N@std@@@std@@@std@@@std@@@std@@@std@@@std@@@2@$00@std@@QEAA@U_One_then_variadic_args_t@1@AEBV?$allocator@U?$pair@$$CBHV?$vector@NV?$allocator@N@std@@@std@@@std@@@1@@Z 000000018002f270 f i priorityqueue_api.obj
 0001:0002e2b0       ??$?0AEBV?$allocator@U?$pair@$$CBHV?$vector@NV?$allocator@N@std@@@std@@@std@@@std@@$0A@@?$_Hash_vec@V?$allocator@V?$_List_unchecked_iterator@V?$_List_val@U?$_List_simple_types@U?$pair@$$CBHV?$vector@NV?$allocator@N@std@@@std@@@std@@@std@@@std@@@std@@@std@@@std@@QEAA@AEBV?$allocator@U?$pair@$$CBHV?$vector@NV?$allocator@N@std@@@std@@@std@@@1@@Z 000000018002f2b0 f i priorityqueue_api.obj
 0001:0002e300       ??$?0HV?$vector@NV?$allocator@N@std@@@std@@$0A@@?$pair@HV?$vector@NV?$allocator@N@std@@@std@@@std@@QEAA@$$QEAH$$QEAV?$vector@NV?$allocator@N@std@@@1@@Z 000000018002f300 f i priorityqueue_api.obj
 0001:0002e350       ??$?0M@?$_Compressed_pair@U?$equal_to@H@std@@M$00@std@@QEAA@U_Zero_then_variadic_args_t@1@$$QEAM@Z 000000018002f350 f i priorityqueue_api.obj
 0001:0002e390       ??$?0PEAU?$_List_node@U?$pair@$$CBHH@std@@PEAX@std@@_N$0A@@?$pair@PEAU?$_List_node@U?$pair@$$CBHH@std@@PEAX@std@@_N@std@@QEAA@$$QEAPEAU?$_List_node@U?$pair@$$CBHH@std@@PEAX@1@$$QEA_N@Z 000000018002f390 f i priorityqueue_api.obj
 0001:0002e3e0       ??$?0PEAU?$_List_node@U?$pair@$$CBHV?$vector@NV?$allocator@N@std@@@std@@@std@@PEAX@std@@_N$0A@@?$pair@PEAU?$_List_node@U?$pair@$$CBHV?$vector@NV?$allocator@N@std@@@std@@@std@@PEAX@std@@_N@std@@QEAA@$$QEAPEAU?$_List_node@U?$pair@$$CBHV?$vector@NV?$allocator@N@std@@@std@@@std@@PEAX@1@$$QEA_N@Z 000000018002f3e0 f i priorityqueue_api.obj
 0001:0002e430       ??$?0PEBN$0A@@?$vector@NV?$allocator@N@std@@@std@@QEAA@PEBN0AEBV?$allocator@N@1@@Z 000000018002f430 f i priorityqueue_api.obj
 0001:0002e4f0       ??$?0U?$pair@$$CBHH@std@@@?$allocator@U?$_List_node@U?$pair@$$CBHH@std@@PEAX@std@@@std@@QEAA@AEBV?$allocator@U?$pair@$$CBHH@std@@@1@@Z 000000018002f4f0 f i priorityqueue_api.obj
 0001:0002e500       ??$?0U?$pair@$$CBHH@std@@@?$allocator@V?$_List_unchecked_iterator@V?$_List_val@U?$_List_simple_types@U?$pair@$$CBHH@std@@@std@@@std@@@std@@@std@@QEAA@AEBV?$allocator@U?$pair@$$CBHH@std@@@1@@Z 000000018002f500 f i priorityqueue_api.obj
 0001:0002e510       ??$?0U?$pair@$$CBHV?$vector@NV?$allocator@N@std@@@std@@@std@@@?$allocator@U?$_List_node@U?$pair@$$CBHV?$vector@NV?$allocator@N@std@@@std@@@std@@PEAX@std@@@std@@QEAA@AEBV?$allocator@U?$pair@$$CBHV?$vector@NV?$allocator@N@std@@@std@@@std@@@1@@Z 000000018002f510 f i priorityqueue_api.obj
 0001:0002e520       ??$?0U?$pair@$$CBHV?$vector@NV?$allocator@N@std@@@std@@@std@@@?$allocator@V?$_List_unchecked_iterator@V?$_List_val@U?$_List_simple_types@U?$pair@$$CBHV?$vector@NV?$allocator@N@std@@@std@@@std@@@std@@@std@@@std@@@std@@QEAA@AEBV?$allocator@U?$pair@$$CBHV?$vector@NV?$allocator@N@std@@@std@@@std@@@1@@Z 000000018002f520 f i priorityqueue_api.obj
 0001:0002e530       ??$?0U_Exact_args_t@std@@$0A@@?$tuple@$$V@std@@QEAA@U_Exact_args_t@1@@Z 000000018002f530 f i priorityqueue_api.obj
 0001:0002e540       ??$?0U_Exact_args_t@std@@AEBH$$V$0A@@?$tuple@AEBH@std@@QEAA@U_Exact_args_t@1@AEBH@Z 000000018002f540 f i priorityqueue_api.obj
 0001:0002e590       ??$?0U_Zero_then_variadic_args_t@std@@M@?$_Compressed_pair@U?$hash@H@std@@V?$_Compressed_pair@U?$equal_to@H@std@@M$00@2@$00@std@@QEAA@U_Zero_then_variadic_args_t@1@$$QEAU21@$$QEAM@Z 000000018002f590 f i priorityqueue_api.obj
 0001:0002e5e0       ??$?0V?$allocator@N@std@@$$V@?$_Compressed_pair@V?$allocator@N@std@@V?$_Vector_val@U?$_Simple_types@N@std@@@2@$00@std@@QEAA@U_One_then_variadic_args_t@1@$$QEAV?$allocator@N@1@@Z 000000018002f5e0 f i priorityqueue_api.obj
 0001:0002e620       ??$?0V?$allocator@N@std@@PEANPEANPEAN@?$_Compressed_pair@V?$allocator@N@std@@V?$_Vector_val@U?$_Simple_types@N@std@@@2@$00@std@@QEAA@U_One_then_variadic_args_t@1@$$QEAV?$allocator@N@1@$$QEAPEAN22@Z 000000018002f620 f i priorityqueue_api.obj
 0001:0002e690       ??$?0V?$allocator@V?$vector@NV?$allocator@N@std@@@std@@@std@@PEAV?$vector@NV?$allocator@N@std@@@1@PEAV21@PEAV21@@?$_Compressed_pair@V?$allocator@V?$vector@NV?$allocator@N@std@@@std@@@std@@V?$_Vector_val@U?$_Simple_types@V?$vector@NV?$allocator@N@std@@@std@@@std@@@2@$00@std@@QEAA@U_One_then_variadic_args_t@1@$$QEAV?$allocator@V?$vector@NV?$allocator@N@std@@@std@@@1@$$QEAPEAV?$vector@NV?$allocator@N@std@@@1@22@Z 000000018002f690 f i priorityqueue_api.obj
 0001:0002e700       ??$?0V?$tuple@AEBH@std@@V?$tuple@$$V@1@$0A@$$Z$S@?$pair@$$CBHH@std@@QEAA@AEAV?$tuple@AEBH@1@AEAV?$tuple@$$V@1@U?$integer_sequence@_K$0A@@1@U?$integer_sequence@_K$S@1@@Z 000000018002f700 f i priorityqueue_api.obj
 0001:0002e750       ??$?0V?$tuple@AEBH@std@@V?$tuple@$$V@1@$0A@$$Z$S@?$pair@$$CBHV?$vector@NV?$allocator@N@std@@@std@@@std@@QEAA@AEAV?$tuple@AEBH@1@AEAV?$tuple@$$V@1@U?$integer_sequence@_K$0A@@1@U?$integer_sequence@_K$S@1@@Z 000000018002f750 f i priorityqueue_api.obj
 0001:0002e7a0       ??$?4U?$pair@HV?$vector@NV?$allocator@N@std@@@std@@@std@@$0A@@?$pair@HV?$vector@NV?$allocator@N@std@@@std@@@std@@QEAAAEAU01@$$QEAU01@@Z 000000018002f7a0 f i priorityqueue_api.obj
 0001:0002e7f0       ??$?RH@?$_Uhash_compare@HU?$hash@H@std@@U?$equal_to@H@2@@std@@QEBA_KAEBH@Z 000000018002f7f0 f i priorityqueue_api.obj
 0001:0002e820       ??$?RHH@?$_Uhash_compare@HU?$hash@H@std@@U?$equal_to@H@2@@std@@QEBA_NAEBH0@Z 000000018002f820 f i priorityqueue_api.obj
 0001:0002e880       ??$_Adl_verify_range@PEAV?$_List_unchecked_iterator@V?$_List_val@U?$_List_simple_types@U?$pair@$$CBHH@std@@@std@@@std@@@std@@PEAV12@@std@@YAXAEBQEAV?$_List_unchecked_iterator@V?$_List_val@U?$_List_simple_types@U?$pair@$$CBHH@std@@@std@@@std@@@0@0@Z 000000018002f880 f i priorityqueue_api.obj
 0001:0002e890       ??$_Adl_verify_range@PEAV?$_List_unchecked_iterator@V?$_List_val@U?$_List_simple_types@U?$pair@$$CBHV?$vector@NV?$allocator@N@std@@@std@@@std@@@std@@@std@@@std@@PEAV12@@std@@YAXAEBQEAV?$_List_unchecked_iterator@V?$_List_val@U?$_List_simple_types@U?$pair@$$CBHV?$vector@NV?$allocator@N@std@@@std@@@std@@@std@@@std@@@0@0@Z 000000018002f890 f i priorityqueue_api.obj
 0001:0002e8a0       ??$_Adl_verify_range@PEBNPEBN@std@@YAXAEBQEBN0@Z 000000018002f8a0 f i priorityqueue_api.obj
 0001:0002e8b0       ??$_Adl_verify_range@V?$_Vector_iterator@V?$_Vector_val@U?$_Simple_types@U?$pair@HV?$vector@NV?$allocator@N@std@@@std@@@std@@@std@@@std@@@std@@V12@@std@@YAXAEBV?$_Vector_iterator@V?$_Vector_val@U?$_Simple_types@U?$pair@HV?$vector@NV?$allocator@N@std@@@std@@@std@@@std@@@std@@@0@0@Z 000000018002f8b0 f i priorityqueue_api.obj
 0001:0002e8c0       ??$_Allocate@$0BA@U_Default_allocate_traits@std@@$0A@@std@@YAPEAX_K@Z 000000018002f8c0 f i priorityqueue_api.obj
 0001:0002e900       ??$_Allocate_at_least_helper@V?$allocator@N@std@@@std@@YAPEANAEAV?$allocator@N@0@AEA_K@Z 000000018002f900 f i priorityqueue_api.obj
 0001:0002e930       ??$_Allocate_at_least_helper@V?$allocator@U?$pair@HV?$vector@NV?$allocator@N@std@@@std@@@std@@@std@@@std@@YAPEAU?$pair@HV?$vector@NV?$allocator@N@std@@@std@@@0@AEAV?$allocator@U?$pair@HV?$vector@NV?$allocator@N@std@@@std@@@std@@@0@AEA_K@Z 000000018002f930 f i priorityqueue_api.obj
 0001:0002e960       ??$_Allocate_at_least_helper@V?$allocator@V?$vector@NV?$allocator@N@std@@@std@@@std@@@std@@YAPEAV?$vector@NV?$allocator@N@std@@@0@AEAV?$allocator@V?$vector@NV?$allocator@N@std@@@std@@@0@AEA_K@Z 000000018002f960 f i priorityqueue_api.obj
 0001:0002e990       ??$_Allocate_manually_vector_aligned@U_Default_allocate_traits@std@@@std@@YAPEAX_K@Z 000000018002f990 f i priorityqueue_api.obj
 0001:0002ea20       ??$_Construct_in_place@PEAU?$_List_node@U?$pair@$$CBHH@std@@PEAX@std@@AEAPEAU12@@std@@YAXAEAPEAU?$_List_node@U?$pair@$$CBHH@std@@PEAX@0@0@Z 000000018002fa20 f i priorityqueue_api.obj
 0001:0002ea70       ??$_Construct_in_place@PEAU?$_List_node@U?$pair@$$CBHH@std@@PEAX@std@@AEBQEAU12@@std@@YAXAEAPEAU?$_List_node@U?$pair@$$CBHH@std@@PEAX@0@AEBQEAU10@@Z 000000018002fa70 f i priorityqueue_api.obj
 0001:0002eac0       ??$_Construct_in_place@PEAU?$_List_node@U?$pair@$$CBHV?$vector@NV?$allocator@N@std@@@std@@@std@@PEAX@std@@AEAPEAU12@@std@@YAXAEAPEAU?$_List_node@U?$pair@$$CBHV?$vector@NV?$allocator@N@std@@@std@@@std@@PEAX@0@0@Z 000000018002fac0 f i priorityqueue_api.obj
 0001:0002eb10       ??$_Construct_in_place@PEAU?$_List_node@U?$pair@$$CBHV?$vector@NV?$allocator@N@std@@@std@@@std@@PEAX@std@@AEBQEAU12@@std@@YAXAEAPEAU?$_List_node@U?$pair@$$CBHV?$vector@NV?$allocator@N@std@@@std@@@std@@PEAX@0@AEBQEAU10@@Z 000000018002fb10 f i priorityqueue_api.obj
 0001:0002eb60       ??$_Construct_in_place@U?$pair@HV?$vector@NV?$allocator@N@std@@@std@@@std@@AEAHV?$vector@NV?$allocator@N@std@@@2@@std@@YAXAEAU?$pair@HV?$vector@NV?$allocator@N@std@@@std@@@0@AEAH$$QEAV?$vector@NV?$allocator@N@std@@@0@@Z 000000018002fb60 f i priorityqueue_api.obj
 0001:0002ebd0       ??$_Construct_in_place@V?$_List_unchecked_iterator@V?$_List_val@U?$_List_simple_types@U?$pair@$$CBHH@std@@@std@@@std@@@std@@AEBV12@@std@@YAXAEAV?$_List_unchecked_iterator@V?$_List_val@U?$_List_simple_types@U?$pair@$$CBHH@std@@@std@@@std@@@0@AEBV10@@Z 000000018002fbd0 f i priorityqueue_api.obj
 0001:0002ec20       ??$_Construct_in_place@V?$_List_unchecked_iterator@V?$_List_val@U?$_List_simple_types@U?$pair@$$CBHV?$vector@NV?$allocator@N@std@@@std@@@std@@@std@@@std@@@std@@AEBV12@@std@@YAXAEAV?$_List_unchecked_iterator@V?$_List_val@U?$_List_simple_types@U?$pair@$$CBHV?$vector@NV?$allocator@N@std@@@std@@@std@@@std@@@std@@@0@AEBV10@@Z 000000018002fc20 f i priorityqueue_api.obj
 0001:0002ec70       ??$_Construct_n@AEBN@?$vector@NV?$allocator@N@std@@@std@@AEAAX_KAEBN@Z 000000018002fc70 f i priorityqueue_api.obj
 0001:0002ed30       ??$_Construct_n@AEBQEANAEBQEAN@?$vector@NV?$allocator@N@std@@@std@@AEAAX_KAEBQEAN1@Z 000000018002fd30 f i priorityqueue_api.obj
 0001:0002ee10       ??$_Construct_n@PEBNPEBN@?$vector@NV?$allocator@N@std@@@std@@AEAAX_K$$QEAPEBN1@Z 000000018002fe10 f i priorityqueue_api.obj
 0001:0002eef0       ??$_Convert_size@_K_K@std@@YA_K_K@Z 000000018002fef0 f i priorityqueue_api.obj
 0001:0002ef00       ??$_Copy_memmove@PEANPEAN@std@@YAPEANPEAN00@Z 000000018002ff00 f i priorityqueue_api.obj
 0001:0002efa0       ??$_Copy_memmove@PEBNPEAN@std@@YAPEANPEBN0PEAN@Z 000000018002ffa0 f i priorityqueue_api.obj
 0001:0002f040       ??$_Deallocate@$0BA@$0A@@std@@YAXPEAX_K@Z 0000000180030040 f i priorityqueue_api.obj
 0001:0002f080       ??$_Destroy_in_place@PEAU?$_List_node@U?$pair@$$CBHH@std@@PEAX@std@@@std@@YAXAEAPEAU?$_List_node@U?$pair@$$CBHH@std@@PEAX@0@@Z 0000000180030080 f i priorityqueue_api.obj
 0001:0002f090       ??$_Destroy_in_place@PEAU?$_List_node@U?$pair@$$CBHV?$vector@NV?$allocator@N@std@@@std@@@std@@PEAX@std@@@std@@YAXAEAPEAU?$_List_node@U?$pair@$$CBHV?$vector@NV?$allocator@N@std@@@std@@@std@@PEAX@0@@Z 0000000180030090 f i priorityqueue_api.obj
 0001:0002f0a0       ??$_Destroy_range@PEAV?$_List_unchecked_iterator@V?$_List_val@U?$_List_simple_types@U?$pair@$$CBHH@std@@@std@@@std@@@std@@PEAV12@@std@@YAXPEAV?$_List_unchecked_iterator@V?$_List_val@U?$_List_simple_types@U?$pair@$$CBHH@std@@@std@@@std@@@0@QEAV10@@Z 00000001800300a0 f i priorityqueue_api.obj
 0001:0002f0b0       ??$_Destroy_range@PEAV?$_List_unchecked_iterator@V?$_List_val@U?$_List_simple_types@U?$pair@$$CBHV?$vector@NV?$allocator@N@std@@@std@@@std@@@std@@@std@@@std@@PEAV12@@std@@YAXPEAV?$_List_unchecked_iterator@V?$_List_val@U?$_List_simple_types@U?$pair@$$CBHV?$vector@NV?$allocator@N@std@@@std@@@std@@@std@@@std@@@0@QEAV10@@Z 00000001800300b0 f i priorityqueue_api.obj
 0001:0002f0c0       ??$_Destroy_range@V?$allocator@N@std@@@std@@YAXPEANQEANAEAV?$allocator@N@0@@Z 00000001800300c0 f i priorityqueue_api.obj
 0001:0002f0d0       ??$_Destroy_range@V?$allocator@U?$pair@HV?$vector@NV?$allocator@N@std@@@std@@@std@@@std@@@std@@YAXPEAU?$pair@HV?$vector@NV?$allocator@N@std@@@std@@@0@QEAU10@AEAV?$allocator@U?$pair@HV?$vector@NV?$allocator@N@std@@@std@@@std@@@0@@Z 00000001800300d0 f i priorityqueue_api.obj
 0001:0002f120       ??$_Destroy_range@V?$allocator@V?$vector@NV?$allocator@N@std@@@std@@@std@@@std@@YAXPEAV?$vector@NV?$allocator@N@std@@@0@QEAV10@AEAV?$allocator@V?$vector@NV?$allocator@N@std@@@std@@@0@@Z 0000000180030120 f i priorityqueue_api.obj
 0001:0002f170       ??$_Emplace_back@AEAN@?$_Uninitialized_backout_al@V?$allocator@N@std@@@std@@QEAAXAEAN@Z 0000000180030170 f i priorityqueue_api.obj
 0001:0002f1d0       ??$_Emplace_back@AEBN@?$_Uninitialized_backout_al@V?$allocator@N@std@@@std@@QEAAXAEBN@Z 00000001800301d0 f i priorityqueue_api.obj
 0001:0002f230       ??$_Emplace_back@AEBV?$_List_unchecked_iterator@V?$_List_val@U?$_List_simple_types@U?$pair@$$CBHH@std@@@std@@@std@@@std@@@?$_Uninitialized_backout@PEAV?$_List_unchecked_iterator@V?$_List_val@U?$_List_simple_types@U?$pair@$$CBHH@std@@@std@@@std@@@std@@@std@@QEAAXAEBV?$_List_unchecked_iterator@V?$_List_val@U?$_List_simple_types@U?$pair@$$CBHH@std@@@std@@@std@@@1@@Z 0000000180030230 f i priorityqueue_api.obj
 0001:0002f280       ??$_Emplace_back@AEBV?$_List_unchecked_iterator@V?$_List_val@U?$_List_simple_types@U?$pair@$$CBHV?$vector@NV?$allocator@N@std@@@std@@@std@@@std@@@std@@@std@@@?$_Uninitialized_backout@PEAV?$_List_unchecked_iterator@V?$_List_val@U?$_List_simple_types@U?$pair@$$CBHV?$vector@NV?$allocator@N@std@@@std@@@std@@@std@@@std@@@std@@@std@@QEAAXAEBV?$_List_unchecked_iterator@V?$_List_val@U?$_List_simple_types@U?$pair@$$CBHV?$vector@NV?$allocator@N@std@@@std@@@std@@@std@@@std@@@1@@Z 0000000180030280 f i priorityqueue_api.obj
 0001:0002f2d0       ??$_Emplace_back@U?$pair@HV?$vector@NV?$allocator@N@std@@@std@@@std@@@?$_Uninitialized_backout_al@V?$allocator@U?$pair@HV?$vector@NV?$allocator@N@std@@@std@@@std@@@std@@@std@@QEAAX$$QEAU?$pair@HV?$vector@NV?$allocator@N@std@@@std@@@1@@Z 00000001800302d0 f i priorityqueue_api.obj
 0001:0002f330       ??$_Emplace_back@V?$vector@NV?$allocator@N@std@@@std@@@?$_Uninitialized_backout_al@V?$allocator@V?$vector@NV?$allocator@N@std@@@std@@@std@@@std@@QEAAX$$QEAV?$vector@NV?$allocator@N@std@@@1@@Z 0000000180030330 f i priorityqueue_api.obj
 0001:0002f390       ??$_Emplace_back_with_unused_capacity@AEAHV?$vector@NV?$allocator@N@std@@@std@@@?$vector@U?$pair@HV?$vector@NV?$allocator@N@std@@@std@@@std@@V?$allocator@U?$pair@HV?$vector@NV?$allocator@N@std@@@std@@@std@@@2@@std@@AEAAAEAU?$pair@HV?$vector@NV?$allocator@N@std@@@std@@@1@AEAH$$QEAV?$vector@NV?$allocator@N@std@@@1@@Z 0000000180030390 f i priorityqueue_api.obj
 0001:0002f440       ??$_Emplace_back_with_unused_capacity@AEBHN@?$vector@V?$vector@NV?$allocator@N@std@@@std@@V?$allocator@V?$vector@NV?$allocator@N@std@@@std@@@2@@std@@AEAAAEAV?$vector@NV?$allocator@N@std@@@1@AEBH$$QEAN@Z 0000000180030440 f i priorityqueue_api.obj
 0001:0002f510       ??$_Emplace_back_with_unused_capacity@AEBV?$vector@NV?$allocator@N@std@@@std@@@?$vector@V?$vector@NV?$allocator@N@std@@@std@@V?$allocator@V?$vector@NV?$allocator@N@std@@@std@@@2@@std@@AEAAAEAV?$vector@NV?$allocator@N@std@@@1@AEBV21@@Z 0000000180030510 f i priorityqueue_api.obj
 0001:0002f5c0       ??$_Emplace_one_at_back@AEAHV?$vector@NV?$allocator@N@std@@@std@@@?$vector@U?$pair@HV?$vector@NV?$allocator@N@std@@@std@@@std@@V?$allocator@U?$pair@HV?$vector@NV?$allocator@N@std@@@std@@@std@@@2@@std@@AEAAAEAU?$pair@HV?$vector@NV?$allocator@N@std@@@std@@@1@AEAH$$QEAV?$vector@NV?$allocator@N@std@@@1@@Z 00000001800305c0 f i priorityqueue_api.obj
 0001:0002f670       ??$_Emplace_one_at_back@AEBHN@?$vector@V?$vector@NV?$allocator@N@std@@@std@@V?$allocator@V?$vector@NV?$allocator@N@std@@@std@@@2@@std@@AEAAAEAV?$vector@NV?$allocator@N@std@@@1@AEBH$$QEAN@Z 0000000180030670 f i priorityqueue_api.obj
 0001:0002f720       ??$_Emplace_one_at_back@AEBV?$vector@NV?$allocator@N@std@@@std@@@?$vector@V?$vector@NV?$allocator@N@std@@@std@@V?$allocator@V?$vector@NV?$allocator@N@std@@@std@@@2@@std@@AEAAAEAV?$vector@NV?$allocator@N@std@@@1@AEBV21@@Z 0000000180030720 f i priorityqueue_api.obj
 0001:0002f7a0       ??$_Emplace_reallocate@AEAHV?$vector@NV?$allocator@N@std@@@std@@@?$vector@U?$pair@HV?$vector@NV?$allocator@N@std@@@std@@@std@@V?$allocator@U?$pair@HV?$vector@NV?$allocator@N@std@@@std@@@std@@@2@@std@@AEAAPEAU?$pair@HV?$vector@NV?$allocator@N@std@@@std@@@1@QEAU21@AEAH$$QEAV?$vector@NV?$allocator@N@std@@@1@@Z 00000001800307a0 f i priorityqueue_api.obj
 0001:0002f9e0       ??$_Emplace_reallocate@AEBHN@?$vector@V?$vector@NV?$allocator@N@std@@@std@@V?$allocator@V?$vector@NV?$allocator@N@std@@@std@@@2@@std@@AEAAPEAV?$vector@NV?$allocator@N@std@@@1@QEAV21@AEBH$$QEAN@Z 00000001800309e0 f i priorityqueue_api.obj
 0001:0002fc20       ??$_Emplace_reallocate@AEBV?$vector@NV?$allocator@N@std@@@std@@@?$vector@V?$vector@NV?$allocator@N@std@@@std@@V?$allocator@V?$vector@NV?$allocator@N@std@@@std@@@2@@std@@AEAAPEAV?$vector@NV?$allocator@N@std@@@1@QEAV21@AEBV21@@Z 0000000180030c20 f i priorityqueue_api.obj
 0001:0002fe40       ??$_Fill_zero_memset@PEAN@std@@YAXPEAN_K@Z 0000000180030e40 f i priorityqueue_api.obj
 0001:0002fe80       ??$_Find@H@?$_Hash@V?$_Umap_traits@HHV?$_Uhash_compare@HU?$hash@H@std@@U?$equal_to@H@2@@std@@V?$allocator@U?$pair@$$CBHH@std@@@2@$0A@@std@@@std@@AEBAPEAU?$_List_node@U?$pair@$$CBHH@std@@PEAX@1@AEBH_K@Z 0000000180030e80 f i priorityqueue_api.obj
 0001:0002fee0       ??$_Find@H@?$_Hash@V?$_Umap_traits@HV?$vector@NV?$allocator@N@std@@@std@@V?$_Uhash_compare@HU?$hash@H@std@@U?$equal_to@H@2@@2@V?$allocator@U?$pair@$$CBHV?$vector@NV?$allocator@N@std@@@std@@@std@@@2@$0A@@std@@@std@@AEBAPEAU?$_List_node@U?$pair@$$CBHV?$vector@NV?$allocator@N@std@@@std@@@std@@PEAX@1@AEBH_K@Z 0000000180030ee0 f i priorityqueue_api.obj
 0001:0002ff40       ??$_Find_last@H@?$_Hash@V?$_Umap_traits@HHV?$_Uhash_compare@HU?$hash@H@std@@U?$equal_to@H@2@@std@@V?$allocator@U?$pair@$$CBHH@std@@@2@$0A@@std@@@std@@IEBA?AU?$_Hash_find_last_result@PEAU?$_List_node@U?$pair@$$CBHH@std@@PEAX@std@@@1@AEBH_K@Z 0000000180030f40 f i priorityqueue_api.obj
 0001:00030080       ??$_Find_last@H@?$_Hash@V?$_Umap_traits@HV?$vector@NV?$allocator@N@std@@@std@@V?$_Uhash_compare@HU?$hash@H@std@@U?$equal_to@H@2@@2@V?$allocator@U?$pair@$$CBHV?$vector@NV?$allocator@N@std@@@std@@@std@@@2@$0A@@std@@@std@@IEBA?AU?$_Hash_find_last_result@PEAU?$_List_node@U?$pair@$$CBHV?$vector@NV?$allocator@N@std@@@std@@@std@@PEAX@std@@@1@AEBH_K@Z 0000000180031080 f i priorityqueue_api.obj
 0001:000301c0       ??$_Fnv1a_append_value@H@std@@YA_K_KAEBH@Z 00000001800311c0 f i priorityqueue_api.obj
 0001:000301f0       ??$_Free_non_head@V?$allocator@U?$_List_node@U?$pair@$$CBHH@std@@PEAX@std@@@std@@@?$_List_node@U?$pair@$$CBHH@std@@PEAX@std@@SAXAEAV?$allocator@U?$_List_node@U?$pair@$$CBHH@std@@PEAX@std@@@1@PEAU01@@Z 00000001800311f0 f i priorityqueue_api.obj
 0001:00030260       ??$_Free_non_head@V?$allocator@U?$_List_node@U?$pair@$$CBHV?$vector@NV?$allocator@N@std@@@std@@@std@@PEAX@std@@@std@@@?$_List_node@U?$pair@$$CBHV?$vector@NV?$allocator@N@std@@@std@@@std@@PEAX@std@@SAXAEAV?$allocator@U?$_List_node@U?$pair@$$CBHV?$vector@NV?$allocator@N@std@@@std@@@std@@PEAX@std@@@1@PEAU01@@Z 0000000180031260 f i priorityqueue_api.obj
 0001:000302d0       ??$_Freenode0@V?$allocator@U?$_List_node@U?$pair@$$CBHH@std@@PEAX@std@@@std@@@?$_List_node@U?$pair@$$CBHH@std@@PEAX@std@@SAXAEAV?$allocator@U?$_List_node@U?$pair@$$CBHH@std@@PEAX@std@@@1@PEAU01@@Z 00000001800312d0 f i priorityqueue_api.obj
 0001:00030320       ??$_Freenode0@V?$allocator@U?$_List_node@U?$pair@$$CBHV?$vector@NV?$allocator@N@std@@@std@@@std@@PEAX@std@@@std@@@?$_List_node@U?$pair@$$CBHV?$vector@NV?$allocator@N@std@@@std@@@std@@PEAX@std@@SAXAEAV?$allocator@U?$_List_node@U?$pair@$$CBHV?$vector@NV?$allocator@N@std@@@std@@@std@@PEAX@std@@@1@PEAU01@@Z 0000000180031320 f i priorityqueue_api.obj
 0001:00030370       ??$_Freenode@V?$allocator@U?$_List_node@U?$pair@$$CBHH@std@@PEAX@std@@@std@@@?$_List_node@U?$pair@$$CBHH@std@@PEAX@std@@SAXAEAV?$allocator@U?$_List_node@U?$pair@$$CBHH@std@@PEAX@std@@@1@PEAU01@@Z 0000000180031370 f i priorityqueue_api.obj
 0001:000303c0       ??$_Freenode@V?$allocator@U?$_List_node@U?$pair@$$CBHV?$vector@NV?$allocator@N@std@@@std@@@std@@PEAX@std@@@std@@@?$_List_node@U?$pair@$$CBHV?$vector@NV?$allocator@N@std@@@std@@@std@@PEAX@std@@SAXAEAV?$allocator@U?$_List_node@U?$pair@$$CBHV?$vector@NV?$allocator@N@std@@@std@@@std@@PEAX@std@@@1@PEAU01@@Z 00000001800313c0 f i priorityqueue_api.obj
 0001:00030410       ??$_Get_size_of_n@$07@std@@YA_K_K@Z 0000000180031410 f i priorityqueue_api.obj
 0001:00030460       ??$_Get_size_of_n@$0BI@@std@@YA_K_K@Z 0000000180031460 f i priorityqueue_api.obj
 0001:000304a0       ??$_Get_size_of_n@$0CA@@std@@YA_K_K@Z 00000001800314a0 f i priorityqueue_api.obj
 0001:000304e0       ??$_Get_size_of_n@$0DA@@std@@YA_K_K@Z 00000001800314e0 f i priorityqueue_api.obj
 0001:00030520       ??$_Get_unwrapped@AEAPEBN@std@@YA?A_TAEAPEBN@Z 0000000180031520 f i priorityqueue_api.obj
 0001:00030530       ??$_Get_unwrapped@AEAV?$_Vector_iterator@V?$_Vector_val@U?$_Simple_types@U?$pair@HV?$vector@NV?$allocator@N@std@@@std@@@std@@@std@@@std@@@std@@@std@@YA?A_TAEAV?$_Vector_iterator@V?$_Vector_val@U?$_Simple_types@U?$pair@HV?$vector@NV?$allocator@N@std@@@std@@@std@@@std@@@std@@@0@@Z 0000000180031530 f i priorityqueue_api.obj
 0001:00030550       ??$_Get_unwrapped@AEBQEAU?$pair@HV?$vector@NV?$allocator@N@std@@@std@@@std@@@std@@YA?A_TAEBQEAU?$pair@HV?$vector@NV?$allocator@N@std@@@std@@@0@@Z 0000000180031550 f i priorityqueue_api.obj
 0001:00030560       ??$_Get_unwrapped@AEBQEAV?$_List_unchecked_iterator@V?$_List_val@U?$_List_simple_types@U?$pair@$$CBHH@std@@@std@@@std@@@std@@@std@@YA?A_TAEBQEAV?$_List_unchecked_iterator@V?$_List_val@U?$_List_simple_types@U?$pair@$$CBHH@std@@@std@@@std@@@0@@Z 0000000180031560 f i priorityqueue_api.obj
 0001:00030570       ??$_Get_unwrapped@AEBQEAV?$_List_unchecked_iterator@V?$_List_val@U?$_List_simple_types@U?$pair@$$CBHV?$vector@NV?$allocator@N@std@@@std@@@std@@@std@@@std@@@std@@@std@@YA?A_TAEBQEAV?$_List_unchecked_iterator@V?$_List_val@U?$_List_simple_types@U?$pair@$$CBHV?$vector@NV?$allocator@N@std@@@std@@@std@@@std@@@std@@@0@@Z 0000000180031570 f i priorityqueue_api.obj
 0001:00030580       ??$_Get_unwrapped@AEBQEAV?$vector@NV?$allocator@N@std@@@std@@@std@@YA?A_TAEBQEAV?$vector@NV?$allocator@N@std@@@0@@Z 0000000180031580 f i priorityqueue_api.obj
 0001:00030590       ??$_Get_unwrapped@PEAN@std@@YA?A_T$$QEAPEAN@Z 0000000180031590 f i priorityqueue_api.obj
 0001:000305a0       ??$_Get_unwrapped@PEBN@std@@YA?A_T$$QEAPEBN@Z 00000001800315a0 f i priorityqueue_api.obj
 0001:000305b0       ??$_Hash_representation@H@std@@YA_KAEBH@Z 00000001800315b0 f i priorityqueue_api.obj
 0001:000305e0       ??$_Is_all_bits_zero@N@std@@YA_NAEBN@Z 00000001800315e0 f i priorityqueue_api.obj
 0001:00030630       ??$_Kfn@$$CBHH@?$_Umap_traits@HHV?$_Uhash_compare@HU?$hash@H@std@@U?$equal_to@H@2@@std@@V?$allocator@U?$pair@$$CBHH@std@@@2@$0A@@std@@SAAEBHAEBU?$pair@$$CBHH@1@@Z 0000000180031630 f i priorityqueue_api.obj
 0001:00030640       ??$_Kfn@$$CBHV?$vector@NV?$allocator@N@std@@@std@@@?$_Umap_traits@HV?$vector@NV?$allocator@N@std@@@std@@V?$_Uhash_compare@HU?$hash@H@std@@U?$equal_to@H@2@@2@V?$allocator@U?$pair@$$CBHV?$vector@NV?$allocator@N@std@@@std@@@std@@@2@$0A@@std@@SAAEBHAEBU?$pair@$$CBHV?$vector@NV?$allocator@N@std@@@std@@@1@@Z 0000000180031640 f i priorityqueue_api.obj
 0001:00030650       ??$_Pass_fn@Ucomparator@PriorityQueueImpl@nav@@@std@@YA?A_PAEAUcomparator@PriorityQueueImpl@nav@@@Z 0000000180031650 f i priorityqueue_api.obj
 0001:00030680       ??$_Pocma@V?$allocator@N@std@@@std@@YAXAEAV?$allocator@N@0@0@Z 0000000180031680 f i priorityqueue_api.obj
 0001:000306a0       ??$_Pocma@V?$allocator@U?$_List_node@U?$pair@$$CBHH@std@@PEAX@std@@@std@@@std@@YAXAEAV?$allocator@U?$_List_node@U?$pair@$$CBHH@std@@PEAX@std@@@0@0@Z 00000001800316a0 f i priorityqueue_api.obj
 0001:000306c0       ??$_Pocma@V?$allocator@U?$_List_node@U?$pair@$$CBHV?$vector@NV?$allocator@N@std@@@std@@@std@@PEAX@std@@@std@@@std@@YAXAEAV?$allocator@U?$_List_node@U?$pair@$$CBHV?$vector@NV?$allocator@N@std@@@std@@@std@@PEAX@std@@@0@0@Z 00000001800316c0 f i priorityqueue_api.obj
 0001:000306e0       ??$_Pocma@V?$allocator@U?$pair@HV?$vector@NV?$allocator@N@std@@@std@@@std@@@std@@@std@@YAXAEAV?$allocator@U?$pair@HV?$vector@NV?$allocator@N@std@@@std@@@std@@@0@0@Z 00000001800316e0 f i priorityqueue_api.obj
 0001:00030700       ??$_Pocma@V?$allocator@V?$_List_unchecked_iterator@V?$_List_val@U?$_List_simple_types@U?$pair@$$CBHH@std@@@std@@@std@@@std@@@std@@@std@@YAXAEAV?$allocator@V?$_List_unchecked_iterator@V?$_List_val@U?$_List_simple_types@U?$pair@$$CBHH@std@@@std@@@std@@@std@@@0@0@Z 0000000180031700 f i priorityqueue_api.obj
 0001:00030720       ??$_Pocma@V?$allocator@V?$_List_unchecked_iterator@V?$_List_val@U?$_List_simple_types@U?$pair@$$CBHV?$vector@NV?$allocator@N@std@@@std@@@std@@@std@@@std@@@std@@@std@@@std@@YAXAEAV?$allocator@V?$_List_unchecked_iterator@V?$_List_val@U?$_List_simple_types@U?$pair@$$CBHV?$vector@NV?$allocator@N@std@@@std@@@std@@@std@@@std@@@std@@@0@0@Z 0000000180031720 f i priorityqueue_api.obj
 0001:00030740       ??$_Pop_heap_hole_by_index@PEAU?$pair@HV?$vector@NV?$allocator@N@std@@@std@@@std@@U12@Ucomparator@PriorityQueueImpl@nav@@@std@@YAXPEAU?$pair@HV?$vector@NV?$allocator@N@std@@@std@@@0@_J1$$QEAU10@Ucomparator@PriorityQueueImpl@nav@@@Z 0000000180031740 f i priorityqueue_api.obj
 0001:000308d0       ??$_Pop_heap_hole_unchecked@PEAU?$pair@HV?$vector@NV?$allocator@N@std@@@std@@@std@@U12@Ucomparator@PriorityQueueImpl@nav@@@std@@YAXPEAU?$pair@HV?$vector@NV?$allocator@N@std@@@std@@@0@00$$QEAU10@Ucomparator@PriorityQueueImpl@nav@@@Z 00000001800318d0 f i priorityqueue_api.obj
 0001:00030940       ??$_Pop_heap_unchecked@PEAU?$pair@HV?$vector@NV?$allocator@N@std@@@std@@@std@@Ucomparator@PriorityQueueImpl@nav@@@std@@YAXPEAU?$pair@HV?$vector@NV?$allocator@N@std@@@std@@@0@0Ucomparator@PriorityQueueImpl@nav@@@Z 0000000180031940 f i priorityqueue_api.obj
 0001:000309d0       ??$_Push_heap_by_index@PEAU?$pair@HV?$vector@NV?$allocator@N@std@@@std@@@std@@U12@Ucomparator@PriorityQueueImpl@nav@@@std@@YAXPEAU?$pair@HV?$vector@NV?$allocator@N@std@@@std@@@0@_J1$$QEAU10@Ucomparator@PriorityQueueImpl@nav@@@Z 00000001800319d0 f i priorityqueue_api.obj
 0001:00030ab0       ??$_To_address@PEAN@std@@YA?A_PAEBQEAN@Z 0000000180031ab0 f i priorityqueue_api.obj
 0001:00030ac0       ??$_To_address@PEBN@std@@YA?A_PAEBQEBN@Z 0000000180031ac0 f i priorityqueue_api.obj
 0001:00030ad0       ??$_Try_emplace@AEBH$$V@?$_Hash@V?$_Umap_traits@HHV?$_Uhash_compare@HU?$hash@H@std@@U?$equal_to@H@2@@std@@V?$allocator@U?$pair@$$CBHH@std@@@2@$0A@@std@@@std@@IEAA?AU?$pair@PEAU?$_List_node@U?$pair@$$CBHH@std@@PEAX@std@@_N@1@AEBH@Z 0000000180031ad0 f i priorityqueue_api.obj
 0001:00030ca0       ??$_Try_emplace@AEBH$$V@?$_Hash@V?$_Umap_traits@HV?$vector@NV?$allocator@N@std@@@std@@V?$_Uhash_compare@HU?$hash@H@std@@U?$equal_to@H@2@@2@V?$allocator@U?$pair@$$CBHV?$vector@NV?$allocator@N@std@@@std@@@std@@@2@$0A@@std@@@std@@IEAA?AU?$pair@PEAU?$_List_node@U?$pair@$$CBHV?$vector@NV?$allocator@N@std@@@std@@@std@@PEAX@std@@_N@1@AEBH@Z 0000000180031ca0 f i priorityqueue_api.obj
 0001:00030e70       ??$_Tuple_get@$0A@AEBH@std@@YA$$QEA_P$$QEAV?$tuple@AEBH@0@@Z 0000000180031e70 f i priorityqueue_api.obj
 0001:00030e80       ??$_Unfancy@N@std@@YAPEANPEAN@Z 0000000180031e80 f i priorityqueue_api.obj
 0001:00030e90       ??$_Unfancy@U?$pair@HV?$vector@NV?$allocator@N@std@@@std@@@std@@@std@@YAPEAU?$pair@HV?$vector@NV?$allocator@N@std@@@std@@@0@PEAU10@@Z 0000000180031e90 f i priorityqueue_api.obj
 0001:00030ea0       ??$_Unfancy@V?$vector@NV?$allocator@N@std@@@std@@@std@@YAPEAV?$vector@NV?$allocator@N@std@@@0@PEAV10@@Z 0000000180031ea0 f i priorityqueue_api.obj
 0001:00030eb0       ??$_Uninitialized_copy@PEANPEANV?$allocator@N@std@@@std@@YAPEANPEAN00AEAV?$allocator@N@0@@Z 0000000180031eb0 f i priorityqueue_api.obj
 0001:00030fe0       ??$_Uninitialized_copy@PEBNPEBNV?$allocator@N@std@@@std@@YAPEANPEBN0PEANAEAV?$allocator@N@0@@Z 0000000180031fe0 f i priorityqueue_api.obj
 0001:00031110       ??$_Uninitialized_fill_n@V?$allocator@N@std@@@std@@YAPEANPEAN_KAEBNAEAV?$allocator@N@0@@Z 0000000180032110 f i priorityqueue_api.obj
 0001:000311c0       ??$_Uninitialized_move@PEAU?$pair@HV?$vector@NV?$allocator@N@std@@@std@@@std@@V?$allocator@U?$pair@HV?$vector@NV?$allocator@N@std@@@std@@@std@@@2@@std@@YAPEAU?$pair@HV?$vector@NV?$allocator@N@std@@@std@@@0@QEAU10@0PEAU10@AEAV?$allocator@U?$pair@HV?$vector@NV?$allocator@N@std@@@std@@@std@@@0@@Z 00000001800321c0 f i priorityqueue_api.obj
 0001:00031270       ??$_Uninitialized_move@PEAV?$vector@NV?$allocator@N@std@@@std@@V?$allocator@V?$vector@NV?$allocator@N@std@@@std@@@2@@std@@YAPEAV?$vector@NV?$allocator@N@std@@@0@QEAV10@0PEAV10@AEAV?$allocator@V?$vector@NV?$allocator@N@std@@@std@@@0@@Z 0000000180032270 f i priorityqueue_api.obj
 0001:00031320       ??$addressof@$$CBV?$_List_val@U?$_List_simple_types@U?$pair@$$CBHH@std@@@std@@@std@@@std@@YAPEBV?$_List_val@U?$_List_simple_types@U?$pair@$$CBHH@std@@@std@@@0@AEBV10@@Z 0000000180032320 f i priorityqueue_api.obj
 0001:00031330       ??$addressof@$$CBV?$_List_val@U?$_List_simple_types@U?$pair@$$CBHV?$vector@NV?$allocator@N@std@@@std@@@std@@@std@@@std@@@std@@YAPEBV?$_List_val@U?$_List_simple_types@U?$pair@$$CBHV?$vector@NV?$allocator@N@std@@@std@@@std@@@std@@@0@AEBV10@@Z 0000000180032330 f i priorityqueue_api.obj
 0001:00031340       ??$addressof@PEAU?$_List_node@U?$pair@$$CBHH@std@@PEAX@std@@@std@@YAPEAPEAU?$_List_node@U?$pair@$$CBHH@std@@PEAX@0@AEAPEAU10@@Z 0000000180032340 f i priorityqueue_api.obj
 0001:00031350       ??$addressof@PEAU?$_List_node@U?$pair@$$CBHV?$vector@NV?$allocator@N@std@@@std@@@std@@PEAX@std@@@std@@YAPEAPEAU?$_List_node@U?$pair@$$CBHV?$vector@NV?$allocator@N@std@@@std@@@std@@PEAX@0@AEAPEAU10@@Z 0000000180032350 f i priorityqueue_api.obj
 0001:00031360       ??$addressof@U?$pair@$$CBHH@std@@@std@@YAPEAU?$pair@$$CBHH@0@AEAU10@@Z 0000000180032360 f i priorityqueue_api.obj
 0001:00031370       ??$addressof@U?$pair@$$CBHV?$vector@NV?$allocator@N@std@@@std@@@std@@@std@@YAPEAU?$pair@$$CBHV?$vector@NV?$allocator@N@std@@@std@@@0@AEAU10@@Z 0000000180032370 f i priorityqueue_api.obj
 0001:00031380       ??$addressof@U?$pair@HV?$vector@NV?$allocator@N@std@@@std@@@std@@@std@@YAPEAU?$pair@HV?$vector@NV?$allocator@N@std@@@std@@@0@AEAU10@@Z 0000000180032380 f i priorityqueue_api.obj
 0001:00031390       ??$addressof@V?$_Hash@V?$_Umap_traits@HHV?$_Uhash_compare@HU?$hash@H@std@@U?$equal_to@H@2@@std@@V?$allocator@U?$pair@$$CBHH@std@@@2@$0A@@std@@@std@@@std@@YAPEAV?$_Hash@V?$_Umap_traits@HHV?$_Uhash_compare@HU?$hash@H@std@@U?$equal_to@H@2@@std@@V?$allocator@U?$pair@$$CBHH@std@@@2@$0A@@std@@@0@AEAV10@@Z 0000000180032390 f i priorityqueue_api.obj
 0001:000313a0       ??$addressof@V?$_Hash@V?$_Umap_traits@HV?$vector@NV?$allocator@N@std@@@std@@V?$_Uhash_compare@HU?$hash@H@std@@U?$equal_to@H@2@@2@V?$allocator@U?$pair@$$CBHV?$vector@NV?$allocator@N@std@@@std@@@std@@@2@$0A@@std@@@std@@@std@@YAPEAV?$_Hash@V?$_Umap_traits@HV?$vector@NV?$allocator@N@std@@@std@@V?$_Uhash_compare@HU?$hash@H@std@@U?$equal_to@H@2@@2@V?$allocator@U?$pair@$$CBHV?$vector@NV?$allocator@N@std@@@std@@@std@@@2@$0A@@std@@@0@AEAV10@@Z 00000001800323a0 f i priorityqueue_api.obj
 0001:000313b0       ??$addressof@V?$_List_unchecked_iterator@V?$_List_val@U?$_List_simple_types@U?$pair@$$CBHH@std@@@std@@@std@@@std@@@std@@YAPEAV?$_List_unchecked_iterator@V?$_List_val@U?$_List_simple_types@U?$pair@$$CBHH@std@@@std@@@std@@@0@AEAV10@@Z 00000001800323b0 f i priorityqueue_api.obj
 0001:000313c0       ??$addressof@V?$_List_unchecked_iterator@V?$_List_val@U?$_List_simple_types@U?$pair@$$CBHV?$vector@NV?$allocator@N@std@@@std@@@std@@@std@@@std@@@std@@@std@@YAPEAV?$_List_unchecked_iterator@V?$_List_val@U?$_List_simple_types@U?$pair@$$CBHV?$vector@NV?$allocator@N@std@@@std@@@std@@@std@@@std@@@0@AEAV10@@Z 00000001800323c0 f i priorityqueue_api.obj
 0001:000313d0       ??$addressof@V?$_List_val@U?$_List_simple_types@U?$pair@$$CBHH@std@@@std@@@std@@@std@@YAPEAV?$_List_val@U?$_List_simple_types@U?$pair@$$CBHH@std@@@std@@@0@AEAV10@@Z 00000001800323d0 f i priorityqueue_api.obj
 0001:000313e0       ??$addressof@V?$_List_val@U?$_List_simple_types@U?$pair@$$CBHV?$vector@NV?$allocator@N@std@@@std@@@std@@@std@@@std@@@std@@YAPEAV?$_List_val@U?$_List_simple_types@U?$pair@$$CBHV?$vector@NV?$allocator@N@std@@@std@@@std@@@std@@@0@AEAV10@@Z 00000001800323e0 f i priorityqueue_api.obj
 0001:000313f0       ??$addressof@V?$_Vector_val@U?$_Simple_types@U?$pair@HV?$vector@NV?$allocator@N@std@@@std@@@std@@@std@@@std@@@std@@YAPEAV?$_Vector_val@U?$_Simple_types@U?$pair@HV?$vector@NV?$allocator@N@std@@@std@@@std@@@std@@@0@AEAV10@@Z 00000001800323f0 f i priorityqueue_api.obj
 0001:00031400       ??$addressof@V?$_Vector_val@U?$_Simple_types@V?$vector@NV?$allocator@N@std@@@std@@@std@@@std@@@std@@YAPEAV?$_Vector_val@U?$_Simple_types@V?$vector@NV?$allocator@N@std@@@std@@@std@@@0@AEAV10@@Z 0000000180032400 f i priorityqueue_api.obj
 0001:00031410       ??$addressof@V?$vector@NV?$allocator@N@std@@@std@@@std@@YAPEAV?$vector@NV?$allocator@N@std@@@0@AEAV10@@Z 0000000180032410 f i priorityqueue_api.obj
 0001:00031420       ??$addressof@V?$vector@U?$pair@HV?$vector@NV?$allocator@N@std@@@std@@@std@@V?$allocator@U?$pair@HV?$vector@NV?$allocator@N@std@@@std@@@std@@@2@@std@@@std@@YAPEAV?$vector@U?$pair@HV?$vector@NV?$allocator@N@std@@@std@@@std@@V?$allocator@U?$pair@HV?$vector@NV?$allocator@N@std@@@std@@@std@@@2@@0@AEAV10@@Z 0000000180032420 f i priorityqueue_api.obj
 0001:00031430       ??$construct@NAEAN@?$_Default_allocator_traits@V?$allocator@N@std@@@std@@SAXAEAV?$allocator@N@1@QEANAEAN@Z 0000000180032430 f i priorityqueue_api.obj
 0001:00031480       ??$construct@NAEBN@?$_Default_allocator_traits@V?$allocator@N@std@@@std@@SAXAEAV?$allocator@N@1@QEANAEBN@Z 0000000180032480 f i priorityqueue_api.obj
 0001:000314d0       ??$construct@U?$pair@$$CBHH@std@@AEBUpiecewise_construct_t@2@V?$tuple@AEBH@2@V?$tuple@$$V@2@@?$_Default_allocator_traits@V?$allocator@U?$_List_node@U?$pair@$$CBHH@std@@PEAX@std@@@std@@@std@@SAXAEAV?$allocator@U?$_List_node@U?$pair@$$CBHH@std@@PEAX@std@@@1@QEAU?$pair@$$CBHH@1@AEBUpiecewise_construct_t@1@$$QEAV?$tuple@AEBH@1@$$QEAV?$tuple@$$V@1@@Z 00000001800324d0 f i priorityqueue_api.obj
 0001:00031580       ??$construct@U?$pair@$$CBHV?$vector@NV?$allocator@N@std@@@std@@@std@@AEBUpiecewise_construct_t@2@V?$tuple@AEBH@2@V?$tuple@$$V@2@@?$_Default_allocator_traits@V?$allocator@U?$_List_node@U?$pair@$$CBHV?$vector@NV?$allocator@N@std@@@std@@@std@@PEAX@std@@@std@@@std@@SAXAEAV?$allocator@U?$_List_node@U?$pair@$$CBHV?$vector@NV?$allocator@N@std@@@std@@@std@@PEAX@std@@@1@QEAU?$pair@$$CBHV?$vector@NV?$allocator@N@std@@@std@@@1@AEBUpiecewise_construct_t@1@$$QEAV?$tuple@AEBH@1@$$QEAV?$tuple@$$V@1@@Z 0000000180032580 f i priorityqueue_api.obj
 0001:00031630       ??$construct@U?$pair@HV?$vector@NV?$allocator@N@std@@@std@@@std@@AEAHV?$vector@NV?$allocator@N@std@@@2@@?$_Default_allocator_traits@V?$allocator@U?$pair@HV?$vector@NV?$allocator@N@std@@@std@@@std@@@std@@@std@@SAXAEAV?$allocator@U?$pair@HV?$vector@NV?$allocator@N@std@@@std@@@std@@@1@QEAU?$pair@HV?$vector@NV?$allocator@N@std@@@std@@@1@AEAH$$QEAV?$vector@NV?$allocator@N@std@@@1@@Z 0000000180032630 f i priorityqueue_api.obj
 0001:00031690       ??$construct@U?$pair@HV?$vector@NV?$allocator@N@std@@@std@@@std@@U12@@?$_Default_allocator_traits@V?$allocator@U?$pair@HV?$vector@NV?$allocator@N@std@@@std@@@std@@@std@@@std@@SAXAEAV?$allocator@U?$pair@HV?$vector@NV?$allocator@N@std@@@std@@@std@@@1@QEAU?$pair@HV?$vector@NV?$allocator@N@std@@@std@@@1@$$QEAU31@@Z 0000000180032690 f i priorityqueue_api.obj
 0001:000316e0       ??$construct@V?$vector@NV?$allocator@N@std@@@std@@AEBHN@?$_Default_allocator_traits@V?$allocator@V?$vector@NV?$allocator@N@std@@@std@@@std@@@std@@SAXAEAV?$allocator@V?$vector@NV?$allocator@N@std@@@std@@@1@QEAV?$vector@NV?$allocator@N@std@@@1@AEBH$$QEAN@Z 00000001800326e0 f i priorityqueue_api.obj
 0001:00031760       ??$construct@V?$vector@NV?$allocator@N@std@@@std@@AEBV12@@?$_Default_allocator_traits@V?$allocator@V?$vector@NV?$allocator@N@std@@@std@@@std@@@std@@SAXAEAV?$allocator@V?$vector@NV?$allocator@N@std@@@std@@@1@QEAV?$vector@NV?$allocator@N@std@@@1@AEBV31@@Z 0000000180032760 f i priorityqueue_api.obj
 0001:000317b0       ??$construct@V?$vector@NV?$allocator@N@std@@@std@@V12@@?$_Default_allocator_traits@V?$allocator@V?$vector@NV?$allocator@N@std@@@std@@@std@@@std@@SAXAEAV?$allocator@V?$vector@NV?$allocator@N@std@@@std@@@1@QEAV?$vector@NV?$allocator@N@std@@@1@$$QEAV31@@Z 00000001800327b0 f i priorityqueue_api.obj
 0001:00031800       ??$destroy@U?$pair@$$CBHH@std@@@?$_Default_allocator_traits@V?$allocator@U?$_List_node@U?$pair@$$CBHH@std@@PEAX@std@@@std@@@std@@SAXAEAV?$allocator@U?$_List_node@U?$pair@$$CBHH@std@@PEAX@std@@@1@QEAU?$pair@$$CBHH@1@@Z 0000000180032800 f i priorityqueue_api.obj
 0001:00031810       ??$destroy@U?$pair@$$CBHV?$vector@NV?$allocator@N@std@@@std@@@std@@@?$_Default_allocator_traits@V?$allocator@U?$_List_node@U?$pair@$$CBHV?$vector@NV?$allocator@N@std@@@std@@@std@@PEAX@std@@@std@@@std@@SAXAEAV?$allocator@U?$_List_node@U?$pair@$$CBHV?$vector@NV?$allocator@N@std@@@std@@@std@@PEAX@std@@@1@QEAU?$pair@$$CBHV?$vector@NV?$allocator@N@std@@@std@@@1@@Z 0000000180032810 f i priorityqueue_api.obj
 0001:00031830       ??$destroy@U?$pair@HV?$vector@NV?$allocator@N@std@@@std@@@std@@@?$_Default_allocator_traits@V?$allocator@U?$pair@HV?$vector@NV?$allocator@N@std@@@std@@@std@@@std@@@std@@SAXAEAV?$allocator@U?$pair@HV?$vector@NV?$allocator@N@std@@@std@@@std@@@1@QEAU?$pair@HV?$vector@NV?$allocator@N@std@@@std@@@1@@Z 0000000180032830 f i priorityqueue_api.obj
 0001:00031850       ??$destroy@V?$vector@NV?$allocator@N@std@@@std@@@?$_Default_allocator_traits@V?$allocator@V?$vector@NV?$allocator@N@std@@@std@@@std@@@std@@SAXAEAV?$allocator@V?$vector@NV?$allocator@N@std@@@std@@@1@QEAV?$vector@NV?$allocator@N@std@@@1@@Z 0000000180032850 f i priorityqueue_api.obj
 0001:00031870       ??$distance@PEBN@std@@YA_JPEBN0@Z 0000000180032870 f i priorityqueue_api.obj
 0001:00031890       ??$emplace@AEAHV?$vector@NV?$allocator@N@std@@@std@@@?$priority_queue@U?$pair@HV?$vector@NV?$allocator@N@std@@@std@@@std@@V?$vector@U?$pair@HV?$vector@NV?$allocator@N@std@@@std@@@std@@V?$allocator@U?$pair@HV?$vector@NV?$allocator@N@std@@@std@@@std@@@2@@2@Ucomparator@PriorityQueueImpl@nav@@@std@@QEAAXAEAH$$QEAV?$vector@NV?$allocator@N@std@@@1@@Z 0000000180032890 f i priorityqueue_api.obj
 0001:00031930       ??$emplace_back@AEAHV?$vector@NV?$allocator@N@std@@@std@@@?$vector@U?$pair@HV?$vector@NV?$allocator@N@std@@@std@@@std@@V?$allocator@U?$pair@HV?$vector@NV?$allocator@N@std@@@std@@@std@@@2@@std@@QEAA?A_TAEAH$$QEAV?$vector@NV?$allocator@N@std@@@1@@Z 0000000180032930 f i priorityqueue_api.obj
 0001:00031980       ??$emplace_back@AEBHN@?$vector@V?$vector@NV?$allocator@N@std@@@std@@V?$allocator@V?$vector@NV?$allocator@N@std@@@std@@@2@@std@@QEAA?A_TAEBH$$QEAN@Z 0000000180032980 f i priorityqueue_api.obj
 0001:000319d0       ??$exchange@PEAN$$T@std@@YAPEANAEAPEAN$$QEA$$T@Z 00000001800329d0 f i priorityqueue_api.obj
 0001:00031a10       ??$exchange@PEAU?$_List_node@U?$pair@$$CBHH@std@@PEAX@std@@$$T@std@@YAPEAU?$_List_node@U?$pair@$$CBHH@std@@PEAX@0@AEAPEAU10@$$QEA$$T@Z 0000000180032a10 f i priorityqueue_api.obj
 0001:00031a50       ??$exchange@PEAU?$_List_node@U?$pair@$$CBHV?$vector@NV?$allocator@N@std@@@std@@@std@@PEAX@std@@$$T@std@@YAPEAU?$_List_node@U?$pair@$$CBHV?$vector@NV?$allocator@N@std@@@std@@@std@@PEAX@0@AEAPEAU10@$$QEA$$T@Z 0000000180032a50 f i priorityqueue_api.obj
 0001:00031a90       ??$exchange@PEAV?$vector@NV?$allocator@N@std@@@std@@$$T@std@@YAPEAV?$vector@NV?$allocator@N@std@@@0@AEAPEAV10@$$QEA$$T@Z 0000000180032a90 f i priorityqueue_api.obj
 0001:00031ad0       ??$fill@PEAV?$_List_unchecked_iterator@V?$_List_val@U?$_List_simple_types@U?$pair@$$CBHH@std@@@std@@@std@@@std@@V12@@std@@YAXQEAV?$_List_unchecked_iterator@V?$_List_val@U?$_List_simple_types@U?$pair@$$CBHH@std@@@std@@@std@@@0@0AEBV10@@Z 0000000180032ad0 f i priorityqueue_api.obj
 0001:00031b50       ??$fill@PEAV?$_List_unchecked_iterator@V?$_List_val@U?$_List_simple_types@U?$pair@$$CBHV?$vector@NV?$allocator@N@std@@@std@@@std@@@std@@@std@@@std@@V12@@std@@YAXQEAV?$_List_unchecked_iterator@V?$_List_val@U?$_List_simple_types@U?$pair@$$CBHV?$vector@NV?$allocator@N@std@@@std@@@std@@@std@@@std@@@0@0AEBV10@@Z 0000000180032b50 f i priorityqueue_api.obj
 0001:00031bd0       ??$find@X@?$_Hash@V?$_Umap_traits@HHV?$_Uhash_compare@HU?$hash@H@std@@U?$equal_to@H@2@@std@@V?$allocator@U?$pair@$$CBHH@std@@@2@$0A@@std@@@std@@QEAA?AV?$_List_iterator@V?$_List_val@U?$_List_simple_types@U?$pair@$$CBHH@std@@@std@@@std@@@1@AEBH@Z 0000000180032bd0 f i priorityqueue_api.obj
 0001:00031c30       ??$find@X@?$_Hash@V?$_Umap_traits@HV?$vector@NV?$allocator@N@std@@@std@@V?$_Uhash_compare@HU?$hash@H@std@@U?$equal_to@H@2@@2@V?$allocator@U?$pair@$$CBHV?$vector@NV?$allocator@N@std@@@std@@@std@@@2@$0A@@std@@@std@@QEAA?AV?$_List_iterator@V?$_List_val@U?$_List_simple_types@U?$pair@$$CBHV?$vector@NV?$allocator@N@std@@@std@@@std@@@std@@@std@@@1@AEBH@Z 0000000180032c30 f i priorityqueue_api.obj
 0001:00031c90       ??$forward@AEAH@std@@YAAEAHAEAH@Z 0000000180032c90 f i priorityqueue_api.obj
 0001:00031ca0       ??$forward@AEAN@std@@YAAEANAEAN@Z 0000000180032ca0 f i priorityqueue_api.obj
 0001:00031cb0       ??$forward@AEAPEAU?$_List_node@U?$pair@$$CBHH@std@@PEAX@std@@@std@@YAAEAPEAU?$_List_node@U?$pair@$$CBHH@std@@PEAX@0@AEAPEAU10@@Z 0000000180032cb0 f i priorityqueue_api.obj
 0001:00031cc0       ??$forward@AEAPEAU?$_List_node@U?$pair@$$CBHV?$vector@NV?$allocator@N@std@@@std@@@std@@PEAX@std@@@std@@YAAEAPEAU?$_List_node@U?$pair@$$CBHV?$vector@NV?$allocator@N@std@@@std@@@std@@PEAX@0@AEAPEAU10@@Z 0000000180032cc0 f i priorityqueue_api.obj
 0001:00031cd0       ??$forward@AEBH@std@@YAAEBHAEBH@Z 0000000180032cd0 f i priorityqueue_api.obj
 0001:00031ce0       ??$forward@AEBN@std@@YAAEBNAEBN@Z 0000000180032ce0 f i priorityqueue_api.obj
 0001:00031cf0       ??$forward@AEBQEAN@std@@YAAEBQEANAEBQEAN@Z 0000000180032cf0 f i priorityqueue_api.obj
 0001:00031d00       ??$forward@AEBQEAU?$_List_node@U?$pair@$$CBHH@std@@PEAX@std@@@std@@YAAEBQEAU?$_List_node@U?$pair@$$CBHH@std@@PEAX@0@AEBQEAU10@@Z 0000000180032d00 f i priorityqueue_api.obj
 0001:00031d10       ??$forward@AEBQEAU?$_List_node@U?$pair@$$CBHV?$vector@NV?$allocator@N@std@@@std@@@std@@PEAX@std@@@std@@YAAEBQEAU?$_List_node@U?$pair@$$CBHV?$vector@NV?$allocator@N@std@@@std@@@std@@PEAX@0@AEBQEAU10@@Z 0000000180032d10 f i priorityqueue_api.obj
 0001:00031d20       ??$forward@AEBUpiecewise_construct_t@std@@@std@@YAAEBUpiecewise_construct_t@0@AEBU10@@Z 0000000180032d20 f i priorityqueue_api.obj
 0001:00031d30       ??$forward@AEBV?$_List_unchecked_iterator@V?$_List_val@U?$_List_simple_types@U?$pair@$$CBHH@std@@@std@@@std@@@std@@@std@@YAAEBV?$_List_unchecked_iterator@V?$_List_val@U?$_List_simple_types@U?$pair@$$CBHH@std@@@std@@@std@@@0@AEBV10@@Z 0000000180032d30 f i priorityqueue_api.obj
 0001:00031d40       ??$forward@AEBV?$_List_unchecked_iterator@V?$_List_val@U?$_List_simple_types@U?$pair@$$CBHV?$vector@NV?$allocator@N@std@@@std@@@std@@@std@@@std@@@std@@@std@@YAAEBV?$_List_unchecked_iterator@V?$_List_val@U?$_List_simple_types@U?$pair@$$CBHV?$vector@NV?$allocator@N@std@@@std@@@std@@@std@@@std@@@0@AEBV10@@Z 0000000180032d40 f i priorityqueue_api.obj
 0001:00031d50       ??$forward@AEBV?$allocator@N@std@@@std@@YAAEBV?$allocator@N@0@AEBV10@@Z 0000000180032d50 f i priorityqueue_api.obj
 0001:00031d60       ??$forward@AEBV?$allocator@U?$pair@$$CBHH@std@@@std@@@std@@YAAEBV?$allocator@U?$pair@$$CBHH@std@@@0@AEBV10@@Z 0000000180032d60 f i priorityqueue_api.obj
 0001:00031d70       ??$forward@AEBV?$allocator@U?$pair@$$CBHV?$vector@NV?$allocator@N@std@@@std@@@std@@@std@@@std@@YAAEBV?$allocator@U?$pair@$$CBHV?$vector@NV?$allocator@N@std@@@std@@@std@@@0@AEBV10@@Z 0000000180032d70 f i priorityqueue_api.obj
 0001:00031d80       ??$forward@AEBV?$vector@NV?$allocator@N@std@@@std@@@std@@YAAEBV?$vector@NV?$allocator@N@std@@@0@AEBV10@@Z 0000000180032d80 f i priorityqueue_api.obj
 0001:00031d90       ??$forward@H@std@@YA$$QEAHAEAH@Z 0000000180032d90 f i priorityqueue_api.obj
 0001:00031da0       ??$forward@M@std@@YA$$QEAMAEAM@Z 0000000180032da0 f i priorityqueue_api.obj
 0001:00031db0       ??$forward@N@std@@YA$$QEANAEAN@Z 0000000180032db0 f i priorityqueue_api.obj
 0001:00031dc0       ??$forward@PEAN@std@@YA$$QEAPEANAEAPEAN@Z 0000000180032dc0 f i priorityqueue_api.obj
 0001:00031dd0       ??$forward@PEAU?$_List_node@U?$pair@$$CBHH@std@@PEAX@std@@@std@@YA$$QEAPEAU?$_List_node@U?$pair@$$CBHH@std@@PEAX@0@AEAPEAU10@@Z 0000000180032dd0 f i priorityqueue_api.obj
 0001:00031de0       ??$forward@PEAU?$_List_node@U?$pair@$$CBHV?$vector@NV?$allocator@N@std@@@std@@@std@@PEAX@std@@@std@@YA$$QEAPEAU?$_List_node@U?$pair@$$CBHV?$vector@NV?$allocator@N@std@@@std@@@std@@PEAX@0@AEAPEAU10@@Z 0000000180032de0 f i priorityqueue_api.obj
 0001:00031df0       ??$forward@PEAV?$vector@NV?$allocator@N@std@@@std@@@std@@YA$$QEAPEAV?$vector@NV?$allocator@N@std@@@0@AEAPEAV10@@Z 0000000180032df0 f i priorityqueue_api.obj
 0001:00031e00       ??$forward@PEBN@std@@YA$$QEAPEBNAEAPEBN@Z 0000000180032e00 f i priorityqueue_api.obj
 0001:00031e10       ??$forward@U?$pair@HV?$vector@NV?$allocator@N@std@@@std@@@std@@@std@@YA$$QEAU?$pair@HV?$vector@NV?$allocator@N@std@@@std@@@0@AEAU10@@Z 0000000180032e10 f i priorityqueue_api.obj
 0001:00031e20       ??$forward@U_Zero_then_variadic_args_t@std@@@std@@YA$$QEAU_Zero_then_variadic_args_t@0@AEAU10@@Z 0000000180032e20 f i priorityqueue_api.obj
 0001:00031e30       ??$forward@V?$allocator@N@std@@@std@@YA$$QEAV?$allocator@N@0@AEAV10@@Z 0000000180032e30 f i priorityqueue_api.obj
 0001:00031e40       ??$forward@V?$allocator@V?$vector@NV?$allocator@N@std@@@std@@@std@@@std@@YA$$QEAV?$allocator@V?$vector@NV?$allocator@N@std@@@std@@@0@AEAV10@@Z 0000000180032e40 f i priorityqueue_api.obj
 0001:00031e50       ??$forward@V?$tuple@$$V@std@@@std@@YA$$QEAV?$tuple@$$V@0@AEAV10@@Z 0000000180032e50 f i priorityqueue_api.obj
 0001:00031e60       ??$forward@V?$tuple@AEBH@std@@@std@@YA$$QEAV?$tuple@AEBH@0@AEAV10@@Z 0000000180032e60 f i priorityqueue_api.obj
 0001:00031e70       ??$forward@V?$vector@NV?$allocator@N@std@@@std@@@std@@YA$$QEAV?$vector@NV?$allocator@N@std@@@0@AEAV10@@Z 0000000180032e70 f i priorityqueue_api.obj
 0001:00031e80       ??$forward@_N@std@@YA$$QEA_NAEA_N@Z 0000000180032e80 f i priorityqueue_api.obj
 0001:00031e90       ??$forward_as_tuple@$$V@std@@YA?AV?$tuple@$$V@0@XZ 0000000180032e90 f i priorityqueue_api.obj
 0001:00031ea0       ??$forward_as_tuple@AEBH@std@@YA?AV?$tuple@AEBH@0@AEBH@Z 0000000180032ea0 f i priorityqueue_api.obj
 0001:00031ed0       ??$make_pair@HV?$vector@NV?$allocator@N@std@@@std@@@std@@YA?AU?$pair@HV?$vector@NV?$allocator@N@std@@@std@@@0@$$QEAH$$QEAV?$vector@NV?$allocator@N@std@@@0@@Z 0000000180032ed0 f i priorityqueue_api.obj
 0001:00031f20       ??$max@_K@std@@YAAEB_KAEB_K0@Z 0000000180032f20 f i priorityqueue_api.obj
 0001:00031f70       ??$min@_K@std@@YAAEB_KAEB_K0@Z 0000000180032f70 f i priorityqueue_api.obj
 0001:00031fc0       ??$move@AEAPEAN@std@@YA$$QEAPEANAEAPEAN@Z 0000000180032fc0 f i priorityqueue_api.obj
 0001:00031fd0       ??$move@AEAPEAU?$_List_node@U?$pair@$$CBHH@std@@PEAX@std@@@std@@YA$$QEAPEAU?$_List_node@U?$pair@$$CBHH@std@@PEAX@0@AEAPEAU10@@Z 0000000180032fd0 f i priorityqueue_api.obj
 0001:00031fe0       ??$move@AEAPEAU?$_List_node@U?$pair@$$CBHV?$vector@NV?$allocator@N@std@@@std@@@std@@PEAX@std@@@std@@YA$$QEAPEAU?$_List_node@U?$pair@$$CBHV?$vector@NV?$allocator@N@std@@@std@@@std@@PEAX@0@AEAPEAU10@@Z 0000000180032fe0 f i priorityqueue_api.obj
 0001:00031ff0       ??$move@AEAPEAV?$_List_unchecked_iterator@V?$_List_val@U?$_List_simple_types@U?$pair@$$CBHH@std@@@std@@@std@@@std@@@std@@YA$$QEAPEAV?$_List_unchecked_iterator@V?$_List_val@U?$_List_simple_types@U?$pair@$$CBHH@std@@@std@@@std@@@0@AEAPEAV10@@Z 0000000180032ff0 f i priorityqueue_api.obj
 0001:00032000       ??$move@AEAPEAV?$_List_unchecked_iterator@V?$_List_val@U?$_List_simple_types@U?$pair@$$CBHV?$vector@NV?$allocator@N@std@@@std@@@std@@@std@@@std@@@std@@@std@@YA$$QEAPEAV?$_List_unchecked_iterator@V?$_List_val@U?$_List_simple_types@U?$pair@$$CBHV?$vector@NV?$allocator@N@std@@@std@@@std@@@std@@@std@@@0@AEAPEAV10@@Z 0000000180033000 f i priorityqueue_api.obj
 0001:00032010       ??$move@AEAPEBN@std@@YA$$QEAPEBNAEAPEBN@Z 0000000180033010 f i priorityqueue_api.obj
 0001:00032020       ??$move@AEAU?$pair@HV?$vector@NV?$allocator@N@std@@@std@@@std@@@std@@YA$$QEAU?$pair@HV?$vector@NV?$allocator@N@std@@@std@@@0@AEAU10@@Z 0000000180033020 f i priorityqueue_api.obj
 0001:00032030       ??$move@AEAV?$allocator@N@std@@@std@@YA$$QEAV?$allocator@N@0@AEAV10@@Z 0000000180033030 f i priorityqueue_api.obj
 0001:00032040       ??$move@AEAV?$allocator@U?$_List_node@U?$pair@$$CBHH@std@@PEAX@std@@@std@@@std@@YA$$QEAV?$allocator@U?$_List_node@U?$pair@$$CBHH@std@@PEAX@std@@@0@AEAV10@@Z 0000000180033040 f i priorityqueue_api.obj
 0001:00032050       ??$move@AEAV?$allocator@U?$_List_node@U?$pair@$$CBHV?$vector@NV?$allocator@N@std@@@std@@@std@@PEAX@std@@@std@@@std@@YA$$QEAV?$allocator@U?$_List_node@U?$pair@$$CBHV?$vector@NV?$allocator@N@std@@@std@@@std@@PEAX@std@@@0@AEAV10@@Z 0000000180033050 f i priorityqueue_api.obj
 0001:00032060       ??$move@AEAV?$allocator@U?$pair@HV?$vector@NV?$allocator@N@std@@@std@@@std@@@std@@@std@@YA$$QEAV?$allocator@U?$pair@HV?$vector@NV?$allocator@N@std@@@std@@@std@@@0@AEAV10@@Z 0000000180033060 f i priorityqueue_api.obj
 0001:00032070       ??$move@AEAV?$allocator@V?$_List_unchecked_iterator@V?$_List_val@U?$_List_simple_types@U?$pair@$$CBHH@std@@@std@@@std@@@std@@@std@@@std@@YA$$QEAV?$allocator@V?$_List_unchecked_iterator@V?$_List_val@U?$_List_simple_types@U?$pair@$$CBHH@std@@@std@@@std@@@std@@@0@AEAV10@@Z 0000000180033070 f i priorityqueue_api.obj
 0001:00032080       ??$move@AEAV?$allocator@V?$_List_unchecked_iterator@V?$_List_val@U?$_List_simple_types@U?$pair@$$CBHV?$vector@NV?$allocator@N@std@@@std@@@std@@@std@@@std@@@std@@@std@@@std@@YA$$QEAV?$allocator@V?$_List_unchecked_iterator@V?$_List_val@U?$_List_simple_types@U?$pair@$$CBHV?$vector@NV?$allocator@N@std@@@std@@@std@@@std@@@std@@@std@@@0@AEAV10@@Z 0000000180033080 f i priorityqueue_api.obj
 0001:00032090       ??$move@AEAV?$allocator@V?$vector@NV?$allocator@N@std@@@std@@@std@@@std@@YA$$QEAV?$allocator@V?$vector@NV?$allocator@N@std@@@std@@@0@AEAV10@@Z 0000000180033090 f i priorityqueue_api.obj
 0001:000320a0       ??$move@AEAV?$tuple@AEBH@std@@@std@@YA$$QEAV?$tuple@AEBH@0@AEAV10@@Z 00000001800330a0 f i priorityqueue_api.obj
 0001:000320b0       ??$move@AEAV?$unordered_map@HHU?$hash@H@std@@U?$equal_to@H@2@V?$allocator@U?$pair@$$CBHH@std@@@2@@std@@@std@@YA$$QEAV?$unordered_map@HHU?$hash@H@std@@U?$equal_to@H@2@V?$allocator@U?$pair@$$CBHH@std@@@2@@0@AEAV10@@Z 00000001800330b0 f i priorityqueue_api.obj
 0001:000320c0       ??$move@AEAV?$unordered_map@HV?$vector@NV?$allocator@N@std@@@std@@U?$hash@H@2@U?$equal_to@H@2@V?$allocator@U?$pair@$$CBHV?$vector@NV?$allocator@N@std@@@std@@@std@@@2@@std@@@std@@YA$$QEAV?$unordered_map@HV?$vector@NV?$allocator@N@std@@@std@@U?$hash@H@2@U?$equal_to@H@2@V?$allocator@U?$pair@$$CBHV?$vector@NV?$allocator@N@std@@@std@@@std@@@2@@0@AEAV10@@Z 00000001800330c0 f i priorityqueue_api.obj
 0001:000320d0       ??$move@AEAV?$vector@NV?$allocator@N@std@@@std@@@std@@YA$$QEAV?$vector@NV?$allocator@N@std@@@0@AEAV10@@Z 00000001800330d0 f i priorityqueue_api.obj
 0001:000320e0       ??$move@AEA_K@std@@YA$$QEA_KAEA_K@Z 00000001800330e0 f i priorityqueue_api.obj
 0001:000320f0       ??$pop_heap@V?$_Vector_iterator@V?$_Vector_val@U?$_Simple_types@U?$pair@HV?$vector@NV?$allocator@N@std@@@std@@@std@@@std@@@std@@@std@@Ucomparator@PriorityQueueImpl@nav@@@std@@YAXV?$_Vector_iterator@V?$_Vector_val@U?$_Simple_types@U?$pair@HV?$vector@NV?$allocator@N@std@@@std@@@std@@@std@@@std@@@0@0Ucomparator@PriorityQueueImpl@nav@@@Z 00000001800330f0 f i priorityqueue_api.obj
 0001:00032160       ??$push_heap@V?$_Vector_iterator@V?$_Vector_val@U?$_Simple_types@U?$pair@HV?$vector@NV?$allocator@N@std@@@std@@@std@@@std@@@std@@@std@@Ucomparator@PriorityQueueImpl@nav@@@std@@YAXV?$_Vector_iterator@V?$_Vector_val@U?$_Simple_types@U?$pair@HV?$vector@NV?$allocator@N@std@@@std@@@std@@@std@@@std@@@0@0Ucomparator@PriorityQueueImpl@nav@@@Z 0000000180033160 f i priorityqueue_api.obj
 0001:00032260       ??$swap@PEAU?$_List_node@U?$pair@$$CBHH@std@@PEAX@std@@$0A@@std@@YAXAEAPEAU?$_List_node@U?$pair@$$CBHH@std@@PEAX@0@0@Z 0000000180033260 f i priorityqueue_api.obj
 0001:000322b0       ??$swap@PEAU?$_List_node@U?$pair@$$CBHV?$vector@NV?$allocator@N@std@@@std@@@std@@PEAX@std@@$0A@@std@@YAXAEAPEAU?$_List_node@U?$pair@$$CBHV?$vector@NV?$allocator@N@std@@@std@@@std@@PEAX@0@0@Z 00000001800332b0 f i priorityqueue_api.obj
 0001:00032300       ??$swap@PEAV?$_List_unchecked_iterator@V?$_List_val@U?$_List_simple_types@U?$pair@$$CBHH@std@@@std@@@std@@@std@@$0A@@std@@YAXAEAPEAV?$_List_unchecked_iterator@V?$_List_val@U?$_List_simple_types@U?$pair@$$CBHH@std@@@std@@@std@@@0@0@Z 0000000180033300 f i priorityqueue_api.obj
 0001:00032350       ??$swap@PEAV?$_List_unchecked_iterator@V?$_List_val@U?$_List_simple_types@U?$pair@$$CBHV?$vector@NV?$allocator@N@std@@@std@@@std@@@std@@@std@@@std@@$0A@@std@@YAXAEAPEAV?$_List_unchecked_iterator@V?$_List_val@U?$_List_simple_types@U?$pair@$$CBHV?$vector@NV?$allocator@N@std@@@std@@@std@@@std@@@std@@@0@0@Z 0000000180033350 f i priorityqueue_api.obj
 0001:000323a0       ??$swap@_K$0A@@std@@YAXAEA_K0@Z 00000001800333a0 f i priorityqueue_api.obj
 0001:000323f0       ??$uninitialized_fill@PEAV?$_List_unchecked_iterator@V?$_List_val@U?$_List_simple_types@U?$pair@$$CBHH@std@@@std@@@std@@@std@@V12@@std@@YAXQEAV?$_List_unchecked_iterator@V?$_List_val@U?$_List_simple_types@U?$pair@$$CBHH@std@@@std@@@std@@@0@0AEBV10@@Z 00000001800333f0 f i priorityqueue_api.obj
 0001:00032480       ??$uninitialized_fill@PEAV?$_List_unchecked_iterator@V?$_List_val@U?$_List_simple_types@U?$pair@$$CBHV?$vector@NV?$allocator@N@std@@@std@@@std@@@std@@@std@@@std@@V12@@std@@YAXQEAV?$_List_unchecked_iterator@V?$_List_val@U?$_List_simple_types@U?$pair@$$CBHV?$vector@NV?$allocator@N@std@@@std@@@std@@@std@@@std@@@0@0AEBV10@@Z 0000000180033480 f i priorityqueue_api.obj
 0001:00032510       ??0?$_Alloc_construct_ptr@V?$allocator@U?$_List_node@U?$pair@$$CBHH@std@@PEAX@std@@@std@@@std@@QEAA@AEAV?$allocator@U?$_List_node@U?$pair@$$CBHH@std@@PEAX@std@@@1@@Z 0000000180033510 f i priorityqueue_api.obj
 0001:00032540       ??0?$_Alloc_construct_ptr@V?$allocator@U?$_List_node@U?$pair@$$CBHV?$vector@NV?$allocator@N@std@@@std@@@std@@PEAX@std@@@std@@@std@@QEAA@AEAV?$allocator@U?$_List_node@U?$pair@$$CBHV?$vector@NV?$allocator@N@std@@@std@@@std@@PEAX@std@@@1@@Z 0000000180033540 f i priorityqueue_api.obj
 0001:00032570       ??0?$_Hash@V?$_Umap_traits@HHV?$_Uhash_compare@HU?$hash@H@std@@U?$equal_to@H@2@@std@@V?$allocator@U?$pair@$$CBHH@std@@@2@$0A@@std@@@std@@IEAA@AEBV?$_Uhash_compare@HU?$hash@H@std@@U?$equal_to@H@2@@1@AEBV?$allocator@U?$pair@$$CBHH@std@@@1@@Z 0000000180033570 f i priorityqueue_api.obj
 0001:00032630       ??0?$_Hash@V?$_Umap_traits@HV?$vector@NV?$allocator@N@std@@@std@@V?$_Uhash_compare@HU?$hash@H@std@@U?$equal_to@H@2@@2@V?$allocator@U?$pair@$$CBHV?$vector@NV?$allocator@N@std@@@std@@@std@@@2@$0A@@std@@@std@@IEAA@AEBV?$_Uhash_compare@HU?$hash@H@std@@U?$equal_to@H@2@@1@AEBV?$allocator@U?$pair@$$CBHV?$vector@NV?$allocator@N@std@@@std@@@std@@@1@@Z 0000000180033630 f i priorityqueue_api.obj
 0001:000326f0       ??0?$_List_const_iterator@V?$_List_val@U?$_List_simple_types@U?$pair@$$CBHH@std@@@std@@@std@@@std@@QEAA@PEAU?$_List_node@U?$pair@$$CBHH@std@@PEAX@1@PEBV?$_List_val@U?$_List_simple_types@U?$pair@$$CBHH@std@@@std@@@1@@Z 00000001800336f0 f i priorityqueue_api.obj
 0001:00032730       ??0?$_List_const_iterator@V?$_List_val@U?$_List_simple_types@U?$pair@$$CBHV?$vector@NV?$allocator@N@std@@@std@@@std@@@std@@@std@@@std@@QEAA@PEAU?$_List_node@U?$pair@$$CBHV?$vector@NV?$allocator@N@std@@@std@@@std@@PEAX@1@PEBV?$_List_val@U?$_List_simple_types@U?$pair@$$CBHV?$vector@NV?$allocator@N@std@@@std@@@std@@@std@@@1@@Z 0000000180033730 f i priorityqueue_api.obj
 0001:00032770       ??0?$_List_iterator@V?$_List_val@U?$_List_simple_types@U?$pair@$$CBHH@std@@@std@@@std@@@std@@QEAA@PEAU?$_List_node@U?$pair@$$CBHH@std@@PEAX@1@PEBV?$_List_val@U?$_List_simple_types@U?$pair@$$CBHH@std@@@std@@@1@@Z 0000000180033770 f i priorityqueue_api.obj
 0001:000327b0       ??0?$_List_iterator@V?$_List_val@U?$_List_simple_types@U?$pair@$$CBHV?$vector@NV?$allocator@N@std@@@std@@@std@@@std@@@std@@@std@@QEAA@PEAU?$_List_node@U?$pair@$$CBHV?$vector@NV?$allocator@N@std@@@std@@@std@@PEAX@1@PEBV?$_List_val@U?$_List_simple_types@U?$pair@$$CBHV?$vector@NV?$allocator@N@std@@@std@@@std@@@std@@@1@@Z 00000001800337b0 f i priorityqueue_api.obj
 0001:000327f0       ??0?$_List_unchecked_const_iterator@V?$_List_val@U?$_List_simple_types@U?$pair@$$CBHH@std@@@std@@@std@@U_Iterator_base0@2@@std@@QEAA@PEAU?$_List_node@U?$pair@$$CBHH@std@@PEAX@1@PEBV?$_List_val@U?$_List_simple_types@U?$pair@$$CBHH@std@@@std@@@1@@Z 00000001800337f0 f i priorityqueue_api.obj
 0001:00032830       ??0?$_List_unchecked_const_iterator@V?$_List_val@U?$_List_simple_types@U?$pair@$$CBHV?$vector@NV?$allocator@N@std@@@std@@@std@@@std@@@std@@U_Iterator_base0@2@@std@@QEAA@PEAU?$_List_node@U?$pair@$$CBHV?$vector@NV?$allocator@N@std@@@std@@@std@@PEAX@1@PEBV?$_List_val@U?$_List_simple_types@U?$pair@$$CBHV?$vector@NV?$allocator@N@std@@@std@@@std@@@std@@@1@@Z 0000000180033830 f i priorityqueue_api.obj
 0001:00032870       ??0?$_List_unchecked_iterator@V?$_List_val@U?$_List_simple_types@U?$pair@$$CBHH@std@@@std@@@std@@@std@@QEAA@PEAU?$_List_node@U?$pair@$$CBHH@std@@PEAX@1@PEBV?$_List_val@U?$_List_simple_types@U?$pair@$$CBHH@std@@@std@@@1@@Z 0000000180033870 f i priorityqueue_api.obj
 0001:000328b0       ??0?$_List_unchecked_iterator@V?$_List_val@U?$_List_simple_types@U?$pair@$$CBHV?$vector@NV?$allocator@N@std@@@std@@@std@@@std@@@std@@@std@@QEAA@PEAU?$_List_node@U?$pair@$$CBHV?$vector@NV?$allocator@N@std@@@std@@@std@@PEAX@1@PEBV?$_List_val@U?$_List_simple_types@U?$pair@$$CBHV?$vector@NV?$allocator@N@std@@@std@@@std@@@std@@@1@@Z 00000001800338b0 f i priorityqueue_api.obj
 0001:000328f0       ??0?$_List_val@U?$_List_simple_types@U?$pair@$$CBHH@std@@@std@@@std@@QEAA@XZ 00000001800338f0 f i priorityqueue_api.obj
 0001:00032920       ??0?$_List_val@U?$_List_simple_types@U?$pair@$$CBHV?$vector@NV?$allocator@N@std@@@std@@@std@@@std@@@std@@QEAA@XZ 0000000180033920 f i priorityqueue_api.obj
 0001:00032950       ??0?$_Uhash_compare@HU?$hash@H@std@@U?$equal_to@H@2@@std@@QEAA@XZ 0000000180033950 f i priorityqueue_api.obj
 0001:00032990       ??0?$_Umap_traits@HHV?$_Uhash_compare@HU?$hash@H@std@@U?$equal_to@H@2@@std@@V?$allocator@U?$pair@$$CBHH@std@@@2@$0A@@std@@QEAA@AEBV?$_Uhash_compare@HU?$hash@H@std@@U?$equal_to@H@2@@1@@Z 0000000180033990 f i priorityqueue_api.obj
 0001:000329b0       ??0?$_Umap_traits@HV?$vector@NV?$allocator@N@std@@@std@@V?$_Uhash_compare@HU?$hash@H@std@@U?$equal_to@H@2@@2@V?$allocator@U?$pair@$$CBHV?$vector@NV?$allocator@N@std@@@std@@@std@@@2@$0A@@std@@QEAA@AEBV?$_Uhash_compare@HU?$hash@H@std@@U?$equal_to@H@2@@1@@Z 00000001800339b0 f i priorityqueue_api.obj
 0001:000329d0       ??0?$_Uninitialized_backout@PEAV?$_List_unchecked_iterator@V?$_List_val@U?$_List_simple_types@U?$pair@$$CBHH@std@@@std@@@std@@@std@@@std@@QEAA@PEAV?$_List_unchecked_iterator@V?$_List_val@U?$_List_simple_types@U?$pair@$$CBHH@std@@@std@@@std@@@1@@Z 00000001800339d0 f i priorityqueue_api.obj
 0001:00032a00       ??0?$_Uninitialized_backout@PEAV?$_List_unchecked_iterator@V?$_List_val@U?$_List_simple_types@U?$pair@$$CBHV?$vector@NV?$allocator@N@std@@@std@@@std@@@std@@@std@@@std@@@std@@QEAA@PEAV?$_List_unchecked_iterator@V?$_List_val@U?$_List_simple_types@U?$pair@$$CBHV?$vector@NV?$allocator@N@std@@@std@@@std@@@std@@@std@@@1@@Z 0000000180033a00 f i priorityqueue_api.obj
 0001:00032a30       ??0?$_Uninitialized_backout_al@V?$allocator@N@std@@@std@@QEAA@PEANAEAV?$allocator@N@1@@Z 0000000180033a30 f i priorityqueue_api.obj
 0001:00032a70       ??0?$_Uninitialized_backout_al@V?$allocator@U?$pair@HV?$vector@NV?$allocator@N@std@@@std@@@std@@@std@@@std@@QEAA@PEAU?$pair@HV?$vector@NV?$allocator@N@std@@@std@@@1@AEAV?$allocator@U?$pair@HV?$vector@NV?$allocator@N@std@@@std@@@std@@@1@@Z 0000000180033a70 f i priorityqueue_api.obj
 0001:00032ab0       ??0?$_Uninitialized_backout_al@V?$allocator@V?$vector@NV?$allocator@N@std@@@std@@@std@@@std@@QEAA@PEAV?$vector@NV?$allocator@N@std@@@1@AEAV?$allocator@V?$vector@NV?$allocator@N@std@@@std@@@1@@Z 0000000180033ab0 f i priorityqueue_api.obj
 0001:00032af0       ??0?$_Vector_const_iterator@V?$_Vector_val@U?$_Simple_types@U?$pair@HV?$vector@NV?$allocator@N@std@@@std@@@std@@@std@@@std@@@std@@QEAA@PEAU?$pair@HV?$vector@NV?$allocator@N@std@@@std@@@1@PEBU_Container_base0@1@@Z 0000000180033af0 f i priorityqueue_api.obj
 0001:00032b30       ??0?$_Vector_const_iterator@V?$_Vector_val@U?$_Simple_types@V?$vector@NV?$allocator@N@std@@@std@@@std@@@std@@@std@@QEAA@PEAV?$vector@NV?$allocator@N@std@@@1@PEBU_Container_base0@1@@Z 0000000180033b30 f i priorityqueue_api.obj
 0001:00032b70       ??0?$_Vector_iterator@V?$_Vector_val@U?$_Simple_types@U?$pair@HV?$vector@NV?$allocator@N@std@@@std@@@std@@@std@@@std@@@std@@QEAA@PEAU?$pair@HV?$vector@NV?$allocator@N@std@@@std@@@1@PEBU_Container_base0@1@@Z 0000000180033b70 f i priorityqueue_api.obj
 0001:00032bb0       ??0?$_Vector_iterator@V?$_Vector_val@U?$_Simple_types@V?$vector@NV?$allocator@N@std@@@std@@@std@@@std@@@std@@QEAA@PEAV?$vector@NV?$allocator@N@std@@@1@PEBU_Container_base0@1@@Z 0000000180033bb0 f i priorityqueue_api.obj
 0001:00032bf0       ??0?$_Vector_val@U?$_Simple_types@N@std@@@std@@QEAA@PEAN00@Z 0000000180033bf0 f i priorityqueue_api.obj
 0001:00032c40       ??0?$_Vector_val@U?$_Simple_types@N@std@@@std@@QEAA@XZ 0000000180033c40 f i priorityqueue_api.obj
 0001:00032c80       ??0?$_Vector_val@U?$_Simple_types@U?$pair@HV?$vector@NV?$allocator@N@std@@@std@@@std@@@std@@@std@@QEAA@XZ 0000000180033c80 f i priorityqueue_api.obj
 0001:00032cc0       ??0?$_Vector_val@U?$_Simple_types@V?$_List_unchecked_iterator@V?$_List_val@U?$_List_simple_types@U?$pair@$$CBHH@std@@@std@@@std@@@std@@@std@@@std@@QEAA@XZ 0000000180033cc0 f i priorityqueue_api.obj
 0001:00032d00       ??0?$_Vector_val@U?$_Simple_types@V?$_List_unchecked_iterator@V?$_List_val@U?$_List_simple_types@U?$pair@$$CBHV?$vector@NV?$allocator@N@std@@@std@@@std@@@std@@@std@@@std@@@std@@@std@@QEAA@XZ 0000000180033d00 f i priorityqueue_api.obj
 0001:00032d40       ??0?$_Vector_val@U?$_Simple_types@V?$vector@NV?$allocator@N@std@@@std@@@std@@@std@@QEAA@PEAV?$vector@NV?$allocator@N@std@@@1@00@Z 0000000180033d40 f i priorityqueue_api.obj
 0001:00032d90       ??0?$_Vector_val@U?$_Simple_types@V?$vector@NV?$allocator@N@std@@@std@@@std@@@std@@QEAA@XZ 0000000180033d90 f i priorityqueue_api.obj
 0001:00032dd0       ??0?$allocator@N@std@@QEAA@XZ 0000000180033dd0 f i priorityqueue_api.obj
 0001:00032de0       ??0?$allocator@U?$pair@$$CBHH@std@@@std@@QEAA@XZ 0000000180033de0 f i priorityqueue_api.obj
 0001:00032df0       ??0?$allocator@U?$pair@$$CBHV?$vector@NV?$allocator@N@std@@@std@@@std@@@std@@QEAA@XZ 0000000180033df0 f i priorityqueue_api.obj
 0001:00032e00       ??0?$allocator@U?$pair@HV?$vector@NV?$allocator@N@std@@@std@@@std@@@std@@QEAA@XZ 0000000180033e00 f i priorityqueue_api.obj
 0001:00032e10       ??0?$allocator@V?$vector@NV?$allocator@N@std@@@std@@@std@@QEAA@XZ 0000000180033e10 f i priorityqueue_api.obj
 0001:00032e20       ??0?$list@U?$pair@$$CBHH@std@@V?$allocator@U?$pair@$$CBHH@std@@@2@@std@@QEAA@AEBV?$allocator@U?$pair@$$CBHH@std@@@1@@Z 0000000180033e20 f i priorityqueue_api.obj
 0001:00032e60       ??0?$list@U?$pair@$$CBHV?$vector@NV?$allocator@N@std@@@std@@@std@@V?$allocator@U?$pair@$$CBHV?$vector@NV?$allocator@N@std@@@std@@@std@@@2@@std@@QEAA@AEBV?$allocator@U?$pair@$$CBHV?$vector@NV?$allocator@N@std@@@std@@@std@@@1@@Z 0000000180033e60 f i priorityqueue_api.obj
 0001:00032ea0       ??0?$pair@HV?$vector@NV?$allocator@N@std@@@std@@@std@@QEAA@$$QEAU01@@Z 0000000180033ea0 f i priorityqueue_api.obj
 0001:00032ee0       ??0?$pair@HV?$vector@NV?$allocator@N@std@@@std@@@std@@QEAA@AEBU01@@Z 0000000180033ee0 f i priorityqueue_api.obj
 0001:00032f20       ??0?$priority_queue@U?$pair@HV?$vector@NV?$allocator@N@std@@@std@@@std@@V?$vector@U?$pair@HV?$vector@NV?$allocator@N@std@@@std@@@std@@V?$allocator@U?$pair@HV?$vector@NV?$allocator@N@std@@@std@@@std@@@2@@2@Ucomparator@PriorityQueueImpl@nav@@@std@@QEAA@AEBUcomparator@PriorityQueueImpl@nav@@@Z 0000000180033f20 f i priorityqueue_api.obj
 0001:00032f60       ??0?$priority_queue@U?$pair@HV?$vector@NV?$allocator@N@std@@@std@@@std@@V?$vector@U?$pair@HV?$vector@NV?$allocator@N@std@@@std@@@std@@V?$allocator@U?$pair@HV?$vector@NV?$allocator@N@std@@@std@@@std@@@2@@2@Ucomparator@PriorityQueueImpl@nav@@@std@@QEAA@XZ 0000000180033f60 f i priorityqueue_api.obj
 0001:00032fa0       ??0?$tuple@$$V@std@@QEAA@AEBV01@@Z 0000000180033fa0 f i priorityqueue_api.obj
 0001:00032fb0       ??0?$tuple@AEBH@std@@QEAA@$$QEAV01@@Z 0000000180033fb0 f i priorityqueue_api.obj
 0001:00032ff0       ??0?$unordered_map@HHU?$hash@H@std@@U?$equal_to@H@2@V?$allocator@U?$pair@$$CBHH@std@@@2@@std@@QEAA@XZ 0000000180033ff0 f i priorityqueue_api.obj
 0001:00033040       ??0?$unordered_map@HV?$vector@NV?$allocator@N@std@@@std@@U?$hash@H@2@U?$equal_to@H@2@V?$allocator@U?$pair@$$CBHV?$vector@NV?$allocator@N@std@@@std@@@std@@@2@@std@@QEAA@XZ 0000000180034040 f i priorityqueue_api.obj
 0001:00033090       ??0?$vector@NV?$allocator@N@std@@@std@@QEAA@$$QEAV01@@Z 0000000180034090 f i priorityqueue_api.obj
 0001:00033190       ??0?$vector@NV?$allocator@N@std@@@std@@QEAA@AEBV01@@Z 0000000180034190 f i priorityqueue_api.obj
 0001:00033220       ??0?$vector@NV?$allocator@N@std@@@std@@QEAA@XZ 0000000180034220 f i priorityqueue_api.obj
 0001:00033260       ??0?$vector@NV?$allocator@N@std@@@std@@QEAA@_KAEBNAEBV?$allocator@N@1@@Z 0000000180034260 f i priorityqueue_api.obj
 0001:000332b0       ??0?$vector@U?$pair@HV?$vector@NV?$allocator@N@std@@@std@@@std@@V?$allocator@U?$pair@HV?$vector@NV?$allocator@N@std@@@std@@@std@@@2@@std@@QEAA@XZ 00000001800342b0 f i priorityqueue_api.obj
 0001:000332f0       ??0?$vector@V?$vector@NV?$allocator@N@std@@@std@@V?$allocator@V?$vector@NV?$allocator@N@std@@@std@@@2@@std@@QEAA@$$QEAV01@@Z 00000001800342f0 f i priorityqueue_api.obj
 0001:000333f0       ??0?$vector@V?$vector@NV?$allocator@N@std@@@std@@V?$allocator@V?$vector@NV?$allocator@N@std@@@std@@@2@@std@@QEAA@XZ 00000001800343f0 f i priorityqueue_api.obj
 0001:00033430       ??0NodeMap@nav@@QEAA@H@Z   0000000180034430 f i priorityqueue_api.obj
 0001:00033530       ??0PriorityQueueImpl@nav@@QEAA@HH@Z 0000000180034530 f i priorityqueue_api.obj
 0001:00033620       ??0SimpleMap@nav@@QEAA@H@Z 0000000180034620 f i priorityqueue_api.obj
 0001:000336c0       ??0_Clear_guard@?$_Hash@V?$_Umap_traits@HHV?$_Uhash_compare@HU?$hash@H@std@@U?$equal_to@H@2@@std@@V?$allocator@U?$pair@$$CBHH@std@@@2@$0A@@std@@@std@@QEAA@QEAV12@@Z 00000001800346c0 f i priorityqueue_api.obj
 0001:000336e0       ??0_Clear_guard@?$_Hash@V?$_Umap_traits@HV?$vector@NV?$allocator@N@std@@@std@@V?$_Uhash_compare@HU?$hash@H@std@@U?$equal_to@H@2@@2@V?$allocator@U?$pair@$$CBHV?$vector@NV?$allocator@N@std@@@std@@@std@@@2@$0A@@std@@@std@@QEAA@QEAV12@@Z 00000001800346e0 f i priorityqueue_api.obj
 0001:00033700       ??0_Fake_proxy_ptr_impl@std@@QEAA@AEBU_Fake_allocator@1@AEBU_Container_base0@1@@Z 0000000180034700 f i priorityqueue_api.obj
 0001:00033720       ??0_Range_eraser@?$_Hash@V?$_Umap_traits@HHV?$_Uhash_compare@HU?$hash@H@std@@U?$equal_to@H@2@@std@@V?$allocator@U?$pair@$$CBHH@std@@@2@$0A@@std@@@std@@QEAA@AEAV?$list@U?$pair@$$CBHH@std@@V?$allocator@U?$pair@$$CBHH@std@@@2@@2@QEAU?$_List_node@U?$pair@$$CBHH@std@@PEAX@2@@Z 0000000180034720 f i priorityqueue_api.obj
 0001:00033770       ??0_Range_eraser@?$_Hash@V?$_Umap_traits@HV?$vector@NV?$allocator@N@std@@@std@@V?$_Uhash_compare@HU?$hash@H@std@@U?$equal_to@H@2@@2@V?$allocator@U?$pair@$$CBHV?$vector@NV?$allocator@N@std@@@std@@@std@@@2@$0A@@std@@@std@@QEAA@AEAV?$list@U?$pair@$$CBHV?$vector@NV?$allocator@N@std@@@std@@@std@@V?$allocator@U?$pair@$$CBHV?$vector@NV?$allocator@N@std@@@std@@@std@@@2@@2@QEAU?$_List_node@U?$pair@$$CBHV?$vector@NV?$allocator@N@std@@@std@@@std@@PEAX@2@@Z 0000000180034770 f i priorityqueue_api.obj
 0001:000337c0       ??0bad_alloc@std@@AEAA@QEBD@Z 00000001800347c0 f i priorityqueue_api.obj
 0001:00033800       ??0bad_alloc@std@@QEAA@AEBV01@@Z 0000000180034800 f i priorityqueue_api.obj
 0001:00033840       ??0bad_array_new_length@std@@QEAA@AEBV01@@Z 0000000180034840 f i priorityqueue_api.obj
 0001:00033880       ??0bad_array_new_length@std@@QEAA@XZ 0000000180034880 f i priorityqueue_api.obj
 0001:000338c0       ??0comparator@PriorityQueueImpl@nav@@QEAA@H@Z 00000001800348c0 f i priorityqueue_api.obj
 0001:000338e0       ??0comparator@PriorityQueueImpl@nav@@QEAA@XZ 00000001800348e0 f i priorityqueue_api.obj
 0001:00033900       ??0exception@std@@QEAA@AEBV01@@Z 0000000180034900 f i priorityqueue_api.obj
 0001:00033960       ??0exception@std@@QEAA@QEBDH@Z 0000000180034960 f i priorityqueue_api.obj
 0001:000339b0       ??1?$_Alloc_construct_ptr@V?$allocator@U?$_List_node@U?$pair@$$CBHH@std@@PEAX@std@@@std@@@std@@QEAA@XZ 00000001800349b0 f i priorityqueue_api.obj
 0001:000339f0       ??1?$_Alloc_construct_ptr@V?$allocator@U?$_List_node@U?$pair@$$CBHV?$vector@NV?$allocator@N@std@@@std@@@std@@PEAX@std@@@std@@@std@@QEAA@XZ 00000001800349f0 f i priorityqueue_api.obj
 0001:00033a30       ??1?$_Hash@V?$_Umap_traits@HHV?$_Uhash_compare@HU?$hash@H@std@@U?$equal_to@H@2@@std@@V?$allocator@U?$pair@$$CBHH@std@@@2@$0A@@std@@@std@@QEAA@XZ 0000000180034a30 f i priorityqueue_api.obj
 0001:00033a60       ??1?$_Hash@V?$_Umap_traits@HV?$vector@NV?$allocator@N@std@@@std@@V?$_Uhash_compare@HU?$hash@H@std@@U?$equal_to@H@2@@2@V?$allocator@U?$pair@$$CBHV?$vector@NV?$allocator@N@std@@@std@@@std@@@2@$0A@@std@@@std@@QEAA@XZ 0000000180034a60 f i priorityqueue_api.obj
 0001:00033a90       ??1?$_Hash_vec@V?$allocator@V?$_List_unchecked_iterator@V?$_List_val@U?$_List_simple_types@U?$pair@$$CBHH@std@@@std@@@std@@@std@@@std@@@std@@QEAA@XZ 0000000180034a90 f i priorityqueue_api.obj
 0001:00033ab0       ??1?$_Hash_vec@V?$allocator@V?$_List_unchecked_iterator@V?$_List_val@U?$_List_simple_types@U?$pair@$$CBHV?$vector@NV?$allocator@N@std@@@std@@@std@@@std@@@std@@@std@@@std@@@std@@QEAA@XZ 0000000180034ab0 f i priorityqueue_api.obj
 0001:00033ad0       ??1?$_List_node_emplace_op2@V?$allocator@U?$_List_node@U?$pair@$$CBHH@std@@PEAX@std@@@std@@@std@@QEAA@XZ 0000000180034ad0 f i priorityqueue_api.obj
 0001:00033b20       ??1?$_List_node_emplace_op2@V?$allocator@U?$_List_node@U?$pair@$$CBHV?$vector@NV?$allocator@N@std@@@std@@@std@@PEAX@std@@@std@@@std@@QEAA@XZ 0000000180034b20 f i priorityqueue_api.obj
 0001:00033b70       ??1?$_Tidy_guard@V?$vector@NV?$allocator@N@std@@@std@@@std@@QEAA@XZ 0000000180034b70 f i priorityqueue_api.obj
 0001:00033ba0       ??1?$_Uninitialized_backout@PEAV?$_List_unchecked_iterator@V?$_List_val@U?$_List_simple_types@U?$pair@$$CBHH@std@@@std@@@std@@@std@@@std@@QEAA@XZ 0000000180034ba0 f i priorityqueue_api.obj
 0001:00033bd0       ??1?$_Uninitialized_backout@PEAV?$_List_unchecked_iterator@V?$_List_val@U?$_List_simple_types@U?$pair@$$CBHV?$vector@NV?$allocator@N@std@@@std@@@std@@@std@@@std@@@std@@@std@@QEAA@XZ 0000000180034bd0 f i priorityqueue_api.obj
 0001:00033c00       ??1?$_Uninitialized_backout_al@V?$allocator@N@std@@@std@@QEAA@XZ 0000000180034c00 f i priorityqueue_api.obj
 0001:00033c30       ??1?$_Uninitialized_backout_al@V?$allocator@U?$pair@HV?$vector@NV?$allocator@N@std@@@std@@@std@@@std@@@std@@QEAA@XZ 0000000180034c30 f i priorityqueue_api.obj
 0001:00033c60       ??1?$_Uninitialized_backout_al@V?$allocator@V?$vector@NV?$allocator@N@std@@@std@@@std@@@std@@QEAA@XZ 0000000180034c60 f i priorityqueue_api.obj
 0001:00033c90       ??1?$list@U?$pair@$$CBHH@std@@V?$allocator@U?$pair@$$CBHH@std@@@2@@std@@QEAA@XZ 0000000180034c90 f i priorityqueue_api.obj
 0001:00033cb0       ??1?$list@U?$pair@$$CBHV?$vector@NV?$allocator@N@std@@@std@@@std@@V?$allocator@U?$pair@$$CBHV?$vector@NV?$allocator@N@std@@@std@@@std@@@2@@std@@QEAA@XZ 0000000180034cb0 f i priorityqueue_api.obj
 0001:00033cd0       ??1?$pair@$$CBHV?$vector@NV?$allocator@N@std@@@std@@@std@@QEAA@XZ 0000000180034cd0 f i priorityqueue_api.obj
 0001:00033cf0       ??1?$pair@HV?$vector@NV?$allocator@N@std@@@std@@@std@@QEAA@XZ 0000000180034cf0 f i priorityqueue_api.obj
 0001:00033d10       ??1?$priority_queue@U?$pair@HV?$vector@NV?$allocator@N@std@@@std@@@std@@V?$vector@U?$pair@HV?$vector@NV?$allocator@N@std@@@std@@@std@@V?$allocator@U?$pair@HV?$vector@NV?$allocator@N@std@@@std@@@std@@@2@@2@Ucomparator@PriorityQueueImpl@nav@@@std@@QEAA@XZ 0000000180034d10 f i priorityqueue_api.obj
 0001:00033d30       ??1?$unordered_map@HHU?$hash@H@std@@U?$equal_to@H@2@V?$allocator@U?$pair@$$CBHH@std@@@2@@std@@QEAA@XZ 0000000180034d30 f i priorityqueue_api.obj
 0001:00033d50       ??1?$unordered_map@HV?$vector@NV?$allocator@N@std@@@std@@U?$hash@H@2@U?$equal_to@H@2@V?$allocator@U?$pair@$$CBHV?$vector@NV?$allocator@N@std@@@std@@@std@@@2@@std@@QEAA@XZ 0000000180034d50 f i priorityqueue_api.obj
 0001:00033d70       ??1?$vector@NV?$allocator@N@std@@@std@@QEAA@XZ 0000000180034d70 f i priorityqueue_api.obj
 0001:00033d90       ??1?$vector@U?$pair@HV?$vector@NV?$allocator@N@std@@@std@@@std@@V?$allocator@U?$pair@HV?$vector@NV?$allocator@N@std@@@std@@@std@@@2@@std@@QEAA@XZ 0000000180034d90 f i priorityqueue_api.obj
 0001:00033db0       ??1?$vector@V?$vector@NV?$allocator@N@std@@@std@@V?$allocator@V?$vector@NV?$allocator@N@std@@@std@@@2@@std@@QEAA@XZ 0000000180034db0 f i priorityqueue_api.obj
 0001:00033dd0       ??1NodeMap@nav@@QEAA@XZ    0000000180034dd0 f i priorityqueue_api.obj
 0001:00033e00       ??1PriorityQueueImpl@nav@@QEAA@XZ 0000000180034e00 f i priorityqueue_api.obj
 0001:00033e20       ??1SimpleMap@nav@@QEAA@XZ  0000000180034e20 f i priorityqueue_api.obj
 0001:00033e40       ??1_Clear_guard@?$_Hash@V?$_Umap_traits@HHV?$_Uhash_compare@HU?$hash@H@std@@U?$equal_to@H@2@@std@@V?$allocator@U?$pair@$$CBHH@std@@@2@$0A@@std@@@std@@QEAA@XZ 0000000180034e40 f i priorityqueue_api.obj
 0001:00033e70       ??1_Clear_guard@?$_Hash@V?$_Umap_traits@HV?$vector@NV?$allocator@N@std@@@std@@V?$_Uhash_compare@HU?$hash@H@std@@U?$equal_to@H@2@@2@V?$allocator@U?$pair@$$CBHV?$vector@NV?$allocator@N@std@@@std@@@std@@@2@$0A@@std@@@std@@QEAA@XZ 0000000180034e70 f i priorityqueue_api.obj
 0001:00033ea0       ??1_Range_eraser@?$_Hash@V?$_Umap_traits@HHV?$_Uhash_compare@HU?$hash@H@std@@U?$equal_to@H@2@@std@@V?$allocator@U?$pair@$$CBHH@std@@@2@$0A@@std@@@std@@QEAA@XZ 0000000180034ea0 f i priorityqueue_api.obj
 0001:00033ee0       ??1_Range_eraser@?$_Hash@V?$_Umap_traits@HV?$vector@NV?$allocator@N@std@@@std@@V?$_Uhash_compare@HU?$hash@H@std@@U?$equal_to@H@2@@2@V?$allocator@U?$pair@$$CBHV?$vector@NV?$allocator@N@std@@@std@@@std@@@2@$0A@@std@@@std@@QEAA@XZ 0000000180034ee0 f i priorityqueue_api.obj
 0001:00033f20       ??1bad_alloc@std@@UEAA@XZ  0000000180034f20 f i priorityqueue_api.obj
 0001:00033f40       ??1bad_array_new_length@std@@UEAA@XZ 0000000180034f40 f i priorityqueue_api.obj
 0001:00033f60       ??1exception@std@@UEAA@XZ  0000000180034f60 f i priorityqueue_api.obj
 0001:00033f90       ??2@YAPEAX_KPEAX@Z         0000000180034f90 f i priorityqueue_api.obj
 0001:00033fa0       ??4?$_Hash@V?$_Umap_traits@HHV?$_Uhash_compare@HU?$hash@H@std@@U?$equal_to@H@2@@std@@V?$allocator@U?$pair@$$CBHH@std@@@2@$0A@@std@@@std@@QEAAAEAV01@$$QEAV01@@Z 0000000180034fa0 f i priorityqueue_api.obj
 0001:00034030       ??4?$_Hash@V?$_Umap_traits@HV?$vector@NV?$allocator@N@std@@@std@@V?$_Uhash_compare@HU?$hash@H@std@@U?$equal_to@H@2@@2@V?$allocator@U?$pair@$$CBHV?$vector@NV?$allocator@N@std@@@std@@@std@@@2@$0A@@std@@@std@@QEAAAEAV01@$$QEAV01@@Z 0000000180035030 f i priorityqueue_api.obj
 0001:000340c0       ??4?$priority_queue@U?$pair@HV?$vector@NV?$allocator@N@std@@@std@@@std@@V?$vector@U?$pair@HV?$vector@NV?$allocator@N@std@@@std@@@std@@V?$allocator@U?$pair@HV?$vector@NV?$allocator@N@std@@@std@@@std@@@2@@2@Ucomparator@PriorityQueueImpl@nav@@@std@@QEAAAEAV01@$$QEAV01@@Z 00000001800350c0 f i priorityqueue_api.obj
 0001:00034100       ??4?$unordered_map@HHU?$hash@H@std@@U?$equal_to@H@2@V?$allocator@U?$pair@$$CBHH@std@@@2@@std@@QEAAAEAV01@$$QEAV01@@Z 0000000180035100 f i priorityqueue_api.obj
 0001:00034130       ??4?$unordered_map@HV?$vector@NV?$allocator@N@std@@@std@@U?$hash@H@2@U?$equal_to@H@2@V?$allocator@U?$pair@$$CBHV?$vector@NV?$allocator@N@std@@@std@@@std@@@2@@std@@QEAAAEAV01@$$QEAV01@@Z 0000000180035130 f i priorityqueue_api.obj
 0001:00034160       ??4?$vector@NV?$allocator@N@std@@@std@@QEAAAEAV01@$$QEAV01@@Z 0000000180035160 f i priorityqueue_api.obj
 0001:000341f0       ??4?$vector@U?$pair@HV?$vector@NV?$allocator@N@std@@@std@@@std@@V?$allocator@U?$pair@HV?$vector@NV?$allocator@N@std@@@std@@@std@@@2@@std@@QEAAAEAV01@$$QEAV01@@Z 00000001800351f0 f i priorityqueue_api.obj
 0001:00034280       ??8?$_List_const_iterator@V?$_List_val@U?$_List_simple_types@U?$pair@$$CBHH@std@@@std@@@std@@@std@@QEBA_NAEBV01@@Z 0000000180035280 f i priorityqueue_api.obj
 0001:000342c0       ??8?$_List_const_iterator@V?$_List_val@U?$_List_simple_types@U?$pair@$$CBHV?$vector@NV?$allocator@N@std@@@std@@@std@@@std@@@std@@@std@@QEBA_NAEBV01@@Z 00000001800352c0 f i priorityqueue_api.obj
 0001:00034300       ??8?$_List_unchecked_const_iterator@V?$_List_val@U?$_List_simple_types@U?$pair@$$CBHH@std@@@std@@@std@@U_Iterator_base0@2@@std@@QEBA_NAEBV01@@Z 0000000180035300 f i priorityqueue_api.obj
 0001:00034340       ??8?$_List_unchecked_const_iterator@V?$_List_val@U?$_List_simple_types@U?$pair@$$CBHV?$vector@NV?$allocator@N@std@@@std@@@std@@@std@@@std@@U_Iterator_base0@2@@std@@QEBA_NAEBV01@@Z 0000000180035340 f i priorityqueue_api.obj
 0001:00034380       ??8?$_Vector_const_iterator@V?$_Vector_val@U?$_Simple_types@V?$vector@NV?$allocator@N@std@@@std@@@std@@@std@@@std@@QEBA_NAEBV01@@Z 0000000180035380 f i priorityqueue_api.obj
 0001:000343d0       ??9?$_List_const_iterator@V?$_List_val@U?$_List_simple_types@U?$pair@$$CBHH@std@@@std@@@std@@@std@@QEBA_NAEBV01@@Z 00000001800353d0 f i priorityqueue_api.obj
 0001:00034410       ??9?$_List_unchecked_const_iterator@V?$_List_val@U?$_List_simple_types@U?$pair@$$CBHH@std@@@std@@@std@@U_Iterator_base0@2@@std@@QEBA_NAEBV01@@Z 0000000180035410 f i priorityqueue_api.obj
 0001:00034450       ??9?$_List_unchecked_const_iterator@V?$_List_val@U?$_List_simple_types@U?$pair@$$CBHV?$vector@NV?$allocator@N@std@@@std@@@std@@@std@@@std@@U_Iterator_base0@2@@std@@QEBA_NAEBV01@@Z 0000000180035450 f i priorityqueue_api.obj
 0001:00034490       ??9?$_Vector_const_iterator@V?$_Vector_val@U?$_Simple_types@V?$vector@NV?$allocator@N@std@@@std@@@std@@@std@@@std@@QEBA_NAEBV01@@Z 0000000180035490 f i priorityqueue_api.obj
 0001:000344d0       ??A?$unordered_map@HHU?$hash@H@std@@U?$equal_to@H@2@V?$allocator@U?$pair@$$CBHH@std@@@2@@std@@QEAAAEAHAEBH@Z 00000001800354d0 f i priorityqueue_api.obj
 0001:00034500       ??A?$unordered_map@HV?$vector@NV?$allocator@N@std@@@std@@U?$hash@H@2@U?$equal_to@H@2@V?$allocator@U?$pair@$$CBHV?$vector@NV?$allocator@N@std@@@std@@@std@@@2@@std@@QEAAAEAV?$vector@NV?$allocator@N@std@@@1@AEBH@Z 0000000180035500 f i priorityqueue_api.obj
 0001:00034530       ??A?$vector@NV?$allocator@N@std@@@std@@QEAAAEAN_K@Z 0000000180035530 f i priorityqueue_api.obj
 0001:00034560       ??A?$vector@NV?$allocator@N@std@@@std@@QEBAAEBN_K@Z 0000000180035560 f i priorityqueue_api.obj
 0001:00034590       ??C?$_Vector_iterator@V?$_Vector_val@U?$_Simple_types@V?$vector@NV?$allocator@N@std@@@std@@@std@@@std@@@std@@QEBAPEAV?$vector@NV?$allocator@N@std@@@1@XZ 0000000180035590 f i priorityqueue_api.obj
 0001:000345a0       ??D?$_List_unchecked_const_iterator@V?$_List_val@U?$_List_simple_types@U?$pair@$$CBHH@std@@@std@@@std@@U_Iterator_base0@2@@std@@QEBAAEBU?$pair@$$CBHH@1@XZ 00000001800355a0 f i priorityqueue_api.obj
 0001:000345c0       ??D?$_List_unchecked_const_iterator@V?$_List_val@U?$_List_simple_types@U?$pair@$$CBHV?$vector@NV?$allocator@N@std@@@std@@@std@@@std@@@std@@U_Iterator_base0@2@@std@@QEBAAEBU?$pair@$$CBHV?$vector@NV?$allocator@N@std@@@std@@@1@XZ 00000001800355c0 f i priorityqueue_api.obj
 0001:000345e0       ??D?$_List_unchecked_iterator@V?$_List_val@U?$_List_simple_types@U?$pair@$$CBHH@std@@@std@@@std@@@std@@QEBAAEAU?$pair@$$CBHH@1@XZ 00000001800355e0 f i priorityqueue_api.obj
 0001:00034600       ??D?$_List_unchecked_iterator@V?$_List_val@U?$_List_simple_types@U?$pair@$$CBHV?$vector@NV?$allocator@N@std@@@std@@@std@@@std@@@std@@@std@@QEBAAEAU?$pair@$$CBHV?$vector@NV?$allocator@N@std@@@std@@@1@XZ 0000000180035600 f i priorityqueue_api.obj
 0001:00034620       ??D?$_Vector_const_iterator@V?$_Vector_val@U?$_Simple_types@V?$vector@NV?$allocator@N@std@@@std@@@std@@@std@@@std@@QEBAAEBV?$vector@NV?$allocator@N@std@@@1@XZ 0000000180035620 f i priorityqueue_api.obj
 0001:00034630       ??D?$_Vector_iterator@V?$_Vector_val@U?$_Simple_types@V?$vector@NV?$allocator@N@std@@@std@@@std@@@std@@@std@@QEBAAEAV?$vector@NV?$allocator@N@std@@@1@XZ 0000000180035630 f i priorityqueue_api.obj
 0001:00034650       ??E?$_List_unchecked_const_iterator@V?$_List_val@U?$_List_simple_types@U?$pair@$$CBHH@std@@@std@@@std@@U_Iterator_base0@2@@std@@QEAAAEAV01@XZ 0000000180035650 f i priorityqueue_api.obj
 0001:00034670       ??E?$_List_unchecked_const_iterator@V?$_List_val@U?$_List_simple_types@U?$pair@$$CBHV?$vector@NV?$allocator@N@std@@@std@@@std@@@std@@@std@@U_Iterator_base0@2@@std@@QEAAAEAV01@XZ 0000000180035670 f i priorityqueue_api.obj
 0001:00034690       ??E?$_List_unchecked_iterator@V?$_List_val@U?$_List_simple_types@U?$pair@$$CBHH@std@@@std@@@std@@@std@@QEAAAEAV01@XZ 0000000180035690 f i priorityqueue_api.obj
 0001:000346b0       ??E?$_List_unchecked_iterator@V?$_List_val@U?$_List_simple_types@U?$pair@$$CBHV?$vector@NV?$allocator@N@std@@@std@@@std@@@std@@@std@@@std@@QEAAAEAV01@XZ 00000001800356b0 f i priorityqueue_api.obj
 0001:000346d0       ??E?$_Vector_const_iterator@V?$_Vector_val@U?$_Simple_types@V?$vector@NV?$allocator@N@std@@@std@@@std@@@std@@@std@@QEAAAEAV01@XZ 00000001800356d0 f i priorityqueue_api.obj
 0001:000346f0       ??E?$_Vector_iterator@V?$_Vector_val@U?$_Simple_types@V?$vector@NV?$allocator@N@std@@@std@@@std@@@std@@@std@@QEAAAEAV01@XZ 00000001800356f0 f i priorityqueue_api.obj
 0001:00034710       ??F?$_List_unchecked_const_iterator@V?$_List_val@U?$_List_simple_types@U?$pair@$$CBHH@std@@@std@@@std@@U_Iterator_base0@2@@std@@QEAAAEAV01@XZ 0000000180035710 f i priorityqueue_api.obj
 0001:00034730       ??F?$_List_unchecked_const_iterator@V?$_List_val@U?$_List_simple_types@U?$pair@$$CBHV?$vector@NV?$allocator@N@std@@@std@@@std@@@std@@@std@@U_Iterator_base0@2@@std@@QEAAAEAV01@XZ 0000000180035730 f i priorityqueue_api.obj
 0001:00034750       ??R?$_Conditionally_enabled_hash@H$00@std@@QEBA_KAEBH@Z 0000000180035750 f i priorityqueue_api.obj
 0001:00034770       ??R?$equal_to@H@std@@QEBA_NAEBH0@Z 0000000180035770 f i priorityqueue_api.obj
 0001:000347b0       ??Rcomparator@PriorityQueueImpl@nav@@QEBA_NAEBU?$pair@HV?$vector@NV?$allocator@N@std@@@std@@@std@@0@Z 00000001800357b0 f i priorityqueue_api.obj
 0001:000348b0       ??_G?$pair@$$CBHV?$vector@NV?$allocator@N@std@@@std@@@std@@QEAAPEAXI@Z 00000001800358b0 f i priorityqueue_api.obj
 0001:000348f0       ??_G?$pair@HV?$vector@NV?$allocator@N@std@@@std@@@std@@QEAAPEAXI@Z 00000001800358f0 f i priorityqueue_api.obj
 0001:00034930       ??_G?$vector@NV?$allocator@N@std@@@std@@QEAAPEAXI@Z 0000000180035930 f i priorityqueue_api.obj
 0001:00034970       ??_GNodeMap@nav@@QEAAPEAXI@Z 0000000180035970 f i priorityqueue_api.obj
 0001:000349b0       ??_GPriorityQueueImpl@nav@@QEAAPEAXI@Z 00000001800359b0 f i priorityqueue_api.obj
 0001:000349f0       ??_GSimpleMap@nav@@QEAAPEAXI@Z 00000001800359f0 f i priorityqueue_api.obj
 0001:00034a30       ??_Ebad_alloc@std@@UEAAPEAXI@Z 0000000180035a30 f i priorityqueue_api.obj
 0001:00034a30       ??_Gbad_alloc@std@@UEAAPEAXI@Z 0000000180035a30 f i priorityqueue_api.obj
 0001:00034a70       ??_Ebad_array_new_length@std@@UEAAPEAXI@Z 0000000180035a70 f i priorityqueue_api.obj
 0001:00034a70       ??_Gbad_array_new_length@std@@UEAAPEAXI@Z 0000000180035a70 f i priorityqueue_api.obj
 0001:00034ab0       ??_Eexception@std@@UEAAPEAXI@Z 0000000180035ab0 f i priorityqueue_api.obj
 0001:00034ab0       ??_Gexception@std@@UEAAPEAXI@Z 0000000180035ab0 f i priorityqueue_api.obj
 0001:00034af0       ?_Adjust_manually_vector_aligned@std@@YAXAEAPEAXAEA_K@Z 0000000180035af0 f i priorityqueue_api.obj
 0001:00034b90       ?_Adopt@_Iterator_base0@std@@QEAAXPEBX@Z 0000000180035b90 f i priorityqueue_api.obj
 0001:00034ba0       ?_Alloc_proxy@_Container_base0@std@@QEAAXAEBU_Fake_allocator@2@@Z 0000000180035ba0 f i priorityqueue_api.obj
 0001:00034bb0       ?_Alloc_sentinel_and_proxy@?$list@U?$pair@$$CBHH@std@@V?$allocator@U?$pair@$$CBHH@std@@@2@@std@@AEAAXXZ 0000000180035bb0 f i priorityqueue_api.obj
 0001:00034c50       ?_Alloc_sentinel_and_proxy@?$list@U?$pair@$$CBHV?$vector@NV?$allocator@N@std@@@std@@@std@@V?$allocator@U?$pair@$$CBHV?$vector@NV?$allocator@N@std@@@std@@@std@@@2@@std@@AEAAXXZ 0000000180035c50 f i priorityqueue_api.obj
 0001:00034cf0       ?_Allocate@?$_Alloc_construct_ptr@V?$allocator@U?$_List_node@U?$pair@$$CBHH@std@@PEAX@std@@@std@@@std@@QEAAXXZ 0000000180035cf0 f i priorityqueue_api.obj
 0001:00034d30       ?_Allocate@?$_Alloc_construct_ptr@V?$allocator@U?$_List_node@U?$pair@$$CBHV?$vector@NV?$allocator@N@std@@@std@@@std@@PEAX@std@@@std@@@std@@QEAAXXZ 0000000180035d30 f i priorityqueue_api.obj
 0001:00034d70       ?_Allocate@_Default_allocate_traits@std@@SAPEAX_K@Z 0000000180035d70 f i priorityqueue_api.obj
 0001:00034d90       ?_Assign_grow@?$_Hash_vec@V?$allocator@V?$_List_unchecked_iterator@V?$_List_val@U?$_List_simple_types@U?$pair@$$CBHH@std@@@std@@@std@@@std@@@std@@@std@@QEAAX_KV?$_List_unchecked_iterator@V?$_List_val@U?$_List_simple_types@U?$pair@$$CBHH@std@@@std@@@std@@@2@@Z 0000000180035d90 f i priorityqueue_api.obj
 0001:00034ea0       ?_Assign_grow@?$_Hash_vec@V?$allocator@V?$_List_unchecked_iterator@V?$_List_val@U?$_List_simple_types@U?$pair@$$CBHV?$vector@NV?$allocator@N@std@@@std@@@std@@@std@@@std@@@std@@@std@@@std@@QEAAX_KV?$_List_unchecked_iterator@V?$_List_val@U?$_List_simple_types@U?$pair@$$CBHV?$vector@NV?$allocator@N@std@@@std@@@std@@@std@@@std@@@2@@Z 0000000180035ea0 f i priorityqueue_api.obj
 0001:00034fb0       ?_Bump_erased@_Range_eraser@?$_Hash@V?$_Umap_traits@HHV?$_Uhash_compare@HU?$hash@H@std@@U?$equal_to@H@2@@std@@V?$allocator@U?$pair@$$CBHH@std@@@2@$0A@@std@@@std@@QEAAXXZ 0000000180035fb0 f i priorityqueue_api.obj
 0001:00035020       ?_Bump_erased@_Range_eraser@?$_Hash@V?$_Umap_traits@HV?$vector@NV?$allocator@N@std@@@std@@V?$_Uhash_compare@HU?$hash@H@std@@U?$equal_to@H@2@@2@V?$allocator@U?$pair@$$CBHV?$vector@NV?$allocator@N@std@@@std@@@std@@@2@$0A@@std@@@std@@QEAAXXZ 0000000180036020 f i priorityqueue_api.obj
 0001:00035090       ?_Buy_nonzero@?$vector@NV?$allocator@N@std@@@std@@AEAAX_K@Z 0000000180036090 f i priorityqueue_api.obj
 0001:000350d0       ?_Buy_raw@?$vector@NV?$allocator@N@std@@@std@@AEAAX_K@Z 00000001800360d0 f i priorityqueue_api.obj
 0001:00035160       ?_Calculate_growth@?$vector@U?$pair@HV?$vector@NV?$allocator@N@std@@@std@@@std@@V?$allocator@U?$pair@HV?$vector@NV?$allocator@N@std@@@std@@@std@@@2@@std@@AEBA_K_K@Z 0000000180036160 f i priorityqueue_api.obj
 0001:000351f0       ?_Calculate_growth@?$vector@V?$vector@NV?$allocator@N@std@@@std@@V?$allocator@V?$vector@NV?$allocator@N@std@@@std@@@2@@std@@AEBA_K_K@Z 00000001800361f0 f i priorityqueue_api.obj
 0001:00035280       ?_Ceiling_of_log_2@std@@YAK_K@Z 0000000180036280 f i priorityqueue_api.obj
 0001:000352a0       ?_Change_array@?$vector@U?$pair@HV?$vector@NV?$allocator@N@std@@@std@@@std@@V?$allocator@U?$pair@HV?$vector@NV?$allocator@N@std@@@std@@@std@@@2@@std@@AEAAXQEAU?$pair@HV?$vector@NV?$allocator@N@std@@@std@@@2@_K1@Z 00000001800362a0 f i priorityqueue_api.obj
 0001:000353a0       ?_Change_array@?$vector@V?$vector@NV?$allocator@N@std@@@std@@V?$allocator@V?$vector@NV?$allocator@N@std@@@std@@@2@@std@@AEAAXQEAV?$vector@NV?$allocator@N@std@@@2@_K1@Z 00000001800363a0 f i priorityqueue_api.obj
 0001:000354a0       ?_Check_max_size@?$_Hash@V?$_Umap_traits@HHV?$_Uhash_compare@HU?$hash@H@std@@U?$equal_to@H@2@@std@@V?$allocator@U?$pair@$$CBHH@std@@@2@$0A@@std@@@std@@IEBAXXZ 00000001800364a0 f i priorityqueue_api.obj
 0001:000354e0       ?_Check_max_size@?$_Hash@V?$_Umap_traits@HV?$vector@NV?$allocator@N@std@@@std@@V?$_Uhash_compare@HU?$hash@H@std@@U?$equal_to@H@2@@2@V?$allocator@U?$pair@$$CBHV?$vector@NV?$allocator@N@std@@@std@@@std@@@2@$0A@@std@@@std@@IEBAXXZ 00000001800364e0 f i priorityqueue_api.obj
 0001:00035520       ?_Check_rehash_required_1@?$_Hash@V?$_Umap_traits@HHV?$_Uhash_compare@HU?$hash@H@std@@U?$equal_to@H@2@@std@@V?$allocator@U?$pair@$$CBHH@std@@@2@$0A@@std@@@std@@IEBA_NXZ 0000000180036520 f i priorityqueue_api.obj
 0001:000355f0       ?_Check_rehash_required_1@?$_Hash@V?$_Umap_traits@HV?$vector@NV?$allocator@N@std@@@std@@V?$_Uhash_compare@HU?$hash@H@std@@U?$equal_to@H@2@@2@V?$allocator@U?$pair@$$CBHV?$vector@NV?$allocator@N@std@@@std@@@std@@@2@$0A@@std@@@std@@IEBA_NXZ 00000001800365f0 f i priorityqueue_api.obj
 0001:000356c0       ?_Compat@?$_Vector_const_iterator@V?$_Vector_val@U?$_Simple_types@V?$vector@NV?$allocator@N@std@@@std@@@std@@@std@@@std@@QEBAXAEBV12@@Z 00000001800366c0 f i priorityqueue_api.obj
 0001:000356d0       ?_Desired_grow_bucket_count@?$_Hash@V?$_Umap_traits@HHV?$_Uhash_compare@HU?$hash@H@std@@U?$equal_to@H@2@@std@@V?$allocator@U?$pair@$$CBHH@std@@@2@$0A@@std@@@std@@IEBA_K_K@Z 00000001800366d0 f i priorityqueue_api.obj
 0001:00035760       ?_Desired_grow_bucket_count@?$_Hash@V?$_Umap_traits@HV?$vector@NV?$allocator@N@std@@@std@@V?$_Uhash_compare@HU?$hash@H@std@@U?$equal_to@H@2@@2@V?$allocator@U?$pair@$$CBHV?$vector@NV?$allocator@N@std@@@std@@@std@@@2@$0A@@std@@@std@@IEBA_K_K@Z 0000000180036760 f i priorityqueue_api.obj
 0001:000357f0       ?_Do_hash@?$hash@H@std@@SA_KAEBH@Z 00000001800367f0 f i priorityqueue_api.obj
 0001:00035810       ?_Floor_of_log_2@std@@YAK_K@Z 0000000180036810 f i priorityqueue_api.obj
 0001:00035840       ?_Fnv1a_append_bytes@std@@YA_K_KQEBE_K@Z 0000000180036840 f i priorityqueue_api.obj
 0001:000358c0       ?_Forced_rehash@?$_Hash@V?$_Umap_traits@HHV?$_Uhash_compare@HU?$hash@H@std@@U?$equal_to@H@2@@std@@V?$allocator@U?$pair@$$CBHH@std@@@2@$0A@@std@@@std@@IEAAX_K@Z 00000001800368c0 f i priorityqueue_api.obj
 0001:00035bf0       ?_Forced_rehash@?$_Hash@V?$_Umap_traits@HV?$vector@NV?$allocator@N@std@@@std@@V?$_Uhash_compare@HU?$hash@H@std@@U?$equal_to@H@2@@2@V?$allocator@U?$pair@$$CBHV?$vector@NV?$allocator@N@std@@@std@@@std@@@2@$0A@@std@@@std@@IEAAX_K@Z 0000000180036bf0 f i priorityqueue_api.obj
 0001:00035f20       ?_Get_first@?$_Compressed_pair@U?$equal_to@H@std@@M$00@std@@QEBAAEBU?$equal_to@H@2@XZ 0000000180036f20 f i priorityqueue_api.obj
 0001:00035f30       ?_Get_first@?$_Compressed_pair@U?$hash@H@std@@V?$_Compressed_pair@U?$equal_to@H@std@@M$00@2@$00@std@@QEBAAEBU?$hash@H@2@XZ 0000000180036f30 f i priorityqueue_api.obj
 0001:00035f40       ?_Get_first@?$_Compressed_pair@V?$allocator@N@std@@V?$_Vector_val@U?$_Simple_types@N@std@@@2@$00@std@@QEAAAEAV?$allocator@N@2@XZ 0000000180036f40 f i priorityqueue_api.obj
 0001:00035f50       ?_Get_first@?$_Compressed_pair@V?$allocator@N@std@@V?$_Vector_val@U?$_Simple_types@N@std@@@2@$00@std@@QEBAAEBV?$allocator@N@2@XZ 0000000180036f50 f i priorityqueue_api.obj
 0001:00035f60       ?_Get_first@?$_Compressed_pair@V?$allocator@U?$_List_node@U?$pair@$$CBHH@std@@PEAX@std@@@std@@V?$_List_val@U?$_List_simple_types@U?$pair@$$CBHH@std@@@std@@@2@$00@std@@QEAAAEAV?$allocator@U?$_List_node@U?$pair@$$CBHH@std@@PEAX@std@@@2@XZ 0000000180036f60 f i priorityqueue_api.obj
 0001:00035f70       ?_Get_first@?$_Compressed_pair@V?$allocator@U?$_List_node@U?$pair@$$CBHH@std@@PEAX@std@@@std@@V?$_List_val@U?$_List_simple_types@U?$pair@$$CBHH@std@@@std@@@2@$00@std@@QEBAAEBV?$allocator@U?$_List_node@U?$pair@$$CBHH@std@@PEAX@std@@@2@XZ 0000000180036f70 f i priorityqueue_api.obj
 0001:00035f80       ?_Get_first@?$_Compressed_pair@V?$allocator@U?$_List_node@U?$pair@$$CBHV?$vector@NV?$allocator@N@std@@@std@@@std@@PEAX@std@@@std@@V?$_List_val@U?$_List_simple_types@U?$pair@$$CBHV?$vector@NV?$allocator@N@std@@@std@@@std@@@std@@@2@$00@std@@QEAAAEAV?$allocator@U?$_List_node@U?$pair@$$CBHV?$vector@NV?$allocator@N@std@@@std@@@std@@PEAX@std@@@2@XZ 0000000180036f80 f i priorityqueue_api.obj
 0001:00035f90       ?_Get_first@?$_Compressed_pair@V?$allocator@U?$_List_node@U?$pair@$$CBHV?$vector@NV?$allocator@N@std@@@std@@@std@@PEAX@std@@@std@@V?$_List_val@U?$_List_simple_types@U?$pair@$$CBHV?$vector@NV?$allocator@N@std@@@std@@@std@@@std@@@2@$00@std@@QEBAAEBV?$allocator@U?$_List_node@U?$pair@$$CBHV?$vector@NV?$allocator@N@std@@@std@@@std@@PEAX@std@@@2@XZ 0000000180036f90 f i priorityqueue_api.obj
 0001:00035fa0       ?_Get_first@?$_Compressed_pair@V?$allocator@U?$pair@HV?$vector@NV?$allocator@N@std@@@std@@@std@@@std@@V?$_Vector_val@U?$_Simple_types@U?$pair@HV?$vector@NV?$allocator@N@std@@@std@@@std@@@std@@@2@$00@std@@QEAAAEAV?$allocator@U?$pair@HV?$vector@NV?$allocator@N@std@@@std@@@std@@@2@XZ 0000000180036fa0 f i priorityqueue_api.obj
 0001:00035fb0       ?_Get_first@?$_Compressed_pair@V?$allocator@U?$pair@HV?$vector@NV?$allocator@N@std@@@std@@@std@@@std@@V?$_Vector_val@U?$_Simple_types@U?$pair@HV?$vector@NV?$allocator@N@std@@@std@@@std@@@std@@@2@$00@std@@QEBAAEBV?$allocator@U?$pair@HV?$vector@NV?$allocator@N@std@@@std@@@std@@@2@XZ 0000000180036fb0 f i priorityqueue_api.obj
 0001:00035fc0       ?_Get_first@?$_Compressed_pair@V?$allocator@V?$_List_unchecked_iterator@V?$_List_val@U?$_List_simple_types@U?$pair@$$CBHH@std@@@std@@@std@@@std@@@std@@V?$_Vector_val@U?$_Simple_types@V?$_List_unchecked_iterator@V?$_List_val@U?$_List_simple_types@U?$pair@$$CBHH@std@@@std@@@std@@@std@@@std@@@2@$00@std@@QEAAAEAV?$allocator@V?$_List_unchecked_iterator@V?$_List_val@U?$_List_simple_types@U?$pair@$$CBHH@std@@@std@@@std@@@std@@@2@XZ 0000000180036fc0 f i priorityqueue_api.obj
 0001:00035fd0       ?_Get_first@?$_Compressed_pair@V?$allocator@V?$_List_unchecked_iterator@V?$_List_val@U?$_List_simple_types@U?$pair@$$CBHH@std@@@std@@@std@@@std@@@std@@V?$_Vector_val@U?$_Simple_types@V?$_List_unchecked_iterator@V?$_List_val@U?$_List_simple_types@U?$pair@$$CBHH@std@@@std@@@std@@@std@@@std@@@2@$00@std@@QEBAAEBV?$allocator@V?$_List_unchecked_iterator@V?$_List_val@U?$_List_simple_types@U?$pair@$$CBHH@std@@@std@@@std@@@std@@@2@XZ 0000000180036fd0 f i priorityqueue_api.obj
 0001:00035fe0       ?_Get_first@?$_Compressed_pair@V?$allocator@V?$_List_unchecked_iterator@V?$_List_val@U?$_List_simple_types@U?$pair@$$CBHV?$vector@NV?$allocator@N@std@@@std@@@std@@@std@@@std@@@std@@@std@@V?$_Vector_val@U?$_Simple_types@V?$_List_unchecked_iterator@V?$_List_val@U?$_List_simple_types@U?$pair@$$CBHV?$vector@NV?$allocator@N@std@@@std@@@std@@@std@@@std@@@std@@@std@@@2@$00@std@@QEAAAEAV?$allocator@V?$_List_unchecked_iterator@V?$_List_val@U?$_List_simple_types@U?$pair@$$CBHV?$vector@NV?$allocator@N@std@@@std@@@std@@@std@@@std@@@std@@@2@XZ 0000000180036fe0 f i priorityqueue_api.obj
 0001:00035ff0       ?_Get_first@?$_Compressed_pair@V?$allocator@V?$_List_unchecked_iterator@V?$_List_val@U?$_List_simple_types@U?$pair@$$CBHV?$vector@NV?$allocator@N@std@@@std@@@std@@@std@@@std@@@std@@@std@@V?$_Vector_val@U?$_Simple_types@V?$_List_unchecked_iterator@V?$_List_val@U?$_List_simple_types@U?$pair@$$CBHV?$vector@NV?$allocator@N@std@@@std@@@std@@@std@@@std@@@std@@@std@@@2@$00@std@@QEBAAEBV?$allocator@V?$_List_unchecked_iterator@V?$_List_val@U?$_List_simple_types@U?$pair@$$CBHV?$vector@NV?$allocator@N@std@@@std@@@std@@@std@@@std@@@std@@@2@XZ 0000000180036ff0 f i priorityqueue_api.obj
 0001:00036000       ?_Get_first@?$_Compressed_pair@V?$allocator@V?$vector@NV?$allocator@N@std@@@std@@@std@@V?$_Vector_val@U?$_Simple_types@V?$vector@NV?$allocator@N@std@@@std@@@std@@@2@$00@std@@QEAAAEAV?$allocator@V?$vector@NV?$allocator@N@std@@@std@@@2@XZ 0000000180037000 f i priorityqueue_api.obj
 0001:00036010       ?_Get_first@?$_Compressed_pair@V?$allocator@V?$vector@NV?$allocator@N@std@@@std@@@std@@V?$_Vector_val@U?$_Simple_types@V?$vector@NV?$allocator@N@std@@@std@@@std@@@2@$00@std@@QEBAAEBV?$allocator@V?$vector@NV?$allocator@N@std@@@std@@@2@XZ 0000000180037010 f i priorityqueue_api.obj
 0001:00036020       ?_Get_max_bucket_size@?$_Uhash_compare@HU?$hash@H@std@@U?$equal_to@H@2@@std@@QEAAAEAMXZ 0000000180037020 f i priorityqueue_api.obj
 0001:00036030       ?_Get_max_bucket_size@?$_Uhash_compare@HU?$hash@H@std@@U?$equal_to@H@2@@std@@QEBAAEBMXZ 0000000180037030 f i priorityqueue_api.obj
 0001:00036040       ?_Getal@?$_Hash@V?$_Umap_traits@HHV?$_Uhash_compare@HU?$hash@H@std@@U?$equal_to@H@2@@std@@V?$allocator@U?$pair@$$CBHH@std@@@2@$0A@@std@@@std@@IEAAAEAV?$allocator@U?$_List_node@U?$pair@$$CBHH@std@@PEAX@std@@@2@XZ 0000000180037040 f i priorityqueue_api.obj
 0001:00036060       ?_Getal@?$_Hash@V?$_Umap_traits@HV?$vector@NV?$allocator@N@std@@@std@@V?$_Uhash_compare@HU?$hash@H@std@@U?$equal_to@H@2@@2@V?$allocator@U?$pair@$$CBHV?$vector@NV?$allocator@N@std@@@std@@@std@@@2@$0A@@std@@@std@@IEAAAEAV?$allocator@U?$_List_node@U?$pair@$$CBHV?$vector@NV?$allocator@N@std@@@std@@@std@@PEAX@std@@@2@XZ 0000000180037060 f i priorityqueue_api.obj
 0001:00036080       ?_Getal@?$list@U?$pair@$$CBHH@std@@V?$allocator@U?$pair@$$CBHH@std@@@2@@std@@AEAAAEAV?$allocator@U?$_List_node@U?$pair@$$CBHH@std@@PEAX@std@@@2@XZ 0000000180037080 f i priorityqueue_api.obj
 0001:000360a0       ?_Getal@?$list@U?$pair@$$CBHH@std@@V?$allocator@U?$pair@$$CBHH@std@@@2@@std@@AEBAAEBV?$allocator@U?$_List_node@U?$pair@$$CBHH@std@@PEAX@std@@@2@XZ 00000001800370a0 f i priorityqueue_api.obj
 0001:000360c0       ?_Getal@?$list@U?$pair@$$CBHV?$vector@NV?$allocator@N@std@@@std@@@std@@V?$allocator@U?$pair@$$CBHV?$vector@NV?$allocator@N@std@@@std@@@std@@@2@@std@@AEAAAEAV?$allocator@U?$_List_node@U?$pair@$$CBHV?$vector@NV?$allocator@N@std@@@std@@@std@@PEAX@std@@@2@XZ 00000001800370c0 f i priorityqueue_api.obj
 0001:000360e0       ?_Getal@?$list@U?$pair@$$CBHV?$vector@NV?$allocator@N@std@@@std@@@std@@V?$allocator@U?$pair@$$CBHV?$vector@NV?$allocator@N@std@@@std@@@std@@@2@@std@@AEBAAEBV?$allocator@U?$_List_node@U?$pair@$$CBHV?$vector@NV?$allocator@N@std@@@std@@@std@@PEAX@std@@@2@XZ 00000001800370e0 f i priorityqueue_api.obj
 0001:00036100       ?_Getal@?$vector@NV?$allocator@N@std@@@std@@AEAAAEAV?$allocator@N@2@XZ 0000000180037100 f i priorityqueue_api.obj
 0001:00036120       ?_Getal@?$vector@NV?$allocator@N@std@@@std@@AEBAAEBV?$allocator@N@2@XZ 0000000180037120 f i priorityqueue_api.obj
 0001:00036140       ?_Getal@?$vector@U?$pair@HV?$vector@NV?$allocator@N@std@@@std@@@std@@V?$allocator@U?$pair@HV?$vector@NV?$allocator@N@std@@@std@@@std@@@2@@std@@AEAAAEAV?$allocator@U?$pair@HV?$vector@NV?$allocator@N@std@@@std@@@std@@@2@XZ 0000000180037140 f i priorityqueue_api.obj
 0001:00036160       ?_Getal@?$vector@U?$pair@HV?$vector@NV?$allocator@N@std@@@std@@@std@@V?$allocator@U?$pair@HV?$vector@NV?$allocator@N@std@@@std@@@std@@@2@@std@@AEBAAEBV?$allocator@U?$pair@HV?$vector@NV?$allocator@N@std@@@std@@@std@@@2@XZ 0000000180037160 f i priorityqueue_api.obj
 0001:00036180       ?_Getal@?$vector@V?$vector@NV?$allocator@N@std@@@std@@V?$allocator@V?$vector@NV?$allocator@N@std@@@std@@@2@@std@@AEAAAEAV?$allocator@V?$vector@NV?$allocator@N@std@@@std@@@2@XZ 0000000180037180 f i priorityqueue_api.obj
 0001:000361a0       ?_Getal@?$vector@V?$vector@NV?$allocator@N@std@@@std@@V?$allocator@V?$vector@NV?$allocator@N@std@@@std@@@2@@std@@AEBAAEBV?$allocator@V?$vector@NV?$allocator@N@std@@@std@@@2@XZ 00000001800371a0 f i priorityqueue_api.obj
 0001:000361c0       ?_Insert_new_node_before@?$_Hash@V?$_Umap_traits@HHV?$_Uhash_compare@HU?$hash@H@std@@U?$equal_to@H@2@@std@@V?$allocator@U?$pair@$$CBHH@std@@@2@$0A@@std@@@std@@IEAAPEAU?$_List_node@U?$pair@$$CBHH@std@@PEAX@2@_KQEAU32@1@Z 00000001800371c0 f i priorityqueue_api.obj
 0001:00036310       ?_Insert_new_node_before@?$_Hash@V?$_Umap_traits@HV?$vector@NV?$allocator@N@std@@@std@@V?$_Uhash_compare@HU?$hash@H@std@@U?$equal_to@H@2@@2@V?$allocator@U?$pair@$$CBHV?$vector@NV?$allocator@N@std@@@std@@@std@@@2@$0A@@std@@@std@@IEAAPEAU?$_List_node@U?$pair@$$CBHV?$vector@NV?$allocator@N@std@@@std@@@std@@PEAX@2@_KQEAU32@1@Z 0000000180037310 f i priorityqueue_api.obj
 0001:00036460       ?_Make_iter@?$list@U?$pair@$$CBHH@std@@V?$allocator@U?$pair@$$CBHH@std@@@2@@std@@QEBA?AV?$_List_iterator@V?$_List_val@U?$_List_simple_types@U?$pair@$$CBHH@std@@@std@@@std@@@2@PEAU?$_List_node@U?$pair@$$CBHH@std@@PEAX@2@@Z 0000000180037460 f i priorityqueue_api.obj
 0001:000364a0       ?_Make_iter@?$list@U?$pair@$$CBHV?$vector@NV?$allocator@N@std@@@std@@@std@@V?$allocator@U?$pair@$$CBHV?$vector@NV?$allocator@N@std@@@std@@@std@@@2@@std@@QEBA?AV?$_List_iterator@V?$_List_val@U?$_List_simple_types@U?$pair@$$CBHV?$vector@NV?$allocator@N@std@@@std@@@std@@@std@@@std@@@2@PEAU?$_List_node@U?$pair@$$CBHV?$vector@NV?$allocator@N@std@@@std@@@std@@PEAX@2@@Z 00000001800374a0 f i priorityqueue_api.obj
 0001:000364e0       ?_Max_bucket_size@?$_Hash@V?$_Umap_traits@HHV?$_Uhash_compare@HU?$hash@H@std@@U?$equal_to@H@2@@std@@V?$allocator@U?$pair@$$CBHH@std@@@2@$0A@@std@@@std@@IEAAAEAMXZ 00000001800374e0 f i priorityqueue_api.obj
 0001:00036500       ?_Max_bucket_size@?$_Hash@V?$_Umap_traits@HHV?$_Uhash_compare@HU?$hash@H@std@@U?$equal_to@H@2@@std@@V?$allocator@U?$pair@$$CBHH@std@@@2@$0A@@std@@@std@@IEBAAEBMXZ 0000000180037500 f i priorityqueue_api.obj
 0001:00036520       ?_Max_bucket_size@?$_Hash@V?$_Umap_traits@HV?$vector@NV?$allocator@N@std@@@std@@V?$_Uhash_compare@HU?$hash@H@std@@U?$equal_to@H@2@@2@V?$allocator@U?$pair@$$CBHV?$vector@NV?$allocator@N@std@@@std@@@std@@@2@$0A@@std@@@std@@IEAAAEAMXZ 0000000180037520 f i priorityqueue_api.obj
 0001:00036540       ?_Max_bucket_size@?$_Hash@V?$_Umap_traits@HV?$vector@NV?$allocator@N@std@@@std@@V?$_Uhash_compare@HU?$hash@H@std@@U?$equal_to@H@2@@2@V?$allocator@U?$pair@$$CBHV?$vector@NV?$allocator@N@std@@@std@@@std@@@2@$0A@@std@@@std@@IEBAAEBMXZ 0000000180037540 f i priorityqueue_api.obj
 0001:00036560       ?_Min_load_factor_buckets@?$_Hash@V?$_Umap_traits@HHV?$_Uhash_compare@HU?$hash@H@std@@U?$equal_to@H@2@@std@@V?$allocator@U?$pair@$$CBHH@std@@@2@$0A@@std@@@std@@IEBA_K_K@Z 0000000180037560 f i priorityqueue_api.obj
 0001:00036600       ?_Min_load_factor_buckets@?$_Hash@V?$_Umap_traits@HV?$vector@NV?$allocator@N@std@@@std@@V?$_Uhash_compare@HU?$hash@H@std@@U?$equal_to@H@2@@2@V?$allocator@U?$pair@$$CBHV?$vector@NV?$allocator@N@std@@@std@@@std@@@2@$0A@@std@@@std@@IEBA_K_K@Z 0000000180037600 f i priorityqueue_api.obj
 0001:000366a0       ?_Orphan_all@_Container_base0@std@@QEAAXXZ 00000001800376a0 f i priorityqueue_api.obj
 0001:000366b0       ?_Orphan_non_end@?$_List_val@U?$_List_simple_types@U?$pair@$$CBHH@std@@@std@@@std@@QEAAXXZ 00000001800376b0 f i priorityqueue_api.obj
 0001:000366c0       ?_Orphan_non_end@?$_List_val@U?$_List_simple_types@U?$pair@$$CBHV?$vector@NV?$allocator@N@std@@@std@@@std@@@std@@@std@@QEAAXXZ 00000001800376c0 f i priorityqueue_api.obj
 0001:000366d0       ?_Orphan_range@?$vector@U?$pair@HV?$vector@NV?$allocator@N@std@@@std@@@std@@V?$allocator@U?$pair@HV?$vector@NV?$allocator@N@std@@@std@@@std@@@2@@std@@AEBAXPEAU?$pair@HV?$vector@NV?$allocator@N@std@@@std@@@2@0@Z 00000001800376d0 f i priorityqueue_api.obj
 0001:000366e0       ?_Orphan_range@?$vector@V?$vector@NV?$allocator@N@std@@@std@@V?$allocator@V?$vector@NV?$allocator@N@std@@@std@@@2@@std@@AEBAXPEAV?$vector@NV?$allocator@N@std@@@2@0@Z 00000001800376e0 f i priorityqueue_api.obj
 0001:000366f0       ?_Pocma_both@?$_Hash@V?$_Umap_traits@HHV?$_Uhash_compare@HU?$hash@H@std@@U?$equal_to@H@2@@std@@V?$allocator@U?$pair@$$CBHH@std@@@2@$0A@@std@@@std@@AEAAXAEAV12@@Z 00000001800376f0 f i priorityqueue_api.obj
 0001:00036770       ?_Pocma_both@?$_Hash@V?$_Umap_traits@HV?$vector@NV?$allocator@N@std@@@std@@V?$_Uhash_compare@HU?$hash@H@std@@U?$equal_to@H@2@@2@V?$allocator@U?$pair@$$CBHV?$vector@NV?$allocator@N@std@@@std@@@std@@@2@$0A@@std@@@std@@AEAAXAEAV12@@Z 0000000180037770 f i priorityqueue_api.obj
 0001:000367f0       ?_Rehash_for_1@?$_Hash@V?$_Umap_traits@HHV?$_Uhash_compare@HU?$hash@H@std@@U?$equal_to@H@2@@std@@V?$allocator@U?$pair@$$CBHH@std@@@2@$0A@@std@@@std@@IEAAXXZ 00000001800377f0 f i priorityqueue_api.obj
 0001:00036840       ?_Rehash_for_1@?$_Hash@V?$_Umap_traits@HV?$vector@NV?$allocator@N@std@@@std@@V?$_Uhash_compare@HU?$hash@H@std@@U?$equal_to@H@2@@2@V?$allocator@U?$pair@$$CBHV?$vector@NV?$allocator@N@std@@@std@@@std@@@2@$0A@@std@@@std@@IEAAXXZ 0000000180037840 f i priorityqueue_api.obj
 0001:00036890       ?_Release@?$_Alloc_construct_ptr@V?$allocator@U?$_List_node@U?$pair@$$CBHH@std@@PEAX@std@@@std@@@std@@QEAAPEAU?$_List_node@U?$pair@$$CBHH@std@@PEAX@2@XZ 0000000180037890 f i priorityqueue_api.obj
 0001:000368c0       ?_Release@?$_Alloc_construct_ptr@V?$allocator@U?$_List_node@U?$pair@$$CBHV?$vector@NV?$allocator@N@std@@@std@@@std@@PEAX@std@@@std@@@std@@QEAAPEAU?$_List_node@U?$pair@$$CBHV?$vector@NV?$allocator@N@std@@@std@@@std@@PEAX@2@XZ 00000001800378c0 f i priorityqueue_api.obj
 0001:000368f0       ?_Release@?$_Uninitialized_backout@PEAV?$_List_unchecked_iterator@V?$_List_val@U?$_List_simple_types@U?$pair@$$CBHH@std@@@std@@@std@@@std@@@std@@QEAAPEAV?$_List_unchecked_iterator@V?$_List_val@U?$_List_simple_types@U?$pair@$$CBHH@std@@@std@@@std@@@2@XZ 00000001800378f0 f i priorityqueue_api.obj
 0001:00036910       ?_Release@?$_Uninitialized_backout@PEAV?$_List_unchecked_iterator@V?$_List_val@U?$_List_simple_types@U?$pair@$$CBHV?$vector@NV?$allocator@N@std@@@std@@@std@@@std@@@std@@@std@@@std@@QEAAPEAV?$_List_unchecked_iterator@V?$_List_val@U?$_List_simple_types@U?$pair@$$CBHV?$vector@NV?$allocator@N@std@@@std@@@std@@@std@@@std@@@2@XZ 0000000180037910 f i priorityqueue_api.obj
 0001:00036930       ?_Release@?$_Uninitialized_backout_al@V?$allocator@N@std@@@std@@QEAAPEANXZ 0000000180037930 f i priorityqueue_api.obj
 0001:00036950       ?_Release@?$_Uninitialized_backout_al@V?$allocator@U?$pair@HV?$vector@NV?$allocator@N@std@@@std@@@std@@@std@@@std@@QEAAPEAU?$pair@HV?$vector@NV?$allocator@N@std@@@std@@@2@XZ 0000000180037950 f i priorityqueue_api.obj
 0001:00036970       ?_Release@?$_Uninitialized_backout_al@V?$allocator@V?$vector@NV?$allocator@N@std@@@std@@@std@@@std@@QEAAPEAV?$vector@NV?$allocator@N@std@@@2@XZ 0000000180037970 f i priorityqueue_api.obj
 0001:00036990       ?_Release@_Fake_proxy_ptr_impl@std@@QEAAXXZ 0000000180037990 f i priorityqueue_api.obj
 0001:000369a0       ?_Swap_proxy_and_iterators@_Container_base0@std@@QEAAXAEAU12@@Z 00000001800379a0 f i priorityqueue_api.obj
 0001:000369b0       ?_Swap_val@?$_Hash@V?$_Umap_traits@HHV?$_Uhash_compare@HU?$hash@H@std@@U?$equal_to@H@2@@std@@V?$allocator@U?$pair@$$CBHH@std@@@2@$0A@@std@@@std@@AEAAXAEAV12@@Z 00000001800379b0 f i priorityqueue_api.obj
 0001:00036a30       ?_Swap_val@?$_Hash@V?$_Umap_traits@HV?$vector@NV?$allocator@N@std@@@std@@V?$_Uhash_compare@HU?$hash@H@std@@U?$equal_to@H@2@@2@V?$allocator@U?$pair@$$CBHV?$vector@NV?$allocator@N@std@@@std@@@std@@@2@$0A@@std@@@std@@AEAAXAEAV12@@Z 0000000180037a30 f i priorityqueue_api.obj
 0001:00036ab0       ?_Swap_val@?$_Vector_val@U?$_Simple_types@V?$_List_unchecked_iterator@V?$_List_val@U?$_List_simple_types@U?$pair@$$CBHH@std@@@std@@@std@@@std@@@std@@@std@@QEAAXAEAV12@@Z 0000000180037ab0 f i priorityqueue_api.obj
 0001:00036b20       ?_Swap_val@?$_Vector_val@U?$_Simple_types@V?$_List_unchecked_iterator@V?$_List_val@U?$_List_simple_types@U?$pair@$$CBHV?$vector@NV?$allocator@N@std@@@std@@@std@@@std@@@std@@@std@@@std@@@std@@QEAAXAEAV12@@Z 0000000180037b20 f i priorityqueue_api.obj
 0001:00036b90       ?_Swap_val@?$list@U?$pair@$$CBHH@std@@V?$allocator@U?$pair@$$CBHH@std@@@2@@std@@AEAAXAEAV12@@Z 0000000180037b90 f i priorityqueue_api.obj
 0001:00036c00       ?_Swap_val@?$list@U?$pair@$$CBHV?$vector@NV?$allocator@N@std@@@std@@@std@@V?$allocator@U?$pair@$$CBHV?$vector@NV?$allocator@N@std@@@std@@@std@@@2@@std@@AEAAXAEAV12@@Z 0000000180037c00 f i priorityqueue_api.obj
 0001:00036c70       ?_Take_contents@?$_Vector_val@U?$_Simple_types@N@std@@@std@@QEAAXAEAV12@@Z 0000000180037c70 f i priorityqueue_api.obj
 0001:00036cf0       ?_Take_contents@?$_Vector_val@U?$_Simple_types@U?$pair@HV?$vector@NV?$allocator@N@std@@@std@@@std@@@std@@@std@@QEAAXAEAV12@@Z 0000000180037cf0 f i priorityqueue_api.obj
 0001:00036d70       ?_Throw_bad_array_new_length@std@@YAXXZ 0000000180037d70 f i priorityqueue_api.obj
 0001:00036da0       ?_Tidy@?$_Hash_vec@V?$allocator@V?$_List_unchecked_iterator@V?$_List_val@U?$_List_simple_types@U?$pair@$$CBHH@std@@@std@@@std@@@std@@@std@@@std@@QEAAXXZ 0000000180037da0 f i priorityqueue_api.obj
 0001:00036e30       ?_Tidy@?$_Hash_vec@V?$allocator@V?$_List_unchecked_iterator@V?$_List_val@U?$_List_simple_types@U?$pair@$$CBHV?$vector@NV?$allocator@N@std@@@std@@@std@@@std@@@std@@@std@@@std@@@std@@QEAAXXZ 0000000180037e30 f i priorityqueue_api.obj
 0001:00036ec0       ?_Tidy@?$list@U?$pair@$$CBHH@std@@V?$allocator@U?$pair@$$CBHH@std@@@2@@std@@AEAAXXZ 0000000180037ec0 f i priorityqueue_api.obj
 0001:00036f20       ?_Tidy@?$list@U?$pair@$$CBHV?$vector@NV?$allocator@N@std@@@std@@@std@@V?$allocator@U?$pair@$$CBHV?$vector@NV?$allocator@N@std@@@std@@@std@@@2@@std@@AEAAXXZ 0000000180037f20 f i priorityqueue_api.obj
 0001:00036f80       ?_Tidy@?$vector@NV?$allocator@N@std@@@std@@AEAAXXZ 0000000180037f80 f i priorityqueue_api.obj
 0001:00037050       ?_Tidy@?$vector@U?$pair@HV?$vector@NV?$allocator@N@std@@@std@@@std@@V?$allocator@U?$pair@HV?$vector@NV?$allocator@N@std@@@std@@@std@@@2@@std@@AEAAXXZ 0000000180038050 f i priorityqueue_api.obj
 0001:00037120       ?_Tidy@?$vector@V?$vector@NV?$allocator@N@std@@@std@@V?$allocator@V?$vector@NV?$allocator@N@std@@@std@@@2@@std@@AEAAXXZ 0000000180038120 f i priorityqueue_api.obj
 0001:00037200       ?_Unchecked_begin@?$_Hash@V?$_Umap_traits@HHV?$_Uhash_compare@HU?$hash@H@std@@U?$equal_to@H@2@@std@@V?$allocator@U?$pair@$$CBHH@std@@@2@$0A@@std@@@std@@QEAA?AV?$_List_unchecked_iterator@V?$_List_val@U?$_List_simple_types@U?$pair@$$CBHH@std@@@std@@@std@@@2@XZ 0000000180038200 f i priorityqueue_api.obj
 0001:00037230       ?_Unchecked_begin@?$_Hash@V?$_Umap_traits@HV?$vector@NV?$allocator@N@std@@@std@@V?$_Uhash_compare@HU?$hash@H@std@@U?$equal_to@H@2@@2@V?$allocator@U?$pair@$$CBHV?$vector@NV?$allocator@N@std@@@std@@@std@@@2@$0A@@std@@@std@@QEAA?AV?$_List_unchecked_iterator@V?$_List_val@U?$_List_simple_types@U?$pair@$$CBHV?$vector@NV?$allocator@N@std@@@std@@@std@@@std@@@std@@@2@XZ 0000000180038230 f i priorityqueue_api.obj
 0001:00037260       ?_Unchecked_begin@?$list@U?$pair@$$CBHH@std@@V?$allocator@U?$pair@$$CBHH@std@@@2@@std@@QEAA?AV?$_List_unchecked_iterator@V?$_List_val@U?$_List_simple_types@U?$pair@$$CBHH@std@@@std@@@std@@@2@XZ 0000000180038260 f i priorityqueue_api.obj
 0001:00037290       ?_Unchecked_begin@?$list@U?$pair@$$CBHV?$vector@NV?$allocator@N@std@@@std@@@std@@V?$allocator@U?$pair@$$CBHV?$vector@NV?$allocator@N@std@@@std@@@std@@@2@@std@@QEAA?AV?$_List_unchecked_iterator@V?$_List_val@U?$_List_simple_types@U?$pair@$$CBHV?$vector@NV?$allocator@N@std@@@std@@@std@@@std@@@std@@@2@XZ 0000000180038290 f i priorityqueue_api.obj
 0001:000372c0       ?_Unchecked_begin@?$vector@NV?$allocator@N@std@@@std@@QEAAPEANXZ 00000001800382c0 f i priorityqueue_api.obj
 0001:000372d0       ?_Unchecked_end@?$_Hash@V?$_Umap_traits@HHV?$_Uhash_compare@HU?$hash@H@std@@U?$equal_to@H@2@@std@@V?$allocator@U?$pair@$$CBHH@std@@@2@$0A@@std@@@std@@QEAA?AV?$_List_unchecked_iterator@V?$_List_val@U?$_List_simple_types@U?$pair@$$CBHH@std@@@std@@@std@@@2@XZ 00000001800382d0 f i priorityqueue_api.obj
 0001:00037300       ?_Unchecked_end@?$_Hash@V?$_Umap_traits@HV?$vector@NV?$allocator@N@std@@@std@@V?$_Uhash_compare@HU?$hash@H@std@@U?$equal_to@H@2@@2@V?$allocator@U?$pair@$$CBHV?$vector@NV?$allocator@N@std@@@std@@@std@@@2@$0A@@std@@@std@@QEAA?AV?$_List_unchecked_iterator@V?$_List_val@U?$_List_simple_types@U?$pair@$$CBHV?$vector@NV?$allocator@N@std@@@std@@@std@@@std@@@std@@@2@XZ 0000000180038300 f i priorityqueue_api.obj
 0001:00037330       ?_Unchecked_end@?$list@U?$pair@$$CBHH@std@@V?$allocator@U?$pair@$$CBHH@std@@@2@@std@@QEAA?AV?$_List_unchecked_iterator@V?$_List_val@U?$_List_simple_types@U?$pair@$$CBHH@std@@@std@@@std@@@2@XZ 0000000180038330 f i priorityqueue_api.obj
 0001:00037360       ?_Unchecked_end@?$list@U?$pair@$$CBHV?$vector@NV?$allocator@N@std@@@std@@@std@@V?$allocator@U?$pair@$$CBHV?$vector@NV?$allocator@N@std@@@std@@@std@@@2@@std@@QEAA?AV?$_List_unchecked_iterator@V?$_List_val@U?$_List_simple_types@U?$pair@$$CBHV?$vector@NV?$allocator@N@std@@@std@@@std@@@std@@@std@@@2@XZ 0000000180038360 f i priorityqueue_api.obj
 0001:00037390       ?_Unchecked_end@?$vector@NV?$allocator@N@std@@@std@@QEAAPEANXZ 0000000180038390 f i priorityqueue_api.obj
 0001:000373a0       ?_Unchecked_erase@?$_Hash@V?$_Umap_traits@HHV?$_Uhash_compare@HU?$hash@H@std@@U?$equal_to@H@2@@std@@V?$allocator@U?$pair@$$CBHH@std@@@2@$0A@@std@@@std@@AEAAPEAU?$_List_node@U?$pair@$$CBHH@std@@PEAX@2@PEAU32@QEAU32@@Z 00000001800383a0 f i priorityqueue_api.obj
 0001:000376b0       ?_Unchecked_erase@?$_Hash@V?$_Umap_traits@HV?$vector@NV?$allocator@N@std@@@std@@V?$_Uhash_compare@HU?$hash@H@std@@U?$equal_to@H@2@@2@V?$allocator@U?$pair@$$CBHV?$vector@NV?$allocator@N@std@@@std@@@std@@@2@$0A@@std@@@std@@AEAAPEAU?$_List_node@U?$pair@$$CBHV?$vector@NV?$allocator@N@std@@@std@@@std@@PEAX@2@PEAU32@QEAU32@@Z 00000001800386b0 f i priorityqueue_api.obj
 0001:000379c0       ?_Unchecked_splice@?$_List_val@U?$_List_simple_types@U?$pair@$$CBHH@std@@@std@@@std@@SAPEAU?$_List_node@U?$pair@$$CBHH@std@@PEAX@2@QEAU32@00@Z 00000001800389c0 f i priorityqueue_api.obj
 0001:00037a60       ?_Unchecked_splice@?$_List_val@U?$_List_simple_types@U?$pair@$$CBHV?$vector@NV?$allocator@N@std@@@std@@@std@@@std@@@std@@SAPEAU?$_List_node@U?$pair@$$CBHV?$vector@NV?$allocator@N@std@@@std@@@std@@PEAX@2@QEAU32@00@Z 0000000180038a60 f i priorityqueue_api.obj
 0001:00037b00       ?_Unwrapped@?$_Vector_iterator@V?$_Vector_val@U?$_Simple_types@U?$pair@HV?$vector@NV?$allocator@N@std@@@std@@@std@@@std@@@std@@@std@@QEBAPEAU?$pair@HV?$vector@NV?$allocator@N@std@@@std@@@2@XZ 0000000180038b00 f i priorityqueue_api.obj
 0001:00037b20       ?_Xlength@?$vector@NV?$allocator@N@std@@@std@@CAXXZ 0000000180038b20 f i priorityqueue_api.obj
 0001:00037b40       ?_Xlength@?$vector@U?$pair@HV?$vector@NV?$allocator@N@std@@@std@@@std@@V?$allocator@U?$pair@HV?$vector@NV?$allocator@N@std@@@std@@@std@@@2@@std@@CAXXZ 0000000180038b40 f i priorityqueue_api.obj
 0001:00037b60       ?_Xlength@?$vector@V?$vector@NV?$allocator@N@std@@@std@@V?$allocator@V?$vector@NV?$allocator@N@std@@@std@@@2@@std@@CAXXZ 0000000180038b60 f i priorityqueue_api.obj
 0001:00037b80       ?allocate@?$allocator@N@std@@QEAAPEAN_K@Z 0000000180038b80 f i priorityqueue_api.obj
 0001:00037bb0       ?allocate@?$allocator@U?$_List_node@U?$pair@$$CBHH@std@@PEAX@std@@@std@@QEAAPEAU?$_List_node@U?$pair@$$CBHH@std@@PEAX@2@_K@Z 0000000180038bb0 f i priorityqueue_api.obj
 0001:00037be0       ?allocate@?$allocator@U?$_List_node@U?$pair@$$CBHV?$vector@NV?$allocator@N@std@@@std@@@std@@PEAX@std@@@std@@QEAAPEAU?$_List_node@U?$pair@$$CBHV?$vector@NV?$allocator@N@std@@@std@@@std@@PEAX@2@_K@Z 0000000180038be0 f i priorityqueue_api.obj
 0001:00037c10       ?allocate@?$allocator@U?$pair@HV?$vector@NV?$allocator@N@std@@@std@@@std@@@std@@QEAAPEAU?$pair@HV?$vector@NV?$allocator@N@std@@@std@@@2@_K@Z 0000000180038c10 f i priorityqueue_api.obj
 0001:00037c40       ?allocate@?$allocator@V?$_List_unchecked_iterator@V?$_List_val@U?$_List_simple_types@U?$pair@$$CBHH@std@@@std@@@std@@@std@@@std@@QEAAPEAV?$_List_unchecked_iterator@V?$_List_val@U?$_List_simple_types@U?$pair@$$CBHH@std@@@std@@@std@@@2@_K@Z 0000000180038c40 f i priorityqueue_api.obj
 0001:00037c70       ?allocate@?$allocator@V?$_List_unchecked_iterator@V?$_List_val@U?$_List_simple_types@U?$pair@$$CBHV?$vector@NV?$allocator@N@std@@@std@@@std@@@std@@@std@@@std@@@std@@QEAAPEAV?$_List_unchecked_iterator@V?$_List_val@U?$_List_simple_types@U?$pair@$$CBHV?$vector@NV?$allocator@N@std@@@std@@@std@@@std@@@std@@@2@_K@Z 0000000180038c70 f i priorityqueue_api.obj
 0001:00037ca0       ?allocate@?$allocator@V?$vector@NV?$allocator@N@std@@@std@@@std@@QEAAPEAV?$vector@NV?$allocator@N@std@@@2@_K@Z 0000000180038ca0 f i priorityqueue_api.obj
 0001:00037cd0       ?begin@?$vector@U?$pair@HV?$vector@NV?$allocator@N@std@@@std@@@std@@V?$allocator@U?$pair@HV?$vector@NV?$allocator@N@std@@@std@@@std@@@2@@std@@QEAA?AV?$_Vector_iterator@V?$_Vector_val@U?$_Simple_types@U?$pair@HV?$vector@NV?$allocator@N@std@@@std@@@std@@@std@@@std@@@2@XZ 0000000180038cd0 f i priorityqueue_api.obj
 0001:00037d20       ?begin@?$vector@V?$vector@NV?$allocator@N@std@@@std@@V?$allocator@V?$vector@NV?$allocator@N@std@@@std@@@2@@std@@QEAA?AV?$_Vector_iterator@V?$_Vector_val@U?$_Simple_types@V?$vector@NV?$allocator@N@std@@@std@@@std@@@std@@@2@XZ 0000000180038d20 f i priorityqueue_api.obj
 0001:00037d70       ?bucket@?$_Hash@V?$_Umap_traits@HHV?$_Uhash_compare@HU?$hash@H@std@@U?$equal_to@H@2@@std@@V?$allocator@U?$pair@$$CBHH@std@@@2@$0A@@std@@@std@@QEBA_KAEBH@Z 0000000180038d70 f i priorityqueue_api.obj
 0001:00037da0       ?bucket@?$_Hash@V?$_Umap_traits@HV?$vector@NV?$allocator@N@std@@@std@@V?$_Uhash_compare@HU?$hash@H@std@@U?$equal_to@H@2@@2@V?$allocator@U?$pair@$$CBHV?$vector@NV?$allocator@N@std@@@std@@@std@@@2@$0A@@std@@@std@@QEBA_KAEBH@Z 0000000180038da0 f i priorityqueue_api.obj
 0001:00037dd0       ?bucket_count@?$_Hash@V?$_Umap_traits@HHV?$_Uhash_compare@HU?$hash@H@std@@U?$equal_to@H@2@@std@@V?$allocator@U?$pair@$$CBHH@std@@@2@$0A@@std@@@std@@QEBA_KXZ 0000000180038dd0 f i priorityqueue_api.obj
 0001:00037de0       ?bucket_count@?$_Hash@V?$_Umap_traits@HV?$vector@NV?$allocator@N@std@@@std@@V?$_Uhash_compare@HU?$hash@H@std@@U?$equal_to@H@2@@2@V?$allocator@U?$pair@$$CBHV?$vector@NV?$allocator@N@std@@@std@@@std@@@2@$0A@@std@@@std@@QEBA_KXZ 0000000180038de0 f i priorityqueue_api.obj
 0001:00037df0       ?capacity@?$_Hash_vec@V?$allocator@V?$_List_unchecked_iterator@V?$_List_val@U?$_List_simple_types@U?$pair@$$CBHH@std@@@std@@@std@@@std@@@std@@@std@@QEBA_KXZ 0000000180038df0 f i priorityqueue_api.obj
 0001:00037e10       ?capacity@?$_Hash_vec@V?$allocator@V?$_List_unchecked_iterator@V?$_List_val@U?$_List_simple_types@U?$pair@$$CBHV?$vector@NV?$allocator@N@std@@@std@@@std@@@std@@@std@@@std@@@std@@@std@@QEBA_KXZ 0000000180038e10 f i priorityqueue_api.obj
 0001:00037e30       ?capacity@?$vector@U?$pair@HV?$vector@NV?$allocator@N@std@@@std@@@std@@V?$allocator@U?$pair@HV?$vector@NV?$allocator@N@std@@@std@@@std@@@2@@std@@QEBA_KXZ 0000000180038e30 f i priorityqueue_api.obj
 0001:00037e60       ?capacity@?$vector@V?$vector@NV?$allocator@N@std@@@std@@V?$allocator@V?$vector@NV?$allocator@N@std@@@std@@@2@@std@@QEBA_KXZ 0000000180038e60 f i priorityqueue_api.obj
 0001:00037ea0       ?clear@?$_Hash@V?$_Umap_traits@HHV?$_Uhash_compare@HU?$hash@H@std@@U?$equal_to@H@2@@std@@V?$allocator@U?$pair@$$CBHH@std@@@2@$0A@@std@@@std@@QEAAXXZ 0000000180038ea0 f i priorityqueue_api.obj
 0001:00037f50       ?clear@?$_Hash@V?$_Umap_traits@HV?$vector@NV?$allocator@N@std@@@std@@V?$_Uhash_compare@HU?$hash@H@std@@U?$equal_to@H@2@@2@V?$allocator@U?$pair@$$CBHV?$vector@NV?$allocator@N@std@@@std@@@std@@@2@$0A@@std@@@std@@QEAAXXZ 0000000180038f50 f i priorityqueue_api.obj
 0001:00038000       ?clear@?$list@U?$pair@$$CBHH@std@@V?$allocator@U?$pair@$$CBHH@std@@@2@@std@@QEAAXXZ 0000000180039000 f i priorityqueue_api.obj
 0001:00038070       ?clear@?$list@U?$pair@$$CBHV?$vector@NV?$allocator@N@std@@@std@@@std@@V?$allocator@U?$pair@$$CBHV?$vector@NV?$allocator@N@std@@@std@@@std@@@2@@std@@QEAAXXZ 0000000180039070 f i priorityqueue_api.obj
 0001:000380e0       ?deallocate@?$_Default_allocator_traits@V?$allocator@U?$_List_node@U?$pair@$$CBHH@std@@PEAX@std@@@std@@@std@@SAXAEAV?$allocator@U?$_List_node@U?$pair@$$CBHH@std@@PEAX@std@@@2@QEAU?$_List_node@U?$pair@$$CBHH@std@@PEAX@2@_K@Z 00000001800390e0 f i priorityqueue_api.obj
 0001:00038110       ?deallocate@?$_Default_allocator_traits@V?$allocator@U?$_List_node@U?$pair@$$CBHV?$vector@NV?$allocator@N@std@@@std@@@std@@PEAX@std@@@std@@@std@@SAXAEAV?$allocator@U?$_List_node@U?$pair@$$CBHV?$vector@NV?$allocator@N@std@@@std@@@std@@PEAX@std@@@2@QEAU?$_List_node@U?$pair@$$CBHV?$vector@NV?$allocator@N@std@@@std@@@std@@PEAX@2@_K@Z 0000000180039110 f i priorityqueue_api.obj
 0001:00038140       ?deallocate@?$allocator@N@std@@QEAAXQEAN_K@Z 0000000180039140 f i priorityqueue_api.obj
 0001:00038170       ?deallocate@?$allocator@U?$_List_node@U?$pair@$$CBHH@std@@PEAX@std@@@std@@QEAAXQEAU?$_List_node@U?$pair@$$CBHH@std@@PEAX@2@_K@Z 0000000180039170 f i priorityqueue_api.obj
 0001:000381a0       ?deallocate@?$allocator@U?$_List_node@U?$pair@$$CBHV?$vector@NV?$allocator@N@std@@@std@@@std@@PEAX@std@@@std@@QEAAXQEAU?$_List_node@U?$pair@$$CBHV?$vector@NV?$allocator@N@std@@@std@@@std@@PEAX@2@_K@Z 00000001800391a0 f i priorityqueue_api.obj
 0001:000381d0       ?deallocate@?$allocator@U?$pair@HV?$vector@NV?$allocator@N@std@@@std@@@std@@@std@@QEAAXQEAU?$pair@HV?$vector@NV?$allocator@N@std@@@std@@@2@_K@Z 00000001800391d0 f i priorityqueue_api.obj
 0001:00038200       ?deallocate@?$allocator@V?$_List_unchecked_iterator@V?$_List_val@U?$_List_simple_types@U?$pair@$$CBHH@std@@@std@@@std@@@std@@@std@@QEAAXQEAV?$_List_unchecked_iterator@V?$_List_val@U?$_List_simple_types@U?$pair@$$CBHH@std@@@std@@@std@@@2@_K@Z 0000000180039200 f i priorityqueue_api.obj
 0001:00038230       ?deallocate@?$allocator@V?$_List_unchecked_iterator@V?$_List_val@U?$_List_simple_types@U?$pair@$$CBHV?$vector@NV?$allocator@N@std@@@std@@@std@@@std@@@std@@@std@@@std@@QEAAXQEAV?$_List_unchecked_iterator@V?$_List_val@U?$_List_simple_types@U?$pair@$$CBHV?$vector@NV?$allocator@N@std@@@std@@@std@@@std@@@std@@@2@_K@Z 0000000180039230 f i priorityqueue_api.obj
 0001:00038260       ?deallocate@?$allocator@V?$vector@NV?$allocator@N@std@@@std@@@std@@QEAAXQEAV?$vector@NV?$allocator@N@std@@@2@_K@Z 0000000180039260 f i priorityqueue_api.obj
 0001:00038290       ?empty@?$priority_queue@U?$pair@HV?$vector@NV?$allocator@N@std@@@std@@@std@@V?$vector@U?$pair@HV?$vector@NV?$allocator@N@std@@@std@@@std@@V?$allocator@U?$pair@HV?$vector@NV?$allocator@N@std@@@std@@@std@@@2@@2@Ucomparator@PriorityQueueImpl@nav@@@std@@QEBA_NXZ 0000000180039290 f i priorityqueue_api.obj
 0001:000382b0       ?empty@?$vector@U?$pair@HV?$vector@NV?$allocator@N@std@@@std@@@std@@V?$allocator@U?$pair@HV?$vector@NV?$allocator@N@std@@@std@@@std@@@2@@std@@QEBA_NXZ 00000001800392b0 f i priorityqueue_api.obj
 0001:000382f0       ?empty@?$vector@V?$vector@NV?$allocator@N@std@@@std@@V?$allocator@V?$vector@NV?$allocator@N@std@@@std@@@2@@std@@QEBA_NXZ 00000001800392f0 f i priorityqueue_api.obj
 0001:00038330       ?end@?$_Hash@V?$_Umap_traits@HHV?$_Uhash_compare@HU?$hash@H@std@@U?$equal_to@H@2@@std@@V?$allocator@U?$pair@$$CBHH@std@@@2@$0A@@std@@@std@@QEAA?AV?$_List_iterator@V?$_List_val@U?$_List_simple_types@U?$pair@$$CBHH@std@@@std@@@std@@@2@XZ 0000000180039330 f i priorityqueue_api.obj
 0001:00038360       ?end@?$_Hash@V?$_Umap_traits@HV?$vector@NV?$allocator@N@std@@@std@@V?$_Uhash_compare@HU?$hash@H@std@@U?$equal_to@H@2@@2@V?$allocator@U?$pair@$$CBHV?$vector@NV?$allocator@N@std@@@std@@@std@@@2@$0A@@std@@@std@@QEAA?AV?$_List_iterator@V?$_List_val@U?$_List_simple_types@U?$pair@$$CBHV?$vector@NV?$allocator@N@std@@@std@@@std@@@std@@@std@@@2@XZ 0000000180039360 f i priorityqueue_api.obj
 0001:00038390       ?end@?$list@U?$pair@$$CBHH@std@@V?$allocator@U?$pair@$$CBHH@std@@@2@@std@@QEAA?AV?$_List_iterator@V?$_List_val@U?$_List_simple_types@U?$pair@$$CBHH@std@@@std@@@std@@@2@XZ 0000000180039390 f i priorityqueue_api.obj
 0001:000383d0       ?end@?$list@U?$pair@$$CBHV?$vector@NV?$allocator@N@std@@@std@@@std@@V?$allocator@U?$pair@$$CBHV?$vector@NV?$allocator@N@std@@@std@@@std@@@2@@std@@QEAA?AV?$_List_iterator@V?$_List_val@U?$_List_simple_types@U?$pair@$$CBHV?$vector@NV?$allocator@N@std@@@std@@@std@@@std@@@std@@@2@XZ 00000001800393d0 f i priorityqueue_api.obj
 0001:00038410       ?end@?$vector@U?$pair@HV?$vector@NV?$allocator@N@std@@@std@@@std@@V?$allocator@U?$pair@HV?$vector@NV?$allocator@N@std@@@std@@@std@@@2@@std@@QEAA?AV?$_Vector_iterator@V?$_Vector_val@U?$_Simple_types@U?$pair@HV?$vector@NV?$allocator@N@std@@@std@@@std@@@std@@@std@@@2@XZ 0000000180039410 f i priorityqueue_api.obj
 0001:00038460       ?end@?$vector@V?$vector@NV?$allocator@N@std@@@std@@V?$allocator@V?$vector@NV?$allocator@N@std@@@std@@@2@@std@@QEAA?AV?$_Vector_iterator@V?$_Vector_val@U?$_Simple_types@V?$vector@NV?$allocator@N@std@@@std@@@std@@@std@@@2@XZ 0000000180039460 f i priorityqueue_api.obj
 0001:000384b0       ?front@?$vector@U?$pair@HV?$vector@NV?$allocator@N@std@@@std@@@std@@V?$allocator@U?$pair@HV?$vector@NV?$allocator@N@std@@@std@@@std@@@2@@std@@QEBAAEBU?$pair@HV?$vector@NV?$allocator@N@std@@@std@@@2@XZ 00000001800394b0 f i priorityqueue_api.obj
 0001:000384d0       ?getData@SimpleMap@nav@@QEAA?AV?$vector@NV?$allocator@N@std@@@std@@H@Z 00000001800394d0 f i priorityqueue_api.obj
 0001:000385b0       ?getDataDim@NodeMap@nav@@QEAAHXZ 00000001800395b0 f i priorityqueue_api.obj
 0001:000385d0       ?getDataDim@PriorityQueueImpl@nav@@QEAAHXZ 00000001800395d0 f i priorityqueue_api.obj
 0001:000385e0       ?getDataDim@SimpleMap@nav@@QEAAHXZ 00000001800395e0 f i priorityqueue_api.obj
 0001:000385f0       ?getNodeData@NodeMap@nav@@QEAA?AV?$vector@NV?$allocator@N@std@@@std@@HAEAH@Z 00000001800395f0 f i priorityqueue_api.obj
 0001:00038700       ?getNumNodes@NodeMap@nav@@QEAA_KXZ 0000000180039700 f i priorityqueue_api.obj
 0001:00038720       ?getSize@SimpleMap@nav@@QEAA_KXZ 0000000180039720 f i priorityqueue_api.obj
 0001:00038740       ?insertData@SimpleMap@nav@@QEAAXHPEBN@Z 0000000180039740 f i priorityqueue_api.obj
 0001:000387d0       ?insertNode@NodeMap@nav@@QEAAHPEBNH@Z 00000001800397d0 f i priorityqueue_api.obj
 0001:000388d0       ?isEmpty@PriorityQueueImpl@nav@@QEAA_NXZ 00000001800398d0 f i priorityqueue_api.obj
 0001:00038910       ?max@?$numeric_limits@_J@std@@SA_JXZ 0000000180039910 f i priorityqueue_api.obj
 0001:00038920       ?max_load_factor@?$_Hash@V?$_Umap_traits@HHV?$_Uhash_compare@HU?$hash@H@std@@U?$equal_to@H@2@@std@@V?$allocator@U?$pair@$$CBHH@std@@@2@$0A@@std@@@std@@QEBAMXZ 0000000180039920 f i priorityqueue_api.obj
 0001:00038940       ?max_load_factor@?$_Hash@V?$_Umap_traits@HV?$vector@NV?$allocator@N@std@@@std@@V?$_Uhash_compare@HU?$hash@H@std@@U?$equal_to@H@2@@2@V?$allocator@U?$pair@$$CBHV?$vector@NV?$allocator@N@std@@@std@@@std@@@2@$0A@@std@@@std@@QEBAMXZ 0000000180039940 f i priorityqueue_api.obj
 0001:00038960       ?max_size@?$_Default_allocator_traits@V?$allocator@N@std@@@std@@SA_KAEBV?$allocator@N@2@@Z 0000000180039960 f i priorityqueue_api.obj
 0001:00038970       ?max_size@?$_Default_allocator_traits@V?$allocator@U?$_List_node@U?$pair@$$CBHH@std@@PEAX@std@@@std@@@std@@SA_KAEBV?$allocator@U?$_List_node@U?$pair@$$CBHH@std@@PEAX@std@@@2@@Z 0000000180039970 f i priorityqueue_api.obj
 0001:00038980       ?max_size@?$_Default_allocator_traits@V?$allocator@U?$_List_node@U?$pair@$$CBHV?$vector@NV?$allocator@N@std@@@std@@@std@@PEAX@std@@@std@@@std@@SA_KAEBV?$allocator@U?$_List_node@U?$pair@$$CBHV?$vector@NV?$allocator@N@std@@@std@@@std@@PEAX@std@@@2@@Z 0000000180039980 f i priorityqueue_api.obj
 0001:00038990       ?max_size@?$_Default_allocator_traits@V?$allocator@U?$pair@HV?$vector@NV?$allocator@N@std@@@std@@@std@@@std@@@std@@SA_KAEBV?$allocator@U?$pair@HV?$vector@NV?$allocator@N@std@@@std@@@std@@@2@@Z 0000000180039990 f i priorityqueue_api.obj
 0001:000389a0       ?max_size@?$_Default_allocator_traits@V?$allocator@V?$_List_unchecked_iterator@V?$_List_val@U?$_List_simple_types@U?$pair@$$CBHH@std@@@std@@@std@@@std@@@std@@@std@@SA_KAEBV?$allocator@V?$_List_unchecked_iterator@V?$_List_val@U?$_List_simple_types@U?$pair@$$CBHH@std@@@std@@@std@@@std@@@2@@Z 00000001800399a0 f i priorityqueue_api.obj
 0001:000389b0       ?max_size@?$_Default_allocator_traits@V?$allocator@V?$_List_unchecked_iterator@V?$_List_val@U?$_List_simple_types@U?$pair@$$CBHV?$vector@NV?$allocator@N@std@@@std@@@std@@@std@@@std@@@std@@@std@@@std@@SA_KAEBV?$allocator@V?$_List_unchecked_iterator@V?$_List_val@U?$_List_simple_types@U?$pair@$$CBHV?$vector@NV?$allocator@N@std@@@std@@@std@@@std@@@std@@@std@@@2@@Z 00000001800399b0 f i priorityqueue_api.obj
 0001:000389c0       ?max_size@?$_Default_allocator_traits@V?$allocator@V?$vector@NV?$allocator@N@std@@@std@@@std@@@std@@SA_KAEBV?$allocator@V?$vector@NV?$allocator@N@std@@@std@@@2@@Z 00000001800399c0 f i priorityqueue_api.obj
 0001:000389d0       ?max_size@?$_Hash_vec@V?$allocator@V?$_List_unchecked_iterator@V?$_List_val@U?$_List_simple_types@U?$pair@$$CBHH@std@@@std@@@std@@@std@@@std@@@std@@QEBA_KXZ 00000001800399d0 f i priorityqueue_api.obj
 0001:00038a20       ?max_size@?$_Hash_vec@V?$allocator@V?$_List_unchecked_iterator@V?$_List_val@U?$_List_simple_types@U?$pair@$$CBHV?$vector@NV?$allocator@N@std@@@std@@@std@@@std@@@std@@@std@@@std@@@std@@QEBA_KXZ 0000000180039a20 f i priorityqueue_api.obj
 0001:00038a70       ?max_size@?$list@U?$pair@$$CBHH@std@@V?$allocator@U?$pair@$$CBHH@std@@@2@@std@@QEBA_KXZ 0000000180039a70 f i priorityqueue_api.obj
 0001:00038ac0       ?max_size@?$list@U?$pair@$$CBHV?$vector@NV?$allocator@N@std@@@std@@@std@@V?$allocator@U?$pair@$$CBHV?$vector@NV?$allocator@N@std@@@std@@@std@@@2@@std@@QEBA_KXZ 0000000180039ac0 f i priorityqueue_api.obj
 0001:00038b10       ?max_size@?$vector@NV?$allocator@N@std@@@std@@QEBA_KXZ 0000000180039b10 f i priorityqueue_api.obj
 0001:00038b60       ?max_size@?$vector@U?$pair@HV?$vector@NV?$allocator@N@std@@@std@@@std@@V?$allocator@U?$pair@HV?$vector@NV?$allocator@N@std@@@std@@@std@@@2@@std@@QEBA_KXZ 0000000180039b60 f i priorityqueue_api.obj
 0001:00038bb0       ?max_size@?$vector@V?$vector@NV?$allocator@N@std@@@std@@V?$allocator@V?$vector@NV?$allocator@N@std@@@std@@@2@@std@@QEBA_KXZ 0000000180039bb0 f i priorityqueue_api.obj
 0001:00038c00       ?pop@?$priority_queue@U?$pair@HV?$vector@NV?$allocator@N@std@@@std@@@std@@V?$vector@U?$pair@HV?$vector@NV?$allocator@N@std@@@std@@@std@@V?$allocator@U?$pair@HV?$vector@NV?$allocator@N@std@@@std@@@std@@@2@@2@Ucomparator@PriorityQueueImpl@nav@@@std@@QEAAXXZ 0000000180039c00 f i priorityqueue_api.obj
 0001:00038c80       ?pop@PriorityQueueImpl@nav@@QEAAXXZ 0000000180039c80 f i priorityqueue_api.obj
 0001:00038cc0       ?pop_back@?$vector@U?$pair@HV?$vector@NV?$allocator@N@std@@@std@@@std@@V?$allocator@U?$pair@HV?$vector@NV?$allocator@N@std@@@std@@@std@@@2@@std@@QEAAXXZ 0000000180039cc0 f i priorityqueue_api.obj
 0001:00038d50       ?push@PriorityQueueImpl@nav@@QEAAHPEBN@Z 0000000180039d50 f i priorityqueue_api.obj
 0001:00038df0       ?push_back@?$vector@V?$vector@NV?$allocator@N@std@@@std@@V?$allocator@V?$vector@NV?$allocator@N@std@@@std@@@2@@std@@QEAAXAEBV?$vector@NV?$allocator@N@std@@@2@@Z 0000000180039df0 f i priorityqueue_api.obj
 0001:00038e20       ?quiet_NaN@?$numeric_limits@N@std@@SANXZ 0000000180039e20 f i priorityqueue_api.obj
 0001:00038e30       ?select_on_container_copy_construction@?$_Default_allocator_traits@V?$allocator@N@std@@@std@@SA?AV?$allocator@N@2@AEBV32@@Z 0000000180039e30 f i priorityqueue_api.obj
 0001:00038e40       ?size@?$_Hash@V?$_Umap_traits@HV?$vector@NV?$allocator@N@std@@@std@@V?$_Uhash_compare@HU?$hash@H@std@@U?$equal_to@H@2@@2@V?$allocator@U?$pair@$$CBHV?$vector@NV?$allocator@N@std@@@std@@@std@@@2@$0A@@std@@@std@@QEBA_KXZ 0000000180039e40 f i priorityqueue_api.obj
 0001:00038e60       ?size@?$_Hash_vec@V?$allocator@V?$_List_unchecked_iterator@V?$_List_val@U?$_List_simple_types@U?$pair@$$CBHH@std@@@std@@@std@@@std@@@std@@@std@@QEBA_KXZ 0000000180039e60 f i priorityqueue_api.obj
 0001:00038e80       ?size@?$_Hash_vec@V?$allocator@V?$_List_unchecked_iterator@V?$_List_val@U?$_List_simple_types@U?$pair@$$CBHV?$vector@NV?$allocator@N@std@@@std@@@std@@@std@@@std@@@std@@@std@@@std@@QEBA_KXZ 0000000180039e80 f i priorityqueue_api.obj
 0001:00038ea0       ?size@?$list@U?$pair@$$CBHV?$vector@NV?$allocator@N@std@@@std@@@std@@V?$allocator@U?$pair@$$CBHV?$vector@NV?$allocator@N@std@@@std@@@std@@@2@@std@@QEBA_KXZ 0000000180039ea0 f i priorityqueue_api.obj
 0001:00038eb0       ?size@?$priority_queue@U?$pair@HV?$vector@NV?$allocator@N@std@@@std@@@std@@V?$vector@U?$pair@HV?$vector@NV?$allocator@N@std@@@std@@@std@@V?$allocator@U?$pair@HV?$vector@NV?$allocator@N@std@@@std@@@std@@@2@@2@Ucomparator@PriorityQueueImpl@nav@@@std@@QEBA_KXZ 0000000180039eb0 f i priorityqueue_api.obj
 0001:00038ed0       ?size@?$vector@NV?$allocator@N@std@@@std@@QEBA_KXZ 0000000180039ed0 f i priorityqueue_api.obj
 0001:00038f00       ?size@?$vector@U?$pair@HV?$vector@NV?$allocator@N@std@@@std@@@std@@V?$allocator@U?$pair@HV?$vector@NV?$allocator@N@std@@@std@@@std@@@2@@std@@QEBA_KXZ 0000000180039f00 f i priorityqueue_api.obj
 0001:00038f30       ?size@?$vector@V?$vector@NV?$allocator@N@std@@@std@@V?$allocator@V?$vector@NV?$allocator@N@std@@@std@@@2@@std@@QEBA_KXZ 0000000180039f30 f i priorityqueue_api.obj
 0001:00038f70       ?size@PriorityQueueImpl@nav@@QEAAHXZ 0000000180039f70 f i priorityqueue_api.obj
 0001:00038f90       ?top@?$priority_queue@U?$pair@HV?$vector@NV?$allocator@N@std@@@std@@@std@@V?$vector@U?$pair@HV?$vector@NV?$allocator@N@std@@@std@@@std@@V?$allocator@U?$pair@HV?$vector@NV?$allocator@N@std@@@std@@@std@@@2@@2@Ucomparator@PriorityQueueImpl@nav@@@std@@QEBAAEBU?$pair@HV?$vector@NV?$allocator@N@std@@@std@@@2@XZ 0000000180039f90 f i priorityqueue_api.obj
 0001:00038fb0       ?top@PriorityQueueImpl@nav@@QEAA?AU?$pair@HV?$vector@NV?$allocator@N@std@@@std@@@std@@XZ 0000000180039fb0 f i priorityqueue_api.obj
 0001:00039090       ?traceBack@NodeMap@nav@@QEAA?AV?$vector@V?$vector@NV?$allocator@N@std@@@std@@V?$allocator@V?$vector@NV?$allocator@N@std@@@std@@@2@@std@@H@Z 000000018003a090 f i priorityqueue_api.obj
 0001:000391b0       ?what@exception@std@@UEBAPEBDXZ 000000018003a1b0 f i priorityqueue_api.obj
 0001:000391f0       getBitfieldFromFloat       000000018003a1f0 f   half_type.obj
 0001:00039220       getFloatFromBitfield       000000018003a220 f   half_type.obj
 0001:00039250       getBitfieldFromHalf        000000018003a250 f   half_type.obj
 0001:00039270       getHalfFromBitfield        000000018003a270 f   half_type.obj
 0001:000392a0       halfToFloat                000000018003a2a0 f   half_type.obj
 0001:00039420       halfToDouble               000000018003a420 f   half_type.obj
 0001:00039450       floatToHalf                000000018003a450 f   half_type.obj
 0001:000396b0       doubleToHalf               000000018003a6b0 f   half_type.obj
 0001:0003999b       sf_load_rtw_optimization_info 000000018003a99b f   sf_runtime:sf_runtime.dll
 0001:000399a1       sf_mex_decode              000000018003a9a1 f   sf_runtime:sf_runtime.dll
 0001:000399a7       sf_init_ChartRunTimeInfo   000000018003a9a7 f   sf_runtime:sf_runtime.dll
 0001:000399ad       sf_free_ChartRunTimeInfo   000000018003a9ad f   sf_runtime:sf_runtime.dll
 0001:000399b3       sf_reset_warnings_ChartRunTimeInfo 000000018003a9b3 f   sf_runtime:sf_runtime.dll
 0001:000399b9       sfrtGetEmlrtCtx            000000018003a9b9 f   sf_runtime:sf_runtime.dll
 0001:000399bf       sfrtGetCovrtInstance       000000018003a9bf f   sf_runtime:sf_runtime.dll
 0001:000399c5       sf_get_chart_instance_ptr  000000018003a9c5 f   sf_runtime:sf_runtime.dll
 0001:000399cb       sfSetAnimationVectors      000000018003a9cb f   sf_runtime:sf_runtime.dll
 0001:000399d1       sim_mode_is_rtw_gen        000000018003a9d1 f   sf_runtime:sf_runtime.dll
 0001:000399d7       sim_mode_is_external       000000018003a9d7 f   sf_runtime:sf_runtime.dll
 0001:000399dd       sf_clear_rtw_identifier    000000018003a9dd f   sf_runtime:sf_runtime.dll
 0001:000399e3       sf_get_time                000000018003a9e3 f   sf_runtime:sf_runtime.dll
 0001:000399e9       setDataBrowseFcn           000000018003a9e9 f   sf_runtime:sf_runtime.dll
 0001:000399ef       sf_set_work_widths         000000018003a9ef f   sf_runtime:sf_runtime.dll
 0001:000399f5       sf_error_out_about_continuous_sample_time_with_persistent_vars 000000018003a9f5 f   sf_runtime:sf_runtime.dll
 0001:000399fb       sfHasContStates            000000018003a9fb f   sf_runtime:sf_runtime.dll
 0001:00039a01       supportsLegacyBehaviorForPersistentVarInContinuousTime 000000018003aa01 f   sf_runtime:sf_runtime.dll
 0001:00039a07       mdlProcessParamsCommon     000000018003aa07 f   sf_runtime:sf_runtime.dll
 0001:00039a0d       sfListenerCacheSimStruct   000000018003aa0d f   sf_runtime:sf_runtime.dll
 0001:00039a13       sfListenerLightTerminate   000000018003aa13 f   sf_runtime:sf_runtime.dll
 0001:00039a19       sfListenerInitializeRuntimeVars 000000018003aa19 f   sf_runtime:sf_runtime.dll
 0001:00039a1f       sf_mex_call                000000018003aa1f f   sf_runtime:sf_runtime.dll
 0001:00039a25       sf_mex_error_message       000000018003aa25 f   sf_runtime:sf_runtime.dll
 0001:00039a2b       sf_mex_create              000000018003aa2b f   sf_runtime:sf_runtime.dll
 0001:00039a31       sf_mex_createcellmatrix    000000018003aa31 f   sf_runtime:sf_runtime.dll
 0001:00039a37       sf_mex_setcell             000000018003aa37 f   sf_runtime:sf_runtime.dll
 0001:00039a3d       sf_mex_getcell             000000018003aa3d f   sf_runtime:sf_runtime.dll
 0001:00039a43       sf_mex_assign              000000018003aa43 f   sf_runtime:sf_runtime.dll
 0001:00039a49       sf_mex_dup                 000000018003aa49 f   sf_runtime:sf_runtime.dll
 0001:00039a4f       sf_mex_destroy             000000018003aa4f f   sf_runtime:sf_runtime.dll
 0001:00039a55       sf_mex_import              000000018003aa55 f   sf_runtime:sf_runtime.dll
 0001:00039a5b       sf_mex_import_vs           000000018003aa5b f   sf_runtime:sf_runtime.dll
 0001:00039a61       sf_mex_get_dimension       000000018003aa61 f   sf_runtime:sf_runtime.dll
 0001:00039a67       ssGetInputPortSignal_wrapper 000000018003aa67 f   sf_runtime:sf_runtime.dll
 0001:00039a6d       ssGetOutputPortSignal_wrapper 000000018003aa6d f   sf_runtime:sf_runtime.dll
 0001:00039a73       sf_get_ChartInfoStruct_CodeGen 000000018003aa73 f   sf_runtime:sf_runtime.dll
 0001:00039a79       sf_get_hasSeparateUpdateOutputs 000000018003aa79 f   sf_runtime:sf_runtime.dll
 0001:00039a7f       callMdlMethodAndReportError 000000018003aa7f f   sf_runtime:sf_runtime.dll
 0001:00039a85       call_sf_machine_global_method_dispatcher 000000018003aa85 f   sf_runtime:sf_runtime.dll
 0001:00039a8b       getRuntimeInstanceInfoAsVoid 000000018003aa8b f   sf_runtime:sf_runtime.dll
 0001:00039a91       sf_mex_error_direct_call   000000018003aa91 f   sf_runtime:sf_runtime.dll
 0001:00039a97       sf_clear_error_manager_info 000000018003aa97 f   sf_runtime:sf_runtime.dll
 0001:00039a9d       mxIsChar_800               000000018003aa9d f   libmx:libmx.dll
 0001:00039aa3       mxGetScalar_800            000000018003aaa3 f   libmx:libmx.dll
 0001:00039aa9       mxGetPr_800                000000018003aaa9 f   libmx:libmx.dll
 0001:00039aaf       mxDestroyArray_800         000000018003aaaf f   libmx:libmx.dll
 0001:00039ab5       mxCreateDoubleMatrix_800   000000018003aab5 f   libmx:libmx.dll
 0001:00039abb       mxGetString_800            000000018003aabb f   libmx:libmx.dll
 0001:00039ac1       mxDuplicateArray_800       000000018003aac1 f   libmx:libmx.dll
 0001:00039ac7       mxIsEmpty_800              000000018003aac7 f   libmx:libmx.dll
 0001:00039acd       mxSetCell_800              000000018003aacd f   libmx:libmx.dll
 0001:00039ad3       mxSetField_800             000000018003aad3 f   libmx:libmx.dll
 0001:00039ad9       mxCreateString_800         000000018003aad9 f   libmx:libmx.dll
 0001:00039adf       mxCreateCellMatrix_800     000000018003aadf f   libmx:libmx.dll
 0001:00039ae5       mxCreateStructMatrix_800   000000018003aae5 f   libmx:libmx.dll
 0001:00039aeb       mxGetInf_800               000000018003aaeb f   libmx:libmx.dll
 0001:00039af1       mxGetNaN_800               000000018003aaf1 f   libmx:libmx.dll
 0001:00039af7       mxCalloc_800               000000018003aaf7 f   libmx:libmx.dll
 0001:00039afd       mxGetM_800                 000000018003aafd f   libmx:libmx.dll
 0001:00039b03       mxGetClassID_800           000000018003ab03 f   libmx:libmx.dll
 0001:00039b09       mxIsNumeric_800            000000018003ab09 f   libmx:libmx.dll
 0001:00039b0f       mxIsComplex_800            000000018003ab0f f   libmx:libmx.dll
 0001:00039b15       mxGetN_800                 000000018003ab15 f   libmx:libmx.dll
 0001:00039b1b       mxCreateDoubleScalar_800   000000018003ab1b f   libmx:libmx.dll
 0001:00039b21       mexMakeArrayPersistent_800 000000018003ab21 f   libmex:libmex.dll
 0001:00039b27       mexErrMsgTxt_800           000000018003ab27 f   libmex:libmex.dll
 0001:00039b2d       mexWarnMsgTxt_800          000000018003ab2d f   libmex:libmex.dll
 0001:00039b33       mexCallMATLAB_800          000000018003ab33 f   libmex:libmex.dll
 0001:00039b39       mexLock_800                000000018003ab39 f   libmex:libmex.dll
 0001:00039b3f       mexUnlock_800              000000018003ab3f f   libmex:libmex.dll
 0001:00039b45       mexIsLocked_800            000000018003ab45 f   libmex:libmex.dll
 0001:00039b4b       utMalloc                   000000018003ab4b f   libut:libut.dll
 0001:00039b51       utFree                     000000018003ab51 f   libut:libut.dll
 0001:00039b57       muDoubleScalarAbs          000000018003ab57 f   libmwmathutil:libmwmathutil.dll
 0001:00039b5d       muDoubleScalarCeil         000000018003ab5d f   libmwmathutil:libmwmathutil.dll
 0001:00039b63       muDoubleScalarFloor        000000018003ab63 f   libmwmathutil:libmwmathutil.dll
 0001:00039b69       muDoubleScalarRound        000000018003ab69 f   libmwmathutil:libmwmathutil.dll
 0001:00039b6f       muDoubleScalarAtan2        000000018003ab6f f   libmwmathutil:libmwmathutil.dll
 0001:00039b75       muDoubleScalarMax          000000018003ab75 f   libmwmathutil:libmwmathutil.dll
 0001:00039b7b       muDoubleScalarMin          000000018003ab7b f   libmwmathutil:libmwmathutil.dll
 0001:00039b81       muDoubleScalarSqrt         000000018003ab81 f   libmwmathutil:libmwmathutil.dll
 0001:00039b87       muDoubleScalarIsNaN        000000018003ab87 f   libmwmathutil:libmwmathutil.dll
 0001:00039b8d       muDoubleScalarIsInf        000000018003ab8d f   libmwmathutil:libmwmathutil.dll
 0001:00039b93       emlrtLicenseCheckR2022a    000000018003ab93 f   libemlrt:libemlrt.dll
 0001:00039b99       emlrtDynamicBoundsCheckR2012b 000000018003ab99 f   libemlrt:libemlrt.dll
 0001:00039b9f       emlrtSizeMulR2012b         000000018003ab9f f   libemlrt:libemlrt.dll
 0001:00039ba5       emlrtIntegerCheckR2012b    000000018003aba5 f   libemlrt:libemlrt.dll
 0001:00039bab       emlrtNonNegativeCheckR2012b 000000018003abab f   libemlrt:libemlrt.dll
 0001:00039bb1       emlrtMallocMex             000000018003abb1 f   libemlrt:libemlrt.dll
 0001:00039bb7       emlrtFreeMex               000000018003abb7 f   libemlrt:libemlrt.dll
 0001:00039bbd       emlrtHeapReferenceStackEnterFcnR2012b 000000018003abbd f   libemlrt:libemlrt.dll
 0001:00039bc3       emlrtHeapReferenceStackLeaveFcnR2012b 000000018003abc3 f   libemlrt:libemlrt.dll
 0001:00039bc9       emlrtPushHeapReferenceStackR2021a 000000018003abc9 f   libemlrt:libemlrt.dll
 0001:00039bcf       emlrtNameCaptureMxArrayR2016a 000000018003abcf f   libemlrt:libemlrt.dll
 0001:00039bd5       emlrtHeapAllocationErrorR2012b 000000018003abd5 f   libemlrt:libemlrt.dll
 0001:00039bdb       emlrtDimSizeImpxCheckR2021b 000000018003abdb f   libemlrt:libemlrt.dll
 0001:00039be1       emlrtSubAssignSizeCheckR2012b 000000018003abe1 f   libemlrt:libemlrt.dll
 0001:00039be7       emlrtSubAssignSizeCheck1dR2017a 000000018003abe7 f   libemlrt:libemlrt.dll
 0001:00039bed       covrtCreateStateflowInstanceData 000000018003abed f   libcovrt:libcovrt.dll
 0001:00039bf3       covrtDeleteStateflowInstanceData 000000018003abf3 f   libcovrt:libcovrt.dll
 0001:00039bf9       covrtTransInitFcn          000000018003abf9 f   libcovrt:libcovrt.dll
 0001:00039bff       covrtStateInitFcn          000000018003abff f   libcovrt:libcovrt.dll
 0001:00039c05       covrtChartInitFcn          000000018003ac05 f   libcovrt:libcovrt.dll
 0001:00039c0b       covrtRelationalopUpdateFcn 000000018003ac0b f   libcovrt:libcovrt.dll
 0001:00039c11       covrtSigUpdateFcn          000000018003ac11 f   libcovrt:libcovrt.dll
 0001:00039c17       covrtEmlInitFcn            000000018003ac17 f   libcovrt:libcovrt.dll
 0001:00039c1d       covrtEmlFcnInitFcn         000000018003ac1d f   libcovrt:libcovrt.dll
 0001:00039c23       covrtEmlIfInitFcn          000000018003ac23 f   libcovrt:libcovrt.dll
 0001:00039c29       covrtEmlMCDCInitFcn        000000018003ac29 f   libcovrt:libcovrt.dll
 0001:00039c2f       covrtEmlRelationalInitFcn  000000018003ac2f f   libcovrt:libcovrt.dll
 0001:00039c35       covrtEmlFcnEval            000000018003ac35 f   libcovrt:libcovrt.dll
 0001:00039c3b       covrtEmlIfEval             000000018003ac3b f   libcovrt:libcovrt.dll
 0001:00039c41       covrtEmlCondEval           000000018003ac41 f   libcovrt:libcovrt.dll
 0001:00039c47       covrtEmlMcdcEval           000000018003ac47 f   libcovrt:libcovrt.dll
 0001:00039c50       __raise_securityfailure    000000018003ac50 f   MSVCRT:gs_report.obj
 0001:00039c84       __report_gsfailure         000000018003ac84 f   MSVCRT:gs_report.obj
 0001:00039d58       __report_rangecheckfailure 000000018003ad58 f   MSVCRT:gs_report.obj
 0001:00039d6c       __report_securityfailure   000000018003ad6c f   MSVCRT:gs_report.obj
 0001:00039e08       __report_securityfailureEx 000000018003ae08 f   MSVCRT:gs_report.obj
 0001:00039ffc       __GSHandlerCheck           000000018003affc f   MSVCRT:gshandler.obj
 0001:0003a01c       __GSHandlerCheckCommon     000000018003b01c f   MSVCRT:gshandler.obj
 0001:0003a090       __security_check_cookie    000000018003b090 f   MSVCRT:amdsecgs.obj
 0001:0003a0c0       __chkstk                   000000018003b0c0 f   MSVCRT:chkstk.obj
 0001:0003a0c0       _alloca_probe              000000018003b0c0 f   MSVCRT:chkstk.obj
 0001:0003a110       ??2@YAPEAX_K@Z             000000018003b110 f   MSVCRT:new_scalar.obj
 0001:0003a14c       ??3@YAXPEAX_K@Z            000000018003b14c f   MSVCRT:delete_scalar_size.obj
 0001:0003a154       ??1type_info@@UEAA@XZ      000000018003b154 f   MSVCRT:std_type_info_static.obj
 0001:0003a160       ??_Etype_info@@UEAAPEAXI@Z 000000018003b160 f i MSVCRT:std_type_info_static.obj
 0001:0003a160       ??_Gtype_info@@UEAAPEAXI@Z 000000018003b160 f i MSVCRT:std_type_info_static.obj
 0001:0003a4c4       _CRT_INIT                  000000018003b4c4 f   MSVCRT:dll_dllmain.obj
 0001:0003a4cc       _DllMainCRTStartup         000000018003b4cc f   MSVCRT:dll_dllmain.obj
 0001:0003a50c       ??0bad_alloc@std@@QEAA@XZ  000000018003b50c f i MSVCRT:throw_bad_alloc.obj
 0001:0003a52c       ?__scrt_throw_std_bad_alloc@@YAXXZ 000000018003b52c f   MSVCRT:throw_bad_alloc.obj
 0001:0003a54c       ?__scrt_throw_std_bad_array_new_length@@YAXXZ 000000018003b54c f   MSVCRT:throw_bad_alloc.obj
 0001:0003a56c       ??3@YAXPEAX@Z              000000018003b56c f   MSVCRT:delete_scalar.obj
 0001:0003a5e0       __security_init_cookie     000000018003b5e0 f   MSVCRT:gs_support.obj
 0001:0003a68c       DllMain                    000000018003b68c f   MSVCRT:dll_dllmain_stub.obj
 0001:0003a6b0       ?__scrt_initialize_type_info@@YAXXZ 000000018003b6b0 f   MSVCRT:tncleanup.obj
 0001:0003a6c0       ?__scrt_uninitialize_type_info@@YAXXZ 000000018003b6c0 f   MSVCRT:tncleanup.obj
 0001:0003a6cc       __local_stdio_scanf_options 000000018003b6cc f i MSVCRT:default_local_stdio_options.obj
 0001:0003a6d4       __scrt_initialize_default_local_stdio_options 000000018003b6d4 f   MSVCRT:default_local_stdio_options.obj
 0001:0003a6f0       ?configure_argv@__scrt_narrow_argv_policy@@SAHXZ 000000018003b6f0 f i MSVCRT:utility.obj
 0001:0003a750       ?initialize_environment@__scrt_narrow_environment_policy@@SAHXZ 000000018003b750 f i MSVCRT:utility.obj
 0001:0003a788       NtCurrentTeb               000000018003b788 f i MSVCRT:utility.obj
 0001:0003a794       __scrt_acquire_startup_lock 000000018003b794 f   MSVCRT:utility.obj
 0001:0003a7d0       __scrt_dllmain_after_initialize_c 000000018003b7d0 f   MSVCRT:utility.obj
 0001:0003a804       __scrt_dllmain_before_initialize_c 000000018003b804 f   MSVCRT:utility.obj
 0001:0003a81c       __scrt_dllmain_crt_thread_attach 000000018003b81c f   MSVCRT:utility.obj
 0001:0003a844       __scrt_dllmain_crt_thread_detach 000000018003b844 f   MSVCRT:utility.obj
 0001:0003a85c       __scrt_dllmain_exception_filter 000000018003b85c f   MSVCRT:utility.obj
 0001:0003a8bc       __scrt_dllmain_uninitialize_c 000000018003b8bc f   MSVCRT:utility.obj
 0001:0003a8ec       __scrt_dllmain_uninitialize_critical 000000018003b8ec f   MSVCRT:utility.obj
 0001:0003a900       __scrt_initialize_crt      000000018003b900 f   MSVCRT:utility.obj
 0001:0003a93c       __scrt_initialize_onexit_tables 000000018003b93c f   MSVCRT:utility.obj
 0001:0003a9c8       __scrt_is_nonwritable_in_current_image 000000018003b9c8 f   MSVCRT:utility.obj
 0001:0003aa60       __scrt_release_startup_lock 000000018003ba60 f   MSVCRT:utility.obj
 0001:0003aa84       __scrt_uninitialize_crt    000000018003ba84 f   MSVCRT:utility.obj
 0001:0003aab0       _onexit                    000000018003bab0 f   MSVCRT:utility.obj
 0001:0003aaec       at_quick_exit              000000018003baec f   MSVCRT:utility.obj
 0001:0003ab0c       atexit                     000000018003bb0c f   MSVCRT:utility.obj
 0001:0003ab24       __scrt_get_dyn_tls_init_callback 000000018003bb24 f   MSVCRT:dyn_tls_init.obj
 0001:0003ab2c       __crt_debugger_hook        000000018003bb2c f   MSVCRT:utility_desktop.obj
 0001:0003ab34       __scrt_fastfail            000000018003bb34 f   MSVCRT:utility_desktop.obj
 0001:0003ac7c       __scrt_get_show_window_mode 000000018003bc7c f   MSVCRT:utility_desktop.obj
 0001:0003acb8       __scrt_initialize_mta      000000018003bcb8 f   MSVCRT:utility_desktop.obj
 0001:0003acc0       __scrt_initialize_winrt    000000018003bcc0 f   MSVCRT:utility_desktop.obj
 0001:0003acc4       __scrt_is_managed_app      000000018003bcc4 f   MSVCRT:utility_desktop.obj
 0001:0003ad18       __scrt_set_unhandled_exception_filter 000000018003bd18 f   MSVCRT:utility_desktop.obj
 0001:0003ad28       __scrt_exe_initialize_mta  000000018003bd28 f   MSVCRT:utility_desktop.obj
 0001:0003ad28       __scrt_stub_for_initialize_mta 000000018003bd28 f   MSVCRT:utility_desktop.obj
 0001:0003ad2c       __scrt_unhandled_exception_filter 000000018003bd2c f   MSVCRT:utility_desktop.obj
 0001:0003ad88       _RTC_Initialize            000000018003bd88 f   MSVCRT:initsect.obj
 0001:0003adc4       _RTC_Terminate             000000018003bdc4 f   MSVCRT:initsect.obj
 0001:0003ae00       _guard_check_icall_nop     000000018003be00 f i MSVCRT:guard_support.obj
 0001:0003ae04       ReadNoFence64              000000018003be04 f i MSVCRT:guard_support.obj
 0001:0003ae08       ReadPointerNoFence         000000018003be08 f i MSVCRT:guard_support.obj
 0001:0003ae0c       __castguard_check_failure_debugbreak 000000018003be0c f i MSVCRT:guard_support.obj
 0001:0003ae28       __castguard_check_failure_fastfail 000000018003be28 f i MSVCRT:guard_support.obj
 0001:0003ae4c       __castguard_check_failure_nop 000000018003be4c f i MSVCRT:guard_support.obj
 0001:0003ae50       __castguard_check_failure_os_handled 000000018003be50 f i MSVCRT:guard_support.obj
 0001:0003ae9c       __castguard_check_failure_user_handled 000000018003be9c f i MSVCRT:guard_support.obj
 0001:0003af10       __castguard_set_user_handler 000000018003bf10 f i MSVCRT:guard_support.obj
 0001:0003af1c       __castguard_slow_path_check_debugbreak 000000018003bf1c f i MSVCRT:guard_support.obj
 0001:0003af50       __castguard_slow_path_check_fastfail 000000018003bf50 f i MSVCRT:guard_support.obj
 0001:0003af8c       __castguard_slow_path_check_nop 000000018003bf8c f i MSVCRT:guard_support.obj
 0001:0003af90       __castguard_slow_path_check_os_handled 000000018003bf90 f i MSVCRT:guard_support.obj
 0001:0003afdc       __castguard_slow_path_check_user_handled 000000018003bfdc f i MSVCRT:guard_support.obj
 0001:0003b048       _guard_icall_checks_enforced 000000018003c048 f i MSVCRT:guard_support.obj
 0001:0003b060       _guard_rf_checks_enforced  000000018003c060 f i MSVCRT:guard_support.obj
 0001:0003b064       __isa_available_init       000000018003c064 f   MSVCRT:cpu_disp.obj
 0001:0003b210       _get_startup_argv_mode     000000018003c210 f   MSVCRT:argv_mode.obj
 0001:0003b218       __scrt_is_ucrt_dll_in_use  000000018003c218 f   MSVCRT:ucrt_detection.obj
 0001:0003b230       ?_Xlength_error@std@@YAXPEBD@Z 000000018003c230 f   msvcprt:MSVCP140.dll
 0001:0003b236       RtlCaptureContext          000000018003c236 f   kernel32:KERNEL32.dll
 0001:0003b23c       RtlLookupFunctionEntry     000000018003c23c f   kernel32:KERNEL32.dll
 0001:0003b242       RtlVirtualUnwind           000000018003c242 f   kernel32:KERNEL32.dll
 0001:0003b248       UnhandledExceptionFilter   000000018003c248 f   kernel32:KERNEL32.dll
 0001:0003b24e       SetUnhandledExceptionFilter 000000018003c24e f   kernel32:KERNEL32.dll
 0001:0003b254       GetCurrentProcess          000000018003c254 f   kernel32:KERNEL32.dll
 0001:0003b25a       TerminateProcess           000000018003c25a f   kernel32:KERNEL32.dll
 0001:0003b260       IsProcessorFeaturePresent  000000018003c260 f   kernel32:KERNEL32.dll
 0001:0003b266       QueryPerformanceCounter    000000018003c266 f   kernel32:KERNEL32.dll
 0001:0003b26c       GetCurrentProcessId        000000018003c26c f   kernel32:KERNEL32.dll
 0001:0003b272       GetCurrentThreadId         000000018003c272 f   kernel32:KERNEL32.dll
 0001:0003b278       GetSystemTimeAsFileTime    000000018003c278 f   kernel32:KERNEL32.dll
 0001:0003b27e       DisableThreadLibraryCalls  000000018003c27e f   kernel32:KERNEL32.dll
 0001:0003b284       InitializeSListHead        000000018003c284 f   kernel32:KERNEL32.dll
 0001:0003b28a       IsDebuggerPresent          000000018003c28a f   kernel32:KERNEL32.dll
 0001:0003b290       GetStartupInfoW            000000018003c290 f   kernel32:KERNEL32.dll
 0001:0003b296       GetModuleHandleW           000000018003c296 f   kernel32:KERNEL32.dll
 0001:0003b29c       memcpy                     000000018003c29c f   vcruntime:VCRUNTIME140.dll
 0001:0003b2a2       memset                     000000018003c2a2 f   vcruntime:VCRUNTIME140.dll
 0001:0003b2a8       memcmp                     000000018003c2a8 f   vcruntime:VCRUNTIME140.dll
 0001:0003b2ae       memmove                    000000018003c2ae f   vcruntime:VCRUNTIME140.dll
 0001:0003b2b4       __std_exception_copy       000000018003c2b4 f   vcruntime:VCRUNTIME140.dll
 0001:0003b2ba       __std_exception_destroy    000000018003c2ba f   vcruntime:VCRUNTIME140.dll
 0001:0003b2c0       _CxxThrowException         000000018003c2c0 f   vcruntime:VCRUNTIME140.dll
 0001:0003b2c6       __CxxFrameHandler4         000000018003c2c6 f   vcruntime:VCRUNTIME140_1.dll
 0001:0003b2cc       __C_specific_handler       000000018003c2cc f   vcruntime:VCRUNTIME140.dll
 0001:0003b2d2       __std_type_info_destroy_list 000000018003c2d2 f   vcruntime:VCRUNTIME140.dll
 0001:0003b2d8       __current_exception        000000018003c2d8 f   vcruntime:VCRUNTIME140.dll
 0001:0003b2de       __current_exception_context 000000018003c2de f   vcruntime:VCRUNTIME140.dll
 0001:0003b2e4       strcmp                     000000018003c2e4 f   ucrt:api-ms-win-crt-string-l1-1-0.dll
 0001:0003b2ea       strcat                     000000018003c2ea f   ucrt:api-ms-win-crt-string-l1-1-0.dll
 0001:0003b2f0       frexp                      000000018003c2f0 f   ucrt:api-ms-win-crt-math-l1-1-0.dll
 0001:0003b2f6       ldexp                      000000018003c2f6 f   ucrt:api-ms-win-crt-math-l1-1-0.dll
 0001:0003b2fc       __stdio_common_vsprintf    000000018003c2fc f   ucrt:api-ms-win-crt-stdio-l1-1-0.dll
 0001:0003b302       free                       000000018003c302 f   ucrt:api-ms-win-crt-heap-l1-1-0.dll
 0001:0003b308       malloc                     000000018003c308 f   ucrt:api-ms-win-crt-heap-l1-1-0.dll
 0001:0003b30e       strlen                     000000018003c30e f   ucrt:api-ms-win-crt-string-l1-1-0.dll
 0001:0003b314       _invalid_parameter_noinfo_noreturn 000000018003c314 f   ucrt:api-ms-win-crt-runtime-l1-1-0.dll
 0001:0003b31a       _wassert                   000000018003c31a f   ucrt:api-ms-win-crt-runtime-l1-1-0.dll
 0001:0003b320       ceilf                      000000018003c320 f   ucrt:api-ms-win-crt-math-l1-1-0.dll
 0001:0003b326       _callnewh                  000000018003c326 f   ucrt:api-ms-win-crt-heap-l1-1-0.dll
 0001:0003b32c       _initterm                  000000018003c32c f   ucrt:api-ms-win-crt-runtime-l1-1-0.dll
 0001:0003b332       _initterm_e                000000018003c332 f   ucrt:api-ms-win-crt-runtime-l1-1-0.dll
 0001:0003b338       _seh_filter_dll            000000018003c338 f   ucrt:api-ms-win-crt-runtime-l1-1-0.dll
 0001:0003b33e       _configure_narrow_argv     000000018003c33e f   ucrt:api-ms-win-crt-runtime-l1-1-0.dll
 0001:0003b344       _initialize_narrow_environment 000000018003c344 f   ucrt:api-ms-win-crt-runtime-l1-1-0.dll
 0001:0003b34a       _initialize_onexit_table   000000018003c34a f   ucrt:api-ms-win-crt-runtime-l1-1-0.dll
 0001:0003b350       _register_onexit_function  000000018003c350 f   ucrt:api-ms-win-crt-runtime-l1-1-0.dll
 0001:0003b356       _execute_onexit_table      000000018003c356 f   ucrt:api-ms-win-crt-runtime-l1-1-0.dll
 0001:0003b35c       _crt_atexit                000000018003c35c f   ucrt:api-ms-win-crt-runtime-l1-1-0.dll
 0001:0003b362       _crt_at_quick_exit         000000018003c362 f   ucrt:api-ms-win-crt-runtime-l1-1-0.dll
 0001:0003b368       _cexit                     000000018003c368 f   ucrt:api-ms-win-crt-runtime-l1-1-0.dll
 0001:0003b36e       terminate                  000000018003c36e f   ucrt:api-ms-win-crt-runtime-l1-1-0.dll
 0001:0003b374       __acrt_initialize          000000018003c374 f   MSVCRT:ucrt_stubs.obj
 0001:0003b374       __scrt_stub_for_acrt_initialize 000000018003c374 f   MSVCRT:ucrt_stubs.obj
 0001:0003b374       __vcrt_initialize          000000018003c374 f   MSVCRT:ucrt_stubs.obj
 0001:0003b378       __acrt_thread_attach       000000018003c378 f   MSVCRT:ucrt_stubs.obj
 0001:0003b378       __scrt_stub_for_acrt_thread_attach 000000018003c378 f   MSVCRT:ucrt_stubs.obj
 0001:0003b378       __vcrt_thread_attach       000000018003c378 f   MSVCRT:ucrt_stubs.obj
 0001:0003b37c       __acrt_thread_detach       000000018003c37c f   MSVCRT:ucrt_stubs.obj
 0001:0003b37c       __scrt_stub_for_acrt_thread_detach 000000018003c37c f   MSVCRT:ucrt_stubs.obj
 0001:0003b37c       __vcrt_thread_detach       000000018003c37c f   MSVCRT:ucrt_stubs.obj
 0001:0003b380       __acrt_uninitialize        000000018003c380 f   MSVCRT:ucrt_stubs.obj
 0001:0003b380       __scrt_stub_for_acrt_uninitialize 000000018003c380 f   MSVCRT:ucrt_stubs.obj
 0001:0003b380       __vcrt_uninitialize        000000018003c380 f   MSVCRT:ucrt_stubs.obj
 0001:0003b384       __acrt_uninitialize_critical 000000018003c384 f   MSVCRT:ucrt_stubs.obj
 0001:0003b384       __scrt_stub_for_acrt_uninitialize_critical 000000018003c384 f   MSVCRT:ucrt_stubs.obj
 0001:0003b384       __vcrt_uninitialize_critical 000000018003c384 f   MSVCRT:ucrt_stubs.obj
 0001:0003b388       __scrt_stub_for_is_c_termination_complete 000000018003c388 f   MSVCRT:ucrt_stubs.obj
 0001:0003b388       _is_c_termination_complete 000000018003c388 f   MSVCRT:ucrt_stubs.obj
 0001:0003b3a0       _guard_dispatch_icall_nop  000000018003c3a0 f   MSVCRT:guard_dispatch.obj
 0001:0003b3c0       _guard_xfg_dispatch_icall_nop 000000018003c3c0 f   MSVCRT:guard_xfg_dispatch.obj
 0002:00000000       __imp_UnhandledExceptionFilter 000000018003d000     kernel32:KERNEL32.dll
 0002:00000008       __imp_GetCurrentProcess    000000018003d008     kernel32:KERNEL32.dll
 0002:00000010       __imp_TerminateProcess     000000018003d010     kernel32:KERNEL32.dll
 0002:00000018       __imp_IsProcessorFeaturePresent 000000018003d018     kernel32:KERNEL32.dll
 0002:00000020       __imp_QueryPerformanceCounter 000000018003d020     kernel32:KERNEL32.dll
 0002:00000028       __imp_GetCurrentProcessId  000000018003d028     kernel32:KERNEL32.dll
 0002:00000030       __imp_GetCurrentThreadId   000000018003d030     kernel32:KERNEL32.dll
 0002:00000038       __imp_GetSystemTimeAsFileTime 000000018003d038     kernel32:KERNEL32.dll
 0002:00000040       __imp_DisableThreadLibraryCalls 000000018003d040     kernel32:KERNEL32.dll
 0002:00000048       __imp_InitializeSListHead  000000018003d048     kernel32:KERNEL32.dll
 0002:00000050       __imp_IsDebuggerPresent    000000018003d050     kernel32:KERNEL32.dll
 0002:00000058       __imp_GetStartupInfoW      000000018003d058     kernel32:KERNEL32.dll
 0002:00000060       __imp_GetModuleHandleW     000000018003d060     kernel32:KERNEL32.dll
 0002:00000068       __imp_SetUnhandledExceptionFilter 000000018003d068     kernel32:KERNEL32.dll
 0002:00000070       __imp_RtlVirtualUnwind     000000018003d070     kernel32:KERNEL32.dll
 0002:00000078       __imp_RtlLookupFunctionEntry 000000018003d078     kernel32:KERNEL32.dll
 0002:00000080       __imp_RtlCaptureContext    000000018003d080     kernel32:KERNEL32.dll
 0002:00000088       \177KERNEL32_NULL_THUNK_DATA 000000018003d088     kernel32:KERNEL32.dll
 0002:00000090       __imp_?_Xlength_error@std@@YAXPEBD@Z 000000018003d090     msvcprt:MSVCP140.dll
 0002:00000098       \177MSVCP140_NULL_THUNK_DATA 000000018003d098     msvcprt:MSVCP140.dll
 0002:000000a0       __imp___std_exception_destroy 000000018003d0a0     vcruntime:VCRUNTIME140.dll
 0002:000000a8       __imp_memcpy               000000018003d0a8     vcruntime:VCRUNTIME140.dll
 0002:000000b0       __imp_memset               000000018003d0b0     vcruntime:VCRUNTIME140.dll
 0002:000000b8       __imp_memmove              000000018003d0b8     vcruntime:VCRUNTIME140.dll
 0002:000000c0       __imp___std_exception_copy 000000018003d0c0     vcruntime:VCRUNTIME140.dll
 0002:000000c8       __imp_memcmp               000000018003d0c8     vcruntime:VCRUNTIME140.dll
 0002:000000d0       __imp__CxxThrowException   000000018003d0d0     vcruntime:VCRUNTIME140.dll
 0002:000000d8       __imp___C_specific_handler 000000018003d0d8     vcruntime:VCRUNTIME140.dll
 0002:000000e0       __imp___std_type_info_destroy_list 000000018003d0e0     vcruntime:VCRUNTIME140.dll
 0002:000000e8       __imp___current_exception  000000018003d0e8     vcruntime:VCRUNTIME140.dll
 0002:000000f0       __imp___current_exception_context 000000018003d0f0     vcruntime:VCRUNTIME140.dll
 0002:000000f8       \177VCRUNTIME140_NULL_THUNK_DATA 000000018003d0f8     vcruntime:VCRUNTIME140.dll
 0002:00000100       __imp___CxxFrameHandler4   000000018003d100     vcruntime:VCRUNTIME140_1.dll
 0002:00000108       \177VCRUNTIME140_1_NULL_THUNK_DATA 000000018003d108     vcruntime:VCRUNTIME140_1.dll
 0002:00000110       __imp_malloc               000000018003d110     ucrt:api-ms-win-crt-heap-l1-1-0.dll
 0002:00000118       __imp__callnewh            000000018003d118     ucrt:api-ms-win-crt-heap-l1-1-0.dll
 0002:00000120       __imp_free                 000000018003d120     ucrt:api-ms-win-crt-heap-l1-1-0.dll
 0002:00000128       \177api-ms-win-crt-heap-l1-1-0_NULL_THUNK_DATA 000000018003d128     ucrt:api-ms-win-crt-heap-l1-1-0.dll
 0002:00000130       __imp_frexp                000000018003d130     ucrt:api-ms-win-crt-math-l1-1-0.dll
 0002:00000138       __imp_ceilf                000000018003d138     ucrt:api-ms-win-crt-math-l1-1-0.dll
 0002:00000140       __imp_ldexp                000000018003d140     ucrt:api-ms-win-crt-math-l1-1-0.dll
 0002:00000148       \177api-ms-win-crt-math-l1-1-0_NULL_THUNK_DATA 000000018003d148     ucrt:api-ms-win-crt-math-l1-1-0.dll
 0002:00000150       __imp__initterm            000000018003d150     ucrt:api-ms-win-crt-runtime-l1-1-0.dll
 0002:00000158       __imp__invalid_parameter_noinfo_noreturn 000000018003d158     ucrt:api-ms-win-crt-runtime-l1-1-0.dll
 0002:00000160       __imp__configure_narrow_argv 000000018003d160     ucrt:api-ms-win-crt-runtime-l1-1-0.dll
 0002:00000168       __imp__initialize_onexit_table 000000018003d168     ucrt:api-ms-win-crt-runtime-l1-1-0.dll
 0002:00000170       __imp__initterm_e          000000018003d170     ucrt:api-ms-win-crt-runtime-l1-1-0.dll
 0002:00000178       __imp__execute_onexit_table 000000018003d178     ucrt:api-ms-win-crt-runtime-l1-1-0.dll
 0002:00000180       __imp__crt_atexit          000000018003d180     ucrt:api-ms-win-crt-runtime-l1-1-0.dll
 0002:00000188       __imp__crt_at_quick_exit   000000018003d188     ucrt:api-ms-win-crt-runtime-l1-1-0.dll
 0002:00000190       __imp__cexit               000000018003d190     ucrt:api-ms-win-crt-runtime-l1-1-0.dll
 0002:00000198       __imp_terminate            000000018003d198     ucrt:api-ms-win-crt-runtime-l1-1-0.dll
 0002:000001a0       __imp__wassert             000000018003d1a0     ucrt:api-ms-win-crt-runtime-l1-1-0.dll
 0002:000001a8       __imp__seh_filter_dll      000000018003d1a8     ucrt:api-ms-win-crt-runtime-l1-1-0.dll
 0002:000001b0       __imp__register_onexit_function 000000018003d1b0     ucrt:api-ms-win-crt-runtime-l1-1-0.dll
 0002:000001b8       __imp__initialize_narrow_environment 000000018003d1b8     ucrt:api-ms-win-crt-runtime-l1-1-0.dll
 0002:000001c0       \177api-ms-win-crt-runtime-l1-1-0_NULL_THUNK_DATA 000000018003d1c0     ucrt:api-ms-win-crt-runtime-l1-1-0.dll
 0002:000001c8       __imp___stdio_common_vsprintf 000000018003d1c8     ucrt:api-ms-win-crt-stdio-l1-1-0.dll
 0002:000001d0       \177api-ms-win-crt-stdio-l1-1-0_NULL_THUNK_DATA 000000018003d1d0     ucrt:api-ms-win-crt-stdio-l1-1-0.dll
 0002:000001d8       __imp_strlen               000000018003d1d8     ucrt:api-ms-win-crt-string-l1-1-0.dll
 0002:000001e0       __imp_strcat               000000018003d1e0     ucrt:api-ms-win-crt-string-l1-1-0.dll
 0002:000001e8       __imp_strcmp               000000018003d1e8     ucrt:api-ms-win-crt-string-l1-1-0.dll
 0002:000001f0       \177api-ms-win-crt-string-l1-1-0_NULL_THUNK_DATA 000000018003d1f0     ucrt:api-ms-win-crt-string-l1-1-0.dll
 0002:000001f8       __imp_covrtDeleteStateflowInstanceData 000000018003d1f8     libcovrt:libcovrt.dll
 0002:00000200       __imp_covrtEmlMcdcEval     000000018003d200     libcovrt:libcovrt.dll
 0002:00000208       __imp_covrtEmlCondEval     000000018003d208     libcovrt:libcovrt.dll
 0002:00000210       __imp_covrtEmlIfEval       000000018003d210     libcovrt:libcovrt.dll
 0002:00000218       __imp_covrtEmlFcnEval      000000018003d218     libcovrt:libcovrt.dll
 0002:00000220       __imp_covrtEmlRelationalInitFcn 000000018003d220     libcovrt:libcovrt.dll
 0002:00000228       __imp_covrtEmlMCDCInitFcn  000000018003d228     libcovrt:libcovrt.dll
 0002:00000230       __imp_covrtEmlIfInitFcn    000000018003d230     libcovrt:libcovrt.dll
 0002:00000238       __imp_covrtEmlFcnInitFcn   000000018003d238     libcovrt:libcovrt.dll
 0002:00000240       __imp_covrtEmlInitFcn      000000018003d240     libcovrt:libcovrt.dll
 0002:00000248       __imp_covrtSigUpdateFcn    000000018003d248     libcovrt:libcovrt.dll
 0002:00000250       __imp_covrtRelationalopUpdateFcn 000000018003d250     libcovrt:libcovrt.dll
 0002:00000258       __imp_covrtChartInitFcn    000000018003d258     libcovrt:libcovrt.dll
 0002:00000260       __imp_covrtStateInitFcn    000000018003d260     libcovrt:libcovrt.dll
 0002:00000268       __imp_covrtTransInitFcn    000000018003d268     libcovrt:libcovrt.dll
 0002:00000270       __imp_covrtCreateStateflowInstanceData 000000018003d270     libcovrt:libcovrt.dll
 0002:00000278       \177libcovrt_NULL_THUNK_DATA 000000018003d278     libcovrt:libcovrt.dll
 0002:00000280       __imp_emlrtSubAssignSizeCheck1dR2017a 000000018003d280     libemlrt:libemlrt.dll
 0002:00000288       __imp_emlrtSubAssignSizeCheckR2012b 000000018003d288     libemlrt:libemlrt.dll
 0002:00000290       __imp_emlrtDimSizeImpxCheckR2021b 000000018003d290     libemlrt:libemlrt.dll
 0002:00000298       __imp_emlrtHeapAllocationErrorR2012b 000000018003d298     libemlrt:libemlrt.dll
 0002:000002a0       __imp_emlrtNameCaptureMxArrayR2016a 000000018003d2a0     libemlrt:libemlrt.dll
 0002:000002a8       __imp_emlrtPushHeapReferenceStackR2021a 000000018003d2a8     libemlrt:libemlrt.dll
 0002:000002b0       __imp_emlrtHeapReferenceStackLeaveFcnR2012b 000000018003d2b0     libemlrt:libemlrt.dll
 0002:000002b8       __imp_emlrtHeapReferenceStackEnterFcnR2012b 000000018003d2b8     libemlrt:libemlrt.dll
 0002:000002c0       __imp_emlrtFreeMex         000000018003d2c0     libemlrt:libemlrt.dll
 0002:000002c8       __imp_emlrtLicenseCheckR2022a 000000018003d2c8     libemlrt:libemlrt.dll
 0002:000002d0       __imp_emlrtDynamicBoundsCheckR2012b 000000018003d2d0     libemlrt:libemlrt.dll
 0002:000002d8       __imp_emlrtSizeMulR2012b   000000018003d2d8     libemlrt:libemlrt.dll
 0002:000002e0       __imp_emlrtIntegerCheckR2012b 000000018003d2e0     libemlrt:libemlrt.dll
 0002:000002e8       __imp_emlrtNonNegativeCheckR2012b 000000018003d2e8     libemlrt:libemlrt.dll
 0002:000002f0       __imp_emlrtMallocMex       000000018003d2f0     libemlrt:libemlrt.dll
 0002:000002f8       \177libemlrt_NULL_THUNK_DATA 000000018003d2f8     libemlrt:libemlrt.dll
 0002:00000300       __imp_mexUnlock_800        000000018003d300     libmex:libmex.dll
 0002:00000308       __imp_mexIsLocked_800      000000018003d308     libmex:libmex.dll
 0002:00000310       __imp_mexCallMATLAB_800    000000018003d310     libmex:libmex.dll
 0002:00000318       __imp_mexWarnMsgTxt_800    000000018003d318     libmex:libmex.dll
 0002:00000320       __imp_mexErrMsgTxt_800     000000018003d320     libmex:libmex.dll
 0002:00000328       __imp_mexMakeArrayPersistent_800 000000018003d328     libmex:libmex.dll
 0002:00000330       __imp_mexLock_800          000000018003d330     libmex:libmex.dll
 0002:00000338       \177libmex_NULL_THUNK_DATA 000000018003d338     libmex:libmex.dll
 0002:00000340       __imp_muDoubleScalarCeil   000000018003d340     libmwmathutil:libmwmathutil.dll
 0002:00000348       __imp_muDoubleScalarFloor  000000018003d348     libmwmathutil:libmwmathutil.dll
 0002:00000350       __imp_muDoubleScalarMax    000000018003d350     libmwmathutil:libmwmathutil.dll
 0002:00000358       __imp_muDoubleScalarMin    000000018003d358     libmwmathutil:libmwmathutil.dll
 0002:00000360       __imp_muDoubleScalarSqrt   000000018003d360     libmwmathutil:libmwmathutil.dll
 0002:00000368       __imp_muDoubleScalarAbs    000000018003d368     libmwmathutil:libmwmathutil.dll
 0002:00000370       __imp_muDoubleScalarAtan2  000000018003d370     libmwmathutil:libmwmathutil.dll
 0002:00000378       __imp_muDoubleScalarIsNaN  000000018003d378     libmwmathutil:libmwmathutil.dll
 0002:00000380       __imp_muDoubleScalarIsInf  000000018003d380     libmwmathutil:libmwmathutil.dll
 0002:00000388       __imp_muDoubleScalarRound  000000018003d388     libmwmathutil:libmwmathutil.dll
 0002:00000390       \177libmwmathutil_NULL_THUNK_DATA 000000018003d390     libmwmathutil:libmwmathutil.dll
 0002:00000398       __imp_mxIsChar_800         000000018003d398     libmx:libmx.dll
 0002:000003a0       __imp_mxGetScalar_800      000000018003d3a0     libmx:libmx.dll
 0002:000003a8       __imp_mxGetPr_800          000000018003d3a8     libmx:libmx.dll
 0002:000003b0       __imp_mxDestroyArray_800   000000018003d3b0     libmx:libmx.dll
 0002:000003b8       __imp_mxCreateDoubleScalar_800 000000018003d3b8     libmx:libmx.dll
 0002:000003c0       __imp_mxGetN_800           000000018003d3c0     libmx:libmx.dll
 0002:000003c8       __imp_mxIsComplex_800      000000018003d3c8     libmx:libmx.dll
 0002:000003d0       __imp_mxIsNumeric_800      000000018003d3d0     libmx:libmx.dll
 0002:000003d8       __imp_mxGetClassID_800     000000018003d3d8     libmx:libmx.dll
 0002:000003e0       __imp_mxGetM_800           000000018003d3e0     libmx:libmx.dll
 0002:000003e8       __imp_mxCalloc_800         000000018003d3e8     libmx:libmx.dll
 0002:000003f0       __imp_mxGetNaN_800         000000018003d3f0     libmx:libmx.dll
 0002:000003f8       __imp_mxGetInf_800         000000018003d3f8     libmx:libmx.dll
 0002:00000400       __imp_mxCreateStructMatrix_800 000000018003d400     libmx:libmx.dll
 0002:00000408       __imp_mxCreateCellMatrix_800 000000018003d408     libmx:libmx.dll
 0002:00000410       __imp_mxCreateString_800   000000018003d410     libmx:libmx.dll
 0002:00000418       __imp_mxSetField_800       000000018003d418     libmx:libmx.dll
 0002:00000420       __imp_mxSetCell_800        000000018003d420     libmx:libmx.dll
 0002:00000428       __imp_mxIsEmpty_800        000000018003d428     libmx:libmx.dll
 0002:00000430       __imp_mxDuplicateArray_800 000000018003d430     libmx:libmx.dll
 0002:00000438       __imp_mxGetString_800      000000018003d438     libmx:libmx.dll
 0002:00000440       __imp_mxCreateDoubleMatrix_800 000000018003d440     libmx:libmx.dll
 0002:00000448       \177libmx_NULL_THUNK_DATA  000000018003d448     libmx:libmx.dll
 0002:00000450       __imp_utFree               000000018003d450     libut:libut.dll
 0002:00000458       __imp_utMalloc             000000018003d458     libut:libut.dll
 0002:00000460       \177libut_NULL_THUNK_DATA  000000018003d460     libut:libut.dll
 0002:00000468       __imp_sf_mex_decode        000000018003d468     sf_runtime:sf_runtime.dll
 0002:00000470       __imp_sf_clear_error_manager_info 000000018003d470     sf_runtime:sf_runtime.dll
 0002:00000478       __imp_sf_mex_error_direct_call 000000018003d478     sf_runtime:sf_runtime.dll
 0002:00000480       __imp_getRuntimeInstanceInfoAsVoid 000000018003d480     sf_runtime:sf_runtime.dll
 0002:00000488       __imp_call_sf_machine_global_method_dispatcher 000000018003d488     sf_runtime:sf_runtime.dll
 0002:00000490       __imp_callMdlMethodAndReportError 000000018003d490     sf_runtime:sf_runtime.dll
 0002:00000498       __imp_sf_get_hasSeparateUpdateOutputs 000000018003d498     sf_runtime:sf_runtime.dll
 0002:000004a0       __imp_sf_get_ChartInfoStruct_CodeGen 000000018003d4a0     sf_runtime:sf_runtime.dll
 0002:000004a8       __imp_ssGetOutputPortSignal_wrapper 000000018003d4a8     sf_runtime:sf_runtime.dll
 0002:000004b0       __imp_ssGetInputPortSignal_wrapper 000000018003d4b0     sf_runtime:sf_runtime.dll
 0002:000004b8       __imp_sf_mex_get_dimension 000000018003d4b8     sf_runtime:sf_runtime.dll
 0002:000004c0       __imp_sf_mex_import_vs     000000018003d4c0     sf_runtime:sf_runtime.dll
 0002:000004c8       __imp_sf_mex_import        000000018003d4c8     sf_runtime:sf_runtime.dll
 0002:000004d0       __imp_sf_mex_destroy       000000018003d4d0     sf_runtime:sf_runtime.dll
 0002:000004d8       __imp_sf_mex_dup           000000018003d4d8     sf_runtime:sf_runtime.dll
 0002:000004e0       __imp_sf_mex_assign        000000018003d4e0     sf_runtime:sf_runtime.dll
 0002:000004e8       __imp_sf_mex_getcell       000000018003d4e8     sf_runtime:sf_runtime.dll
 0002:000004f0       __imp_sf_mex_setcell       000000018003d4f0     sf_runtime:sf_runtime.dll
 0002:000004f8       __imp_sf_mex_createcellmatrix 000000018003d4f8     sf_runtime:sf_runtime.dll
 0002:00000500       __imp_sf_mex_create        000000018003d500     sf_runtime:sf_runtime.dll
 0002:00000508       __imp_sf_mex_error_message 000000018003d508     sf_runtime:sf_runtime.dll
 0002:00000510       __imp_sf_mex_call          000000018003d510     sf_runtime:sf_runtime.dll
 0002:00000518       __imp_sfListenerInitializeRuntimeVars 000000018003d518     sf_runtime:sf_runtime.dll
 0002:00000520       __imp_sfListenerLightTerminate 000000018003d520     sf_runtime:sf_runtime.dll
 0002:00000528       __imp_sfListenerCacheSimStruct 000000018003d528     sf_runtime:sf_runtime.dll
 0002:00000530       __imp_mdlProcessParamsCommon 000000018003d530     sf_runtime:sf_runtime.dll
 0002:00000538       __imp_supportsLegacyBehaviorForPersistentVarInContinuousTime 000000018003d538     sf_runtime:sf_runtime.dll
 0002:00000540       __imp_sfHasContStates      000000018003d540     sf_runtime:sf_runtime.dll
 0002:00000548       __imp_sf_error_out_about_continuous_sample_time_with_persistent_vars 000000018003d548     sf_runtime:sf_runtime.dll
 0002:00000550       __imp_sf_set_work_widths   000000018003d550     sf_runtime:sf_runtime.dll
 0002:00000558       __imp_setDataBrowseFcn     000000018003d558     sf_runtime:sf_runtime.dll
 0002:00000560       __imp_sf_get_time          000000018003d560     sf_runtime:sf_runtime.dll
 0002:00000568       __imp_sf_clear_rtw_identifier 000000018003d568     sf_runtime:sf_runtime.dll
 0002:00000570       __imp_sim_mode_is_external 000000018003d570     sf_runtime:sf_runtime.dll
 0002:00000578       __imp_sim_mode_is_rtw_gen  000000018003d578     sf_runtime:sf_runtime.dll
 0002:00000580       __imp_sfSetAnimationVectors 000000018003d580     sf_runtime:sf_runtime.dll
 0002:00000588       __imp_sf_get_chart_instance_ptr 000000018003d588     sf_runtime:sf_runtime.dll
 0002:00000590       __imp_sfrtGetCovrtInstance 000000018003d590     sf_runtime:sf_runtime.dll
 0002:00000598       __imp_sfrtGetEmlrtCtx      000000018003d598     sf_runtime:sf_runtime.dll
 0002:000005a0       __imp_sf_reset_warnings_ChartRunTimeInfo 000000018003d5a0     sf_runtime:sf_runtime.dll
 0002:000005a8       __imp_sf_free_ChartRunTimeInfo 000000018003d5a8     sf_runtime:sf_runtime.dll
 0002:000005b0       __imp_sf_init_ChartRunTimeInfo 000000018003d5b0     sf_runtime:sf_runtime.dll
 0002:000005b8       __imp_sf_load_rtw_optimization_info 000000018003d5b8     sf_runtime:sf_runtime.dll
 0002:000005c0       \177sf_runtime_NULL_THUNK_DATA 000000018003d5c0     sf_runtime:sf_runtime.dll
 0002:000005c8       __guard_check_icall_fptr   000000018003d5c8     MSVCRT:guard_support.obj
 0002:000005d0       __guard_xfg_check_icall_fptr 000000018003d5d0     MSVCRT:guard_support.obj
 0002:000005d8       __guard_dispatch_icall_fptr 000000018003d5d8     MSVCRT:guard_support.obj
 0002:000005e0       __guard_xfg_dispatch_icall_fptr 000000018003d5e0     MSVCRT:guard_support.obj
 0002:000005e8       __guard_xfg_table_dispatch_icall_fptr 000000018003d5e8     MSVCRT:guard_support.obj
 0002:000005f0       __castguard_check_failure_os_handled_fptr 000000018003d5f0     MSVCRT:guard_support.obj
 0002:000005f8       __guard_memcpy_fptr        000000018003d5f8     vcruntime:softmemtag.obj
 0002:00000600       __xc_a                     000000018003d600     MSVCRT:initializers.obj
 0002:00000608       __xc_z                     000000018003d608     MSVCRT:initializers.obj
 0002:00000610       __xi_a                     000000018003d610     MSVCRT:initializers.obj
 0002:00000618       __xi_z                     000000018003d618     MSVCRT:initializers.obj
 0002:00000620       __xp_a                     000000018003d620     MSVCRT:initializers.obj
 0002:00000628       __xp_z                     000000018003d628     MSVCRT:initializers.obj
 0002:00000630       __xt_a                     000000018003d630     MSVCRT:initializers.obj
 0002:00000638       __xt_z                     000000018003d638     MSVCRT:initializers.obj
 0002:00000640       __real@41c0050b17000000    000000018003d640     sl_groundvehicleDynamics_sfun.obj
 0002:00000648       __real@41c4630a94000000    000000018003d648     sl_groundvehicleDynamics_sfun.obj
 0002:00000650       __real@41c70de207000000    000000018003d650     sl_groundvehicleDynamics_sfun.obj
 0002:00000658       __real@41cae01e13800000    000000018003d658     sl_groundvehicleDynamics_sfun.obj
 0002:00000660       __real@41d0daa001000000    000000018003d660     sl_groundvehicleDynamics_sfun.obj
 0002:00000668       __real@41e4689d9c800000    000000018003d668     sl_groundvehicleDynamics_sfun.obj
 0002:00000670       __real@41e6332854600000    000000018003d670     sl_groundvehicleDynamics_sfun.obj
 0002:00000678       __real@41e82baba6e00000    000000018003d678     sl_groundvehicleDynamics_sfun.obj
 0002:00000680       __real@41e85b21b2000000    000000018003d680     sl_groundvehicleDynamics_sfun.obj
 0002:00000688       __real@41eba5ed82800000    000000018003d688     sl_groundvehicleDynamics_sfun.obj
 0002:00000690       __real@41ecfca157800000    000000018003d690     sl_groundvehicleDynamics_sfun.obj
 0002:00000698       __real@41ed6991ae400000    000000018003d698     sl_groundvehicleDynamics_sfun.obj
 0002:000006e0       __real@0000000000000000    000000018003d6e0     c5_sl_groundvehicleDynamics.obj
 0002:000006e8       __real@0000000000000001    000000018003d6e8     c5_sl_groundvehicleDynamics.obj
 0002:000006f0       __real@0020000000000000    000000018003d6f0     c5_sl_groundvehicleDynamics.obj
 0002:000006f8       __real@3fa999999999999a    000000018003d6f8     c5_sl_groundvehicleDynamics.obj
 0002:00000700       __real@3fe4cccccccccccd    000000018003d700     c5_sl_groundvehicleDynamics.obj
 0002:00000708       __real@3ff0000000000000    000000018003d708     c5_sl_groundvehicleDynamics.obj
 0002:00000710       __real@3ff11eb851eb851f    000000018003d710     c5_sl_groundvehicleDynamics.obj
 0002:00000718       __real@4000000000000000    000000018003d718     c5_sl_groundvehicleDynamics.obj
 0002:00000720       __real@4010000000000000    000000018003d720     c5_sl_groundvehicleDynamics.obj
 0002:00000728       __real@4014000000000000    000000018003d728     c5_sl_groundvehicleDynamics.obj
 0002:00000730       __real@4018000000000000    000000018003d730     c5_sl_groundvehicleDynamics.obj
 0002:00000738       __real@4020000000000000    000000018003d738     c5_sl_groundvehicleDynamics.obj
 0002:00000740       __real@4024000000000000    000000018003d740     c5_sl_groundvehicleDynamics.obj
 0002:00000748       __real@4044800000000000    000000018003d748     c5_sl_groundvehicleDynamics.obj
 0002:00000750       __real@404a000000000000    000000018003d750     c5_sl_groundvehicleDynamics.obj
 0002:00000758       __real@4079900000000000    000000018003d758     c5_sl_groundvehicleDynamics.obj
 0002:00000760       __real@4079a00000000000    000000018003d760     c5_sl_groundvehicleDynamics.obj
 0002:00000768       __real@4079b00000000000    000000018003d768     c5_sl_groundvehicleDynamics.obj
 0002:00000770       __real@4080380000000000    000000018003d770     c5_sl_groundvehicleDynamics.obj
 0002:00000778       __real@4080400000000000    000000018003d778     c5_sl_groundvehicleDynamics.obj
 0002:00000780       __real@40c3880000000000    000000018003d780     c5_sl_groundvehicleDynamics.obj
 0002:00000788       __real@410a068000000000    000000018003d788     c5_sl_groundvehicleDynamics.obj
 0002:00000790       __real@41dd02151a400000    000000018003d790     c5_sl_groundvehicleDynamics.obj
 0002:00000798       __real@41e65244a1400000    000000018003d798     c5_sl_groundvehicleDynamics.obj
 0002:000007a0       __real@41ea0f164c800000    000000018003d7a0     c5_sl_groundvehicleDynamics.obj
 0002:000007a8       __real@41ec6b3e93200000    000000018003d7a8     c5_sl_groundvehicleDynamics.obj
 0002:000007b0       __real@bfe0000000000000    000000018003d7b0     c5_sl_groundvehicleDynamics.obj
 0002:000007b8       __real@bff0000000000000    000000018003d7b8     c5_sl_groundvehicleDynamics.obj
 0002:000007c0       __xmm@80000000000000008000000000000000 000000018003d7c0     c5_sl_groundvehicleDynamics.obj
 0002:000007d0       DYNAMIC_DIMENSION_DEF      000000018003d7d0     sl_groundvehicleDynamics_sfun_registry.obj
 0002:000007e8       __real@41602cbca0000000    000000018003d7e8     sl_groundvehicleDynamics_sfun_registry.obj
 0002:00000800       ??_7exception@std@@6B@     000000018003d800     priorityqueue_api.obj
 0002:00000810       ??_C@_0BC@EOODALEL@Unknown?5exception@ 000000018003d810     priorityqueue_api.obj
 0002:00000830       ??_7bad_alloc@std@@6B@     000000018003d830     priorityqueue_api.obj
 0002:00000848       ??_7bad_array_new_length@std@@6B@ 000000018003d848     priorityqueue_api.obj
 0002:00000858       ??_C@_0BF@KINCDENJ@bad?5array?5new?5length@ 000000018003d858     priorityqueue_api.obj
 0002:00000870       ?_Min_buckets@?$_Hash@V?$_Umap_traits@HV?$vector@NV?$allocator@N@std@@@std@@V?$_Uhash_compare@HU?$hash@H@std@@U?$equal_to@H@2@@2@V?$allocator@U?$pair@$$CBHV?$vector@NV?$allocator@N@std@@@std@@@std@@@2@$0A@@std@@@std@@2_KB 000000018003d870     priorityqueue_api.obj
 0002:00000880       ??_C@_1JC@BAEHGAKK@?$AAC?$AA?3?$AA?2?$AAP?$AAr?$AAo?$AAg?$AAr?$AAa?$AAm?$AA?5?$AAF?$AAi?$AAl?$AAe@ 000000018003d880     priorityqueue_api.obj
 0002:00000918       ??_C@_1BK@HMDPMLHC@?$AAd?$AAa?$AAt?$AAa?$AAD?$AAi?$AAm?$AA?5?$AA?$DO?$AA?$DN?$AA?5?$AA0@ 000000018003d918     priorityqueue_api.obj
 0002:00000938       ?_Min_buckets@?$_Hash@V?$_Umap_traits@HHV?$_Uhash_compare@HU?$hash@H@std@@U?$equal_to@H@2@@std@@V?$allocator@U?$pair@$$CBHH@std@@@2@$0A@@std@@@std@@2_KB 000000018003d938     priorityqueue_api.obj
 0002:00000940       ??_C@_1CK@EPDBDGNJ@?$AAD?$AAa?$AAt?$AAa?$AAD?$AAi?$AAm?$AA?5?$AA?$DO?$AA?5?$AAP?$AAr?$AAi?$AAm?$AAe@ 000000018003d940     priorityqueue_api.obj
 0002:00000970       ??_C@_1CA@GIHBCFAE@?$AAP?$AAr?$AAi?$AAm?$AAe?$AAI?$AAn?$AAd?$AAe?$AAx?$AA?5?$AA?$DO?$AA?$DN?$AA?5?$AA0@ 000000018003d970     priorityqueue_api.obj
 0002:00000990       ??_C@_0BL@GOIGLPKN@unordered_map?1set?5too?5long@ 000000018003d990     priorityqueue_api.obj
 0002:000009b0       ??_C@_0BK@OGNNAFAB@invalid?5hash?5bucket?5count@ 000000018003d9b0     priorityqueue_api.obj
 0002:000009d0       ??_C@_0BA@FOIKENOD@vector?5too?5long@ 000000018003d9d0     priorityqueue_api.obj
 0002:000009e0       __real@3f800000            000000018003d9e0     priorityqueue_api.obj
 0002:000009e4       __real@5f000000            000000018003d9e4     priorityqueue_api.obj
 0002:000009e8       __real@7ff8000000000000    000000018003d9e8     priorityqueue_api.obj
 0002:00000a08       ??_7type_info@@6B@         000000018003da08     MSVCRT:std_type_info_static.obj
 0002:00000a10       _pDefaultRawDllMain        000000018003da10     MSVCRT:dll_dllmain.obj
 0002:00000a10       _pRawDllMain               000000018003da10     MSVCRT:dll_dllmain.obj
 0002:00000a18       ??_C@_0P@GHFPNOJB@bad?5allocation@ 000000018003da18     MSVCRT:throw_bad_alloc.obj
 0002:00000a30       __xmm@ffffffffffffffffffffffffffffffff 000000018003da30     MSVCRT:utility.obj
 0002:00000a40       _load_config_used          000000018003da40     MSVCRT:loadcfg.obj
 0002:00000c00       __CastGuardVftablesStart   000000018003dc00     MSVCRT:guard_support.obj
 0002:00000c80       __CastGuardVftablesEnd     000000018003dc80     MSVCRT:guard_support.obj
 0002:00000d00       ??_R4exception@std@@6B@    000000018003dd00     priorityqueue_api.obj
 0002:00000d28       ??_R3exception@std@@8      000000018003dd28     priorityqueue_api.obj
 0002:00000d40       ??_R2exception@std@@8      000000018003dd40     priorityqueue_api.obj
 0002:00000d50       ??_R1A@?0A@EA@exception@std@@8 000000018003dd50     priorityqueue_api.obj
 0002:00000d78       ??_R4bad_alloc@std@@6B@    000000018003dd78     priorityqueue_api.obj
 0002:00000da0       ??_R3bad_alloc@std@@8      000000018003dda0     priorityqueue_api.obj
 0002:00000db8       ??_R2bad_alloc@std@@8      000000018003ddb8     priorityqueue_api.obj
 0002:00000dd0       ??_R1A@?0A@EA@bad_alloc@std@@8 000000018003ddd0     priorityqueue_api.obj
 0002:00000df8       ??_R4bad_array_new_length@std@@6B@ 000000018003ddf8     priorityqueue_api.obj
 0002:00000e20       ??_R3bad_array_new_length@std@@8 000000018003de20     priorityqueue_api.obj
 0002:00000e38       ??_R2bad_array_new_length@std@@8 000000018003de38     priorityqueue_api.obj
 0002:00000e58       ??_R1A@?0A@EA@bad_array_new_length@std@@8 000000018003de58     priorityqueue_api.obj
 0002:00000e80       ??_R4type_info@@6B@        000000018003de80     MSVCRT:std_type_info_static.obj
 0002:00000ea8       ??_R3type_info@@8          000000018003dea8     MSVCRT:std_type_info_static.obj
 0002:00000ec0       ??_R2type_info@@8          000000018003dec0     MSVCRT:std_type_info_static.obj
 0002:00000ed0       ??_R1A@?0A@EA@type_info@@8 000000018003ded0     MSVCRT:std_type_info_static.obj
 0002:00000ef4       __volatile_metadata        000000018003def4     <linker-defined>
 0002:000013e0       __rtc_iaa                  000000018003e3e0     MSVCRT:initsect.obj
 0002:000013e8       __rtc_izz                  000000018003e3e8     MSVCRT:initsect.obj
 0002:000013f0       __rtc_taa                  000000018003e3f0     MSVCRT:initsect.obj
 0002:000013f8       __rtc_tzz                  000000018003e3f8     MSVCRT:initsect.obj
 0002:00003510       _CT??_R0?AVexception@std@@@8??0exception@std@@QEAA@AEBV01@@Z24 0000000180040510     priorityqueue_api.obj
 0002:00003538       _TI3?AVbad_array_new_length@std@@ 0000000180040538     priorityqueue_api.obj
 0002:00003558       _CTA3?AVbad_array_new_length@std@@ 0000000180040558     priorityqueue_api.obj
 0002:00003578       _CT??_R0?AVbad_array_new_length@std@@@8??0bad_array_new_length@std@@QEAA@AEBV01@@Z24 0000000180040578     priorityqueue_api.obj
 0002:000035a0       _CT??_R0?AVbad_alloc@std@@@8??0bad_alloc@std@@QEAA@AEBV01@@Z24 00000001800405a0     priorityqueue_api.obj
 0002:000035c8       _TI2?AVbad_alloc@std@@     00000001800405c8     MSVCRT:throw_bad_alloc.obj
 0002:000035e8       _CTA2?AVbad_alloc@std@@    00000001800405e8     MSVCRT:throw_bad_alloc.obj
 0002:00003688       __IMPORT_DESCRIPTOR_sf_runtime 0000000180040688     sf_runtime:sf_runtime.dll
 0002:0000369c       __IMPORT_DESCRIPTOR_libmx  000000018004069c     libmx:libmx.dll
 0002:000036b0       __IMPORT_DESCRIPTOR_libmex 00000001800406b0     libmex:libmex.dll
 0002:000036c4       __IMPORT_DESCRIPTOR_libut  00000001800406c4     libut:libut.dll
 0002:000036d8       __IMPORT_DESCRIPTOR_libmwmathutil 00000001800406d8     libmwmathutil:libmwmathutil.dll
 0002:000036ec       __IMPORT_DESCRIPTOR_libemlrt 00000001800406ec     libemlrt:libemlrt.dll
 0002:00003700       __IMPORT_DESCRIPTOR_libcovrt 0000000180040700     libcovrt:libcovrt.dll
 0002:00003714       __IMPORT_DESCRIPTOR_MSVCP140 0000000180040714     msvcprt:MSVCP140.dll
 0002:00003728       __IMPORT_DESCRIPTOR_KERNEL32 0000000180040728     kernel32:KERNEL32.dll
 0002:0000373c       __IMPORT_DESCRIPTOR_VCRUNTIME140 000000018004073c     vcruntime:VCRUNTIME140.dll
 0002:00003750       __IMPORT_DESCRIPTOR_VCRUNTIME140_1 0000000180040750     vcruntime:VCRUNTIME140_1.dll
 0002:00003764       __IMPORT_DESCRIPTOR_api-ms-win-crt-string-l1-1-0 0000000180040764     ucrt:api-ms-win-crt-string-l1-1-0.dll
 0002:00003778       __IMPORT_DESCRIPTOR_api-ms-win-crt-math-l1-1-0 0000000180040778     ucrt:api-ms-win-crt-math-l1-1-0.dll
 0002:0000378c       __IMPORT_DESCRIPTOR_api-ms-win-crt-stdio-l1-1-0 000000018004078c     ucrt:api-ms-win-crt-stdio-l1-1-0.dll
 0002:000037a0       __IMPORT_DESCRIPTOR_api-ms-win-crt-heap-l1-1-0 00000001800407a0     ucrt:api-ms-win-crt-heap-l1-1-0.dll
 0002:000037b4       __IMPORT_DESCRIPTOR_api-ms-win-crt-runtime-l1-1-0 00000001800407b4     ucrt:api-ms-win-crt-runtime-l1-1-0.dll
 0002:000037c8       __NULL_IMPORT_DESCRIPTOR   00000001800407c8     sf_runtime:sf_runtime.dll
 0003:000134c0       DYNAMIC_DIMENSION          00000001800554c0     sl_groundvehicleDynamics_sfun_registry.obj
 0003:00015bc0       __security_cookie          0000000180057bc0     MSVCRT:gs_cookie.obj
 0003:00015c00       __security_cookie_complement 0000000180057c00     MSVCRT:gs_cookie.obj
 0003:00015c08       _fltused                   0000000180057c08     MSVCRT:fltused.obj
 0003:00015c10       __scrt_native_dllmain_reason 0000000180057c10     MSVCRT:utility.obj
 0003:00015c18       __isa_available            0000000180057c18     MSVCRT:cpu_disp.obj
 0003:00015c1c       __isa_enabled              0000000180057c1c     MSVCRT:cpu_disp.obj
 0003:00015c20       __memset_fast_string_threshold 0000000180057c20     MSVCRT:cpu_disp.obj
 0003:00015c28       __memset_nt_threshold      0000000180057c28     MSVCRT:cpu_disp.obj
 0003:00015c30       __scrt_ucrt_dll_is_in_use  0000000180057c30     MSVCRT:ucrt_stubs.obj
 0003:00015c38       ??_R0?AVexception@std@@@8  0000000180057c38     priorityqueue_api.obj
 0003:00015c60       ??_R0?AVbad_array_new_length@std@@@8 0000000180057c60     priorityqueue_api.obj
 0003:00015c90       ??_R0?AVbad_alloc@std@@@8  0000000180057c90     priorityqueue_api.obj
 0003:00015cb8       ??_R0?AVtype_info@@@8      0000000180057cb8     MSVCRT:std_type_info_static.obj
 0003:00016b30       ?__type_info_root_node@@3U__type_info_node@@A 0000000180058b30     MSVCRT:tncleanup.obj
 0003:00016b40       ?_OptionsStorage@?1??__local_stdio_printf_options@@9@4_KA 0000000180058b40     MSVCRT:default_local_stdio_options.obj
 0003:00016b48       ?_OptionsStorage@?1??__local_stdio_scanf_options@@9@4_KA 0000000180058b48     MSVCRT:default_local_stdio_options.obj
 0003:00016b50       __scrt_current_native_startup_state 0000000180058b50     MSVCRT:utility.obj
 0003:00016b58       __scrt_native_startup_lock 0000000180058b58     MSVCRT:utility.obj
 0003:00016b98       __scrt_debugger_hook_flag  0000000180058b98     MSVCRT:utility_desktop.obj
 0003:00016ba0       __castguard_check_failure_user_handled_fptr 0000000180058ba0     MSVCRT:guard_support.obj
 0003:00016ba8       __favor                    0000000180058ba8     MSVCRT:cpu_disp.obj
 0003:00016bb0       ?_OptionsStorage@?1??__local_stdio_printf_options@@9@9 0000000180058bb0     <common>
 0003:00016bb8       __dyn_tls_init_callback    0000000180058bb8     <common>

 entry point at        0001:0003a4cc

 Static symbols

 0000:00000000       _volmd                     0000000180000000     c5_sl_groundvehicleDynamics.obj
 0000:00000000       _volmd                     0000000180000000     priorityqueue_api.obj
 0000:00000000       _volmd                     0000000180000000     priorityqueue_api.obj
 0000:00000000       _volmd                     0000000180000000     priorityqueue_api.obj
 0000:00000000       .debug$S                   0000000180000000     sl_groundvehicleDynamics_sfun.exp
 0000:00000000       _volmd                     0000000180000000     sl_groundvehicleDynamics_sfun.obj
 0000:00000000       _volmd                     0000000180000000     sl_groundvehicleDynamics_sfun_registry.obj
 0000:00000000       .debug$S                   0000000180000000     ucrt:api-ms-win-crt-heap-l1-1-0.dll
 0000:00000000       .debug$S                   0000000180000000     ucrt:api-ms-win-crt-heap-l1-1-0.dll
 0000:00000000       .debug$S                   0000000180000000     ucrt:api-ms-win-crt-heap-l1-1-0.dll
 0000:00000000       .debug$S                   0000000180000000     ucrt:api-ms-win-crt-math-l1-1-0.dll
 0000:00000000       .debug$S                   0000000180000000     ucrt:api-ms-win-crt-math-l1-1-0.dll
 0000:00000000       .debug$S                   0000000180000000     ucrt:api-ms-win-crt-math-l1-1-0.dll
 0000:00000000       .debug$S                   0000000180000000     ucrt:api-ms-win-crt-runtime-l1-1-0.dll
 0000:00000000       .debug$S                   0000000180000000     ucrt:api-ms-win-crt-runtime-l1-1-0.dll
 0000:00000000       .debug$S                   0000000180000000     ucrt:api-ms-win-crt-runtime-l1-1-0.dll
 0000:00000000       .debug$S                   0000000180000000     ucrt:api-ms-win-crt-runtime-l1-1-0.dll
 0000:00000000       .debug$S                   0000000180000000     ucrt:api-ms-win-crt-runtime-l1-1-0.dll
 0000:00000000       .debug$S                   0000000180000000     ucrt:api-ms-win-crt-runtime-l1-1-0.dll
 0000:00000000       .debug$S                   0000000180000000     ucrt:api-ms-win-crt-runtime-l1-1-0.dll
 0000:00000000       .debug$S                   0000000180000000     ucrt:api-ms-win-crt-runtime-l1-1-0.dll
 0000:00000000       .debug$S                   0000000180000000     ucrt:api-ms-win-crt-runtime-l1-1-0.dll
 0000:00000000       .debug$S                   0000000180000000     ucrt:api-ms-win-crt-runtime-l1-1-0.dll
 0000:00000000       .debug$S                   0000000180000000     ucrt:api-ms-win-crt-runtime-l1-1-0.dll
 0000:00000000       .debug$S                   0000000180000000     ucrt:api-ms-win-crt-runtime-l1-1-0.dll
 0000:00000000       .debug$S                   0000000180000000     ucrt:api-ms-win-crt-runtime-l1-1-0.dll
 0000:00000000       .debug$S                   0000000180000000     ucrt:api-ms-win-crt-runtime-l1-1-0.dll
 0000:00000000       .debug$S                   0000000180000000     ucrt:api-ms-win-crt-stdio-l1-1-0.dll
 0000:00000000       .debug$S                   0000000180000000     ucrt:api-ms-win-crt-string-l1-1-0.dll
 0000:00000000       .debug$S                   0000000180000000     ucrt:api-ms-win-crt-string-l1-1-0.dll
 0000:00000000       .debug$S                   0000000180000000     ucrt:api-ms-win-crt-string-l1-1-0.dll
 0000:00000000       .debug$S                   0000000180000000     kernel32:KERNEL32.dll
 0000:00000000       .debug$S                   0000000180000000     kernel32:KERNEL32.dll
 0000:00000000       .debug$S                   0000000180000000     kernel32:KERNEL32.dll
 0000:00000000       .debug$S                   0000000180000000     kernel32:KERNEL32.dll
 0000:00000000       .debug$S                   0000000180000000     kernel32:KERNEL32.dll
 0000:00000000       .debug$S                   0000000180000000     kernel32:KERNEL32.dll
 0000:00000000       .debug$S                   0000000180000000     kernel32:KERNEL32.dll
 0000:00000000       .debug$S                   0000000180000000     kernel32:KERNEL32.dll
 0000:00000000       .debug$S                   0000000180000000     kernel32:KERNEL32.dll
 0000:00000000       .debug$S                   0000000180000000     kernel32:KERNEL32.dll
 0000:00000000       .debug$S                   0000000180000000     kernel32:KERNEL32.dll
 0000:00000000       .debug$S                   0000000180000000     kernel32:KERNEL32.dll
 0000:00000000       .debug$S                   0000000180000000     kernel32:KERNEL32.dll
 0000:00000000       .debug$S                   0000000180000000     kernel32:KERNEL32.dll
 0000:00000000       .debug$S                   0000000180000000     kernel32:KERNEL32.dll
 0000:00000000       .debug$S                   0000000180000000     kernel32:KERNEL32.dll
 0000:00000000       .debug$S                   0000000180000000     kernel32:KERNEL32.dll
 0000:00000000       .debug$S                   0000000180000000     libcovrt:libcovrt.dll
 0000:00000000       .debug$S                   0000000180000000     libcovrt:libcovrt.dll
 0000:00000000       .debug$S                   0000000180000000     libcovrt:libcovrt.dll
 0000:00000000       .debug$S                   0000000180000000     libcovrt:libcovrt.dll
 0000:00000000       .debug$S                   0000000180000000     libcovrt:libcovrt.dll
 0000:00000000       .debug$S                   0000000180000000     libcovrt:libcovrt.dll
 0000:00000000       .debug$S                   0000000180000000     libcovrt:libcovrt.dll
 0000:00000000       .debug$S                   0000000180000000     libcovrt:libcovrt.dll
 0000:00000000       .debug$S                   0000000180000000     libcovrt:libcovrt.dll
 0000:00000000       .debug$S                   0000000180000000     libcovrt:libcovrt.dll
 0000:00000000       .debug$S                   0000000180000000     libcovrt:libcovrt.dll
 0000:00000000       .debug$S                   0000000180000000     libcovrt:libcovrt.dll
 0000:00000000       .debug$S                   0000000180000000     libcovrt:libcovrt.dll
 0000:00000000       .debug$S                   0000000180000000     libcovrt:libcovrt.dll
 0000:00000000       .debug$S                   0000000180000000     libcovrt:libcovrt.dll
 0000:00000000       .debug$S                   0000000180000000     libcovrt:libcovrt.dll
 0000:00000000       .debug$S                   0000000180000000     libemlrt:libemlrt.dll
 0000:00000000       .debug$S                   0000000180000000     libemlrt:libemlrt.dll
 0000:00000000       .debug$S                   0000000180000000     libemlrt:libemlrt.dll
 0000:00000000       .debug$S                   0000000180000000     libemlrt:libemlrt.dll
 0000:00000000       .debug$S                   0000000180000000     libemlrt:libemlrt.dll
 0000:00000000       .debug$S                   0000000180000000     libemlrt:libemlrt.dll
 0000:00000000       .debug$S                   0000000180000000     libemlrt:libemlrt.dll
 0000:00000000       .debug$S                   0000000180000000     libemlrt:libemlrt.dll
 0000:00000000       .debug$S                   0000000180000000     libemlrt:libemlrt.dll
 0000:00000000       .debug$S                   0000000180000000     libemlrt:libemlrt.dll
 0000:00000000       .debug$S                   0000000180000000     libemlrt:libemlrt.dll
 0000:00000000       .debug$S                   0000000180000000     libemlrt:libemlrt.dll
 0000:00000000       .debug$S                   0000000180000000     libemlrt:libemlrt.dll
 0000:00000000       .debug$S                   0000000180000000     libemlrt:libemlrt.dll
 0000:00000000       .debug$S                   0000000180000000     libemlrt:libemlrt.dll
 0000:00000000       .debug$S                   0000000180000000     libmex:libmex.dll
 0000:00000000       .debug$S                   0000000180000000     libmex:libmex.dll
 0000:00000000       .debug$S                   0000000180000000     libmex:libmex.dll
 0000:00000000       .debug$S                   0000000180000000     libmex:libmex.dll
 0000:00000000       .debug$S                   0000000180000000     libmex:libmex.dll
 0000:00000000       .debug$S                   0000000180000000     libmex:libmex.dll
 0000:00000000       .debug$S                   0000000180000000     libmex:libmex.dll
 0000:00000000       .debug$S                   0000000180000000     libmwmathutil:libmwmathutil.dll
 0000:00000000       .debug$S                   0000000180000000     libmwmathutil:libmwmathutil.dll
 0000:00000000       .debug$S                   0000000180000000     libmwmathutil:libmwmathutil.dll
 0000:00000000       .debug$S                   0000000180000000     libmwmathutil:libmwmathutil.dll
 0000:00000000       .debug$S                   0000000180000000     libmwmathutil:libmwmathutil.dll
 0000:00000000       .debug$S                   0000000180000000     libmwmathutil:libmwmathutil.dll
 0000:00000000       .debug$S                   0000000180000000     libmwmathutil:libmwmathutil.dll
 0000:00000000       .debug$S                   0000000180000000     libmwmathutil:libmwmathutil.dll
 0000:00000000       .debug$S                   0000000180000000     libmwmathutil:libmwmathutil.dll
 0000:00000000       .debug$S                   0000000180000000     libmwmathutil:libmwmathutil.dll
 0000:00000000       .debug$S                   0000000180000000     libmx:libmx.dll
 0000:00000000       .debug$S                   0000000180000000     libmx:libmx.dll
 0000:00000000       .debug$S                   0000000180000000     libmx:libmx.dll
 0000:00000000       .debug$S                   0000000180000000     libmx:libmx.dll
 0000:00000000       .debug$S                   0000000180000000     libmx:libmx.dll
 0000:00000000       .debug$S                   0000000180000000     libmx:libmx.dll
 0000:00000000       .debug$S                   0000000180000000     libmx:libmx.dll
 0000:00000000       .debug$S                   0000000180000000     libmx:libmx.dll
 0000:00000000       .debug$S                   0000000180000000     libmx:libmx.dll
 0000:00000000       .debug$S                   0000000180000000     libmx:libmx.dll
 0000:00000000       .debug$S                   0000000180000000     libmx:libmx.dll
 0000:00000000       .debug$S                   0000000180000000     libmx:libmx.dll
 0000:00000000       .debug$S                   0000000180000000     libmx:libmx.dll
 0000:00000000       .debug$S                   0000000180000000     libmx:libmx.dll
 0000:00000000       .debug$S                   0000000180000000     libmx:libmx.dll
 0000:00000000       .debug$S                   0000000180000000     libmx:libmx.dll
 0000:00000000       .debug$S                   0000000180000000     libmx:libmx.dll
 0000:00000000       .debug$S                   0000000180000000     libmx:libmx.dll
 0000:00000000       .debug$S                   0000000180000000     libmx:libmx.dll
 0000:00000000       .debug$S                   0000000180000000     libmx:libmx.dll
 0000:00000000       .debug$S                   0000000180000000     libmx:libmx.dll
 0000:00000000       .debug$S                   0000000180000000     libmx:libmx.dll
 0000:00000000       .debug$S                   0000000180000000     libut:libut.dll
 0000:00000000       .debug$S                   0000000180000000     libut:libut.dll
 0000:00000000       .debug$S                   0000000180000000     sf_runtime:sf_runtime.dll
 0000:00000000       .debug$S                   0000000180000000     sf_runtime:sf_runtime.dll
 0000:00000000       .debug$S                   0000000180000000     sf_runtime:sf_runtime.dll
 0000:00000000       .debug$S                   0000000180000000     sf_runtime:sf_runtime.dll
 0000:00000000       .debug$S                   0000000180000000     sf_runtime:sf_runtime.dll
 0000:00000000       .debug$S                   0000000180000000     sf_runtime:sf_runtime.dll
 0000:00000000       .debug$S                   0000000180000000     sf_runtime:sf_runtime.dll
 0000:00000000       .debug$S                   0000000180000000     sf_runtime:sf_runtime.dll
 0000:00000000       .debug$S                   0000000180000000     sf_runtime:sf_runtime.dll
 0000:00000000       .debug$S                   0000000180000000     sf_runtime:sf_runtime.dll
 0000:00000000       .debug$S                   0000000180000000     sf_runtime:sf_runtime.dll
 0000:00000000       .debug$S                   0000000180000000     sf_runtime:sf_runtime.dll
 0000:00000000       .debug$S                   0000000180000000     sf_runtime:sf_runtime.dll
 0000:00000000       .debug$S                   0000000180000000     sf_runtime:sf_runtime.dll
 0000:00000000       .debug$S                   0000000180000000     sf_runtime:sf_runtime.dll
 0000:00000000       .debug$S                   0000000180000000     sf_runtime:sf_runtime.dll
 0000:00000000       .debug$S                   0000000180000000     sf_runtime:sf_runtime.dll
 0000:00000000       .debug$S                   0000000180000000     sf_runtime:sf_runtime.dll
 0000:00000000       .debug$S                   0000000180000000     sf_runtime:sf_runtime.dll
 0000:00000000       .debug$S                   0000000180000000     sf_runtime:sf_runtime.dll
 0000:00000000       .debug$S                   0000000180000000     sf_runtime:sf_runtime.dll
 0000:00000000       .debug$S                   0000000180000000     sf_runtime:sf_runtime.dll
 0000:00000000       .debug$S                   0000000180000000     sf_runtime:sf_runtime.dll
 0000:00000000       .debug$S                   0000000180000000     sf_runtime:sf_runtime.dll
 0000:00000000       .debug$S                   0000000180000000     sf_runtime:sf_runtime.dll
 0000:00000000       .debug$S                   0000000180000000     sf_runtime:sf_runtime.dll
 0000:00000000       .debug$S                   0000000180000000     sf_runtime:sf_runtime.dll
 0000:00000000       .debug$S                   0000000180000000     sf_runtime:sf_runtime.dll
 0000:00000000       .debug$S                   0000000180000000     sf_runtime:sf_runtime.dll
 0000:00000000       .debug$S                   0000000180000000     sf_runtime:sf_runtime.dll
 0000:00000000       .debug$S                   0000000180000000     sf_runtime:sf_runtime.dll
 0000:00000000       .debug$S                   0000000180000000     sf_runtime:sf_runtime.dll
 0000:00000000       .debug$S                   0000000180000000     sf_runtime:sf_runtime.dll
 0000:00000000       .debug$S                   0000000180000000     sf_runtime:sf_runtime.dll
 0000:00000000       .debug$S                   0000000180000000     sf_runtime:sf_runtime.dll
 0000:00000000       .debug$S                   0000000180000000     sf_runtime:sf_runtime.dll
 0000:00000000       .debug$S                   0000000180000000     sf_runtime:sf_runtime.dll
 0000:00000000       .debug$S                   0000000180000000     sf_runtime:sf_runtime.dll
 0000:00000000       .debug$S                   0000000180000000     sf_runtime:sf_runtime.dll
 0000:00000000       .debug$S                   0000000180000000     sf_runtime:sf_runtime.dll
 0000:00000000       .debug$S                   0000000180000000     sf_runtime:sf_runtime.dll
 0000:00000000       .debug$S                   0000000180000000     sf_runtime:sf_runtime.dll
 0000:00000000       .debug$S                   0000000180000000     sf_runtime:sf_runtime.dll
 0000:00000000       _volmd                     0000000180000000     MSVCRT:cpu_disp.obj
 0002:fffc3000       __guard_ehcont_?dllmain_dispatch@@YAHQEAUHINSTANCE__@@KQEAX@Z 0000000180000000     MSVCRT:dll_dllmain.obj
 0002:fffc3000       __guard_fids_?dllmain_dispatch@@YAHQEAUHINSTANCE__@@KQEAX@Z 0000000180000000     MSVCRT:dll_dllmain.obj
 0000:00000000       _volmd                     0000000180000000     MSVCRT:gs_report.obj
 0000:00000000       _volmd                     0000000180000000     MSVCRT:gs_report.obj
 0000:00000000       _volmd                     0000000180000000     MSVCRT:gs_report.obj
 0002:fffc3000       __guard_fids__             0000000180000000     MSVCRT:guard_support.obj
 0002:fffc3000       __guard_fids__             0000000180000000     MSVCRT:guard_support.obj
 0002:fffc3000       __guard_fids__guard_icall_checks_enforced 0000000180000000     MSVCRT:guard_support.obj
 0000:00000000       _volmd                     0000000180000000     MSVCRT:guard_support.obj
 0000:00000000       _volmd                     0000000180000000     MSVCRT:guard_support.obj
 0000:00000000       _volmd                     0000000180000000     MSVCRT:guard_support.obj
 0000:00000000       _volmd                     0000000180000000     MSVCRT:guard_support.obj
 0000:00000000       _volmd                     0000000180000000     MSVCRT:guard_support.obj
 0000:00000000       _volmd                     0000000180000000     MSVCRT:guard_support.obj
 0000:00000000       _volmd                     0000000180000000     MSVCRT:guard_support.obj
 0000:00000000       _volmd                     0000000180000000     MSVCRT:guard_support.obj
 0000:00000000       _volmd                     0000000180000000     MSVCRT:guard_support.obj
 0000:00000000       _volmd                     0000000180000000     MSVCRT:guard_support.obj
 0002:fffc3000       __guard_fids__             0000000180000000     MSVCRT:std_type_info_static.obj
 0002:fffc3000       $unwind$??0bad_alloc@std@@QEAA@AEBV01@@Z 0000000180000000     MSVCRT:throw_bad_alloc.obj
 0002:fffc3000       $unwind$??0bad_array_new_length@std@@QEAA@AEBV01@@Z 0000000180000000     MSVCRT:throw_bad_alloc.obj
 0002:fffc3000       $unwind$??0exception@std@@QEAA@AEBV01@@Z 0000000180000000     MSVCRT:throw_bad_alloc.obj
 0002:fffc3000       $unwind$??_Gbad_alloc@std@@UEAAPEAXI@Z 0000000180000000     MSVCRT:throw_bad_alloc.obj
 0002:fffc3000       $unwind$??_Gbad_array_new_length@std@@UEAAPEAXI@Z 0000000180000000     MSVCRT:throw_bad_alloc.obj
 0002:fffc3000       $unwind$??_Gexception@std@@UEAAPEAXI@Z 0000000180000000     MSVCRT:throw_bad_alloc.obj
 0002:fffc3000       __guard_fids__             0000000180000000     MSVCRT:throw_bad_alloc.obj
 0002:fffc3000       __guard_fids__             0000000180000000     MSVCRT:throw_bad_alloc.obj
 0002:fffc3000       __guard_fids__             0000000180000000     MSVCRT:throw_bad_alloc.obj
 0002:fffc3000       __guard_ehcont___scrt_is_nonwritable_in_current_image 0000000180000000     MSVCRT:utility.obj
 0000:00000000       _volmd                     0000000180000000     MSVCRT:utility.obj
 0000:00000000       _volmd                     0000000180000000     MSVCRT:utility.obj
 0000:00000000       _volmd                     0000000180000000     MSVCRT:utility.obj
 0002:fffc3000       __guard_fids___scrt_set_unhandled_exception_filter 0000000180000000     MSVCRT:utility_desktop.obj
 0000:00000000       _volmd                     0000000180000000     MSVCRT:utility_desktop.obj
 0000:00000000       .debug$S                   0000000180000000     msvcprt:MSVCP140.dll
 0002:fffc3000       __guard_fids__             0000000180000000     vcruntime:softmemtag.obj
 0000:00000000       .debug$S                   0000000180000000     vcruntime:VCRUNTIME140.dll
 0000:00000000       .debug$S                   0000000180000000     vcruntime:VCRUNTIME140.dll
 0000:00000000       .debug$S                   0000000180000000     vcruntime:VCRUNTIME140.dll
 0000:00000000       .debug$S                   0000000180000000     vcruntime:VCRUNTIME140.dll
 0000:00000000       .debug$S                   0000000180000000     vcruntime:VCRUNTIME140.dll
 0000:00000000       .debug$S                   0000000180000000     vcruntime:VCRUNTIME140.dll
 0000:00000000       .debug$S                   0000000180000000     vcruntime:VCRUNTIME140.dll
 0000:00000000       .debug$S                   0000000180000000     vcruntime:VCRUNTIME140.dll
 0000:00000000       .debug$S                   0000000180000000     vcruntime:VCRUNTIME140.dll
 0000:00000000       .debug$S                   0000000180000000     vcruntime:VCRUNTIME140.dll
 0000:00000000       .debug$S                   0000000180000000     vcruntime:VCRUNTIME140.dll
 0000:00000000       .debug$S                   0000000180000000     vcruntime:VCRUNTIME140_1.dll
 0000:00000010       _volmd                     0000000180000010     c5_sl_groundvehicleDynamics.obj
 0000:00000010       _volmd                     0000000180000010     sl_groundvehicleDynamics_sfun.obj
 0000:00000010       _volmd                     0000000180000010     sl_groundvehicleDynamics_sfun_registry.obj
 0000:00000020       _volmd                     0000000180000020     c5_sl_groundvehicleDynamics.obj
 0000:00000020       _volmd                     0000000180000020     sl_groundvehicleDynamics_sfun.obj
 0000:00000020       _volmd                     0000000180000020     sl_groundvehicleDynamics_sfun_registry.obj
 0000:00000030       _volmd                     0000000180000030     c5_sl_groundvehicleDynamics.obj
 0000:00000030       _volmd                     0000000180000030     sl_groundvehicleDynamics_sfun.obj
 0000:00000030       _volmd                     0000000180000030     sl_groundvehicleDynamics_sfun_registry.obj
 0000:00000040       _volmd                     0000000180000040     c5_sl_groundvehicleDynamics.obj
 0000:00000040       _volmd                     0000000180000040     sl_groundvehicleDynamics_sfun.obj
 0000:00000040       _volmd                     0000000180000040     sl_groundvehicleDynamics_sfun_registry.obj
 0000:00000050       _volmd                     0000000180000050     c5_sl_groundvehicleDynamics.obj
 0000:00000050       _volmd                     0000000180000050     sl_groundvehicleDynamics_sfun.obj
 0000:00000050       _volmd                     0000000180000050     sl_groundvehicleDynamics_sfun_registry.obj
 0000:00000060       _volmd                     0000000180000060     c5_sl_groundvehicleDynamics.obj
 0000:00000060       _volmd                     0000000180000060     sl_groundvehicleDynamics_sfun_registry.obj
 0000:00000070       _volmd                     0000000180000070     c5_sl_groundvehicleDynamics.obj
 0000:00000070       _volmd                     0000000180000070     sl_groundvehicleDynamics_sfun_registry.obj
 0000:00000080       _volmd                     0000000180000080     c5_sl_groundvehicleDynamics.obj
 0000:00000080       _volmd                     0000000180000080     sl_groundvehicleDynamics_sfun_registry.obj
 0000:00000090       _volmd                     0000000180000090     c5_sl_groundvehicleDynamics.obj
 0000:00000090       _volmd                     0000000180000090     sl_groundvehicleDynamics_sfun_registry.obj
 0000:000000a0       _volmd                     00000001800000a0     c5_sl_groundvehicleDynamics.obj
 0000:000000a0       _volmd                     00000001800000a0     sl_groundvehicleDynamics_sfun_registry.obj
 0000:000000b0       _volmd                     00000001800000b0     c5_sl_groundvehicleDynamics.obj
 0000:000000b0       _volmd                     00000001800000b0     sl_groundvehicleDynamics_sfun_registry.obj
 0000:000000c0       _volmd                     00000001800000c0     c5_sl_groundvehicleDynamics.obj
 0000:000000c0       _volmd                     00000001800000c0     sl_groundvehicleDynamics_sfun_registry.obj
 0000:000000d0       _volmd                     00000001800000d0     c5_sl_groundvehicleDynamics.obj
 0000:000000d0       _volmd                     00000001800000d0     sl_groundvehicleDynamics_sfun_registry.obj
 0000:000000e0       _volmd                     00000001800000e0     c5_sl_groundvehicleDynamics.obj
 0000:000000e0       _volmd                     00000001800000e0     sl_groundvehicleDynamics_sfun_registry.obj
 0000:000000f0       _volmd                     00000001800000f0     c5_sl_groundvehicleDynamics.obj
 0000:000000f0       _volmd                     00000001800000f0     sl_groundvehicleDynamics_sfun_registry.obj
 0000:00000100       _volmd                     0000000180000100     c5_sl_groundvehicleDynamics.obj
 0000:00000100       _volmd                     0000000180000100     sl_groundvehicleDynamics_sfun_registry.obj
 0000:00000110       _volmd                     0000000180000110     c5_sl_groundvehicleDynamics.obj
 0000:00000120       _volmd                     0000000180000120     c5_sl_groundvehicleDynamics.obj
 0000:00000130       _volmd                     0000000180000130     c5_sl_groundvehicleDynamics.obj
 0000:00000140       _volmd                     0000000180000140     c5_sl_groundvehicleDynamics.obj
 0000:00000150       _volmd                     0000000180000150     c5_sl_groundvehicleDynamics.obj
 0000:00000160       _volmd                     0000000180000160     c5_sl_groundvehicleDynamics.obj
 0000:00000170       _volmd                     0000000180000170     c5_sl_groundvehicleDynamics.obj
 0001:00001150       initialize_c5_sl_groundvehicleDynamics 0000000180002150 f   c5_sl_groundvehicleDynamics.obj
 0001:00001240       initialize_params_c5_sl_groundvehicleDynamics 0000000180002240 f   c5_sl_groundvehicleDynamics.obj
 0001:00001250       mdl_start_c5_sl_groundvehicleDynamics 0000000180002250 f   c5_sl_groundvehicleDynamics.obj
 0001:000012b0       mdl_terminate_c5_sl_groundvehicleDynamics 00000001800022b0 f   c5_sl_groundvehicleDynamics.obj
 0001:00001300       mdl_setup_runtime_resources_c5_sl_groundvehicleDynamics 0000000180002300 f   c5_sl_groundvehicleDynamics.obj
 0001:00001bd0       mdl_cleanup_runtime_resources_c5_sl_groundvehicleDynamics 0000000180002bd0 f   c5_sl_groundvehicleDynamics.obj
 0001:00001c10       enable_c5_sl_groundvehicleDynamics 0000000180002c10 f   c5_sl_groundvehicleDynamics.obj
 0001:00001c40       disable_c5_sl_groundvehicleDynamics 0000000180002c40 f   c5_sl_groundvehicleDynamics.obj
 0001:00001c70       sf_gateway_c5_sl_groundvehicleDynamics 0000000180002c70 f   c5_sl_groundvehicleDynamics.obj
 0001:00004920       get_sim_state_c5_sl_groundvehicleDynamics 0000000180005920 f   c5_sl_groundvehicleDynamics.obj
 0001:00005070       set_sim_state_c5_sl_groundvehicleDynamics 0000000180006070 f   c5_sl_groundvehicleDynamics.obj
 0001:00005590       c5_path_gen                0000000180006590 f   c5_sl_groundvehicleDynamics.obj
 0001:000059f0       c5_binaryOccupancyMap_binaryOccupancyMap 00000001800069f0 f   c5_sl_groundvehicleDynamics.obj
 0001:00005fb0       c5_binaryOccupancyMap_inflate 0000000180006fb0 f   c5_sl_groundvehicleDynamics.obj
 0001:000077c0       c5_MapLayer_getValueAllImpl 00000001800087c0 f   c5_sl_groundvehicleDynamics.obj
 0001:00008550       c5_allinrange              0000000180009550 f   c5_sl_groundvehicleDynamics.obj
 0001:00008650       c5_MapInterface_world2grid 0000000180009650 f   c5_sl_groundvehicleDynamics.obj
 0001:00008710       c5_MapInterface_local2gridImpl 0000000180009710 f   c5_sl_groundvehicleDynamics.obj
 0001:00009100       c5_b_MapInterface_world2grid 000000018000a100 f   c5_sl_groundvehicleDynamics.obj
 0001:000091d0       c5_plannerAStarGrid_plannerAStarGrid 000000018000a1d0 f   c5_sl_groundvehicleDynamics.obj
 0001:00009f20       c5_plannerAStarGrid_setInputState 000000018000af20 f   c5_sl_groundvehicleDynamics.obj
 0001:0000a4c0       c5_ind2sub                 000000018000b4c0 f   c5_sl_groundvehicleDynamics.obj
 0001:0000a860       c5_validateAStarBuiltinCostFunction 000000018000b860 f   c5_sl_groundvehicleDynamics.obj
 0001:0000ae10       c5_plannerAStarGrid_plan   000000018000be10 f   c5_sl_groundvehicleDynamics.obj
 0001:0000cc40       c5_plannerAStarGrid_validateStartGoal 000000018000dc40 f   c5_sl_groundvehicleDynamics.obj
 0001:0000f0f0       c5_plannerAStarGrid_getNodeCostOMDefault 00000001800100f0 f   c5_sl_groundvehicleDynamics.obj
 0001:0000f590       c5_plannerAStarGrid_initializeInternalPlanner 0000000180010590 f   c5_sl_groundvehicleDynamics.obj
 0001:0000fcd0       c5_b_plannerAStarGrid_plannerAStarGrid 0000000180010cd0 f   c5_sl_groundvehicleDynamics.obj
 0001:00010190       c5_b_ind2sub               0000000180011190 f   c5_sl_groundvehicleDynamics.obj
 0001:000103c0       c5_plannerAStarGrid_runPlan 00000001800113c0 f   c5_sl_groundvehicleDynamics.obj
 0001:00015ec0       c5_plannerAStarGrid_getHeuristicMatrix 0000000180016ec0 f   c5_sl_groundvehicleDynamics.obj
 0001:00017030       c5_plannerAStarGrid_Chebyshev 0000000180018030 f   c5_sl_groundvehicleDynamics.obj
 0001:000174b0       c5_plannerAStarGrid_Euclidean 00000001800184b0 f   c5_sl_groundvehicleDynamics.obj
 0001:00017850       c5_sumColumnB              0000000180018850 f   c5_sl_groundvehicleDynamics.obj
 0001:000178b0       c5_plannerAStarGrid_getNeighbors 00000001800188b0 f   c5_sl_groundvehicleDynamics.obj
 0001:00017a30       c5_plannerAStarGrid_reconstructPath 0000000180018a30 f   c5_sl_groundvehicleDynamics.obj
 0001:00018ad0       c5_plannerAStarGrid_gcostValue 0000000180019ad0 f   c5_sl_groundvehicleDynamics.obj
 0001:00019790       c5_indexShapeCheck         000000018001a790 f   c5_sl_groundvehicleDynamics.obj
 0001:000197a0       c5_plannerAStarGrid_getEssentialOutput 000000018001a7a0 f   c5_sl_groundvehicleDynamics.obj
 0001:0001ae00       c5_warning                 000000018001be00 f   c5_sl_groundvehicleDynamics.obj
 0001:0001afc0       c5_plannerAStarGrid_getPathOutput 000000018001bfc0 f   c5_sl_groundvehicleDynamics.obj
 0001:0001d2a0       c5_MapInterface_grid2worldImpl 000000018001e2a0 f   c5_sl_groundvehicleDynamics.obj
 0001:0001d480       c5_MapInterface_grid2localImpl 000000018001e480 f   c5_sl_groundvehicleDynamics.obj
 0001:0001e100       c5_MapInterface_local2worldImpl 000000018001f100 f   c5_sl_groundvehicleDynamics.obj
 0001:0001e2a0       c5_MapInterface_grid2world 000000018001f2a0 f   c5_sl_groundvehicleDynamics.obj
 0001:0001ee90       c5_b_MapInterface_grid2worldImpl 000000018001fe90 f   c5_sl_groundvehicleDynamics.obj
 0001:0001f090       c5_b_MapInterface_grid2localImpl 0000000180020090 f   c5_sl_groundvehicleDynamics.obj
 0001:0001fdf0       c5_b_path_gen              0000000180020df0 f   c5_sl_groundvehicleDynamics.obj
 0001:000202b0       c5_handle_matlabCodegenDestructor 00000001800212b0 f   c5_sl_groundvehicleDynamics.obj
 0001:00020300       c5_emlrt_marshallIn        0000000180021300 f   c5_sl_groundvehicleDynamics.obj
 0001:00020370       c5_b_emlrt_marshallIn      0000000180021370 f   c5_sl_groundvehicleDynamics.obj
 0001:00020470       c5_c_emlrt_marshallIn      0000000180021470 f   c5_sl_groundvehicleDynamics.obj
 0001:000204e0       c5_d_emlrt_marshallIn      00000001800214e0 f   c5_sl_groundvehicleDynamics.obj
 0001:00020570       c5_e_emlrt_marshallIn      0000000180021570 f   c5_sl_groundvehicleDynamics.obj
 0001:000205f0       c5_f_emlrt_marshallIn      00000001800215f0 f   c5_sl_groundvehicleDynamics.obj
 0001:000206b0       c5_g_emlrt_marshallIn      00000001800216b0 f   c5_sl_groundvehicleDynamics.obj
 0001:00020730       c5_h_emlrt_marshallIn      0000000180021730 f   c5_sl_groundvehicleDynamics.obj
 0001:00020960       c5_chart_data_browse_helper 0000000180021960 f   c5_sl_groundvehicleDynamics.obj
 0001:00020dc0       $LN16                      0000000180021dc0     c5_sl_groundvehicleDynamics.obj
 0001:00020e30       c5_hold                    0000000180021e30 f   c5_sl_groundvehicleDynamics.obj
 0001:00020ec0       c5_plot                    0000000180021ec0 f   c5_sl_groundvehicleDynamics.obj
 0001:00020fc0       c5_sprintf                 0000000180021fc0 f   c5_sl_groundvehicleDynamics.obj
 0001:00021090       c5_feval                   0000000180022090 f   c5_sl_groundvehicleDynamics.obj
 0001:00021160       c5_b_feval                 0000000180022160 f   c5_sl_groundvehicleDynamics.obj
 0001:00021200       c5_b_sqrt                  0000000180022200 f   c5_sl_groundvehicleDynamics.obj
 0001:00021480       c5_or                      0000000180022480 f   c5_sl_groundvehicleDynamics.obj
 0001:00021700       c5_array_real_T_SetSize    0000000180022700 f   c5_sl_groundvehicleDynamics.obj
 0001:00021880       c5_array_int32_T_SetSize   0000000180022880 f   c5_sl_groundvehicleDynamics.obj
 0001:00021a00       c5_array_real_T_2D_SetSize 0000000180022a00 f   c5_sl_groundvehicleDynamics.obj
 0001:00021bc0       c5_array_real_T_Constructor 0000000180022bc0 f   c5_sl_groundvehicleDynamics.obj
 0001:00021c20       c5_array_real_T_Destructor 0000000180022c20 f   c5_sl_groundvehicleDynamics.obj
 0001:00021c60       c5_array_s_Y7g3XIg0UrmNkIXtokcBk_C 0000000180022c60 f   c5_sl_groundvehicleDynamics.obj
 0001:00021cb0       c5_array_s_Y7g3XIg0UrmNkIXtokcBk_D 0000000180022cb0 f   c5_sl_groundvehicleDynamics.obj
 0001:00021d00       c5_array_real_T_2D_Constructor 0000000180022d00 f   c5_sl_groundvehicleDynamics.obj
 0001:00021d70       c5_array_real_T_2D_Destructor 0000000180022d70 f   c5_sl_groundvehicleDynamics.obj
 0001:00021db0       c5_array_int32_T_Constructor 0000000180022db0 f   c5_sl_groundvehicleDynamics.obj
 0001:00021e10       c5_array_int32_T_Destructor 0000000180022e10 f   c5_sl_groundvehicleDynamics.obj
 0001:00021e50       c5_array_cell_wrap_36_2s_Construct 0000000180022e50 f   c5_sl_groundvehicleDynamics.obj
 0001:00021eb0       c5_array_cell_wrap_36_Constructor 0000000180022eb0 f   c5_sl_groundvehicleDynamics.obj
 0001:00021ee0       c5_array_cell_wrap_36_2s_Destructo 0000000180022ee0 f   c5_sl_groundvehicleDynamics.obj
 0001:00021f40       c5_array_cell_wrap_36_Destructor 0000000180022f40 f   c5_sl_groundvehicleDynamics.obj
 0001:00021f70       c5_div_nzp_s32             0000000180022f70 f   c5_sl_groundvehicleDynamics.obj
 0001:00022050       c5_div_s32_ndbzs           0000000180023050 f   c5_sl_groundvehicleDynamics.obj
 0001:00022160       init_dsm_address_info      0000000180023160 f   c5_sl_groundvehicleDynamics.obj
 0001:00022170       init_simulink_io_address   0000000180023170 f   c5_sl_groundvehicleDynamics.obj
 0001:00022510       sf_get_sim_state_info_c5_sl_groundvehicleDynamics 0000000180023510 f   c5_sl_groundvehicleDynamics.obj
 0001:000225d0       sf_opaque_initialize_c5_sl_groundvehicleDynamics 00000001800235d0 f   c5_sl_groundvehicleDynamics.obj
 0001:00022600       sf_opaque_enable_c5_sl_groundvehicleDynamics 0000000180023600 f   c5_sl_groundvehicleDynamics.obj
 0001:00022620       sf_opaque_disable_c5_sl_groundvehicleDynamics 0000000180023620 f   c5_sl_groundvehicleDynamics.obj
 0001:00022640       sf_opaque_gateway_c5_sl_groundvehicleDynamics 0000000180023640 f   c5_sl_groundvehicleDynamics.obj
 0001:00022660       sf_opaque_get_sim_state_c5_sl_groundvehicleDynamics 0000000180023660 f   c5_sl_groundvehicleDynamics.obj
 0001:00022690       sf_opaque_set_sim_state_c5_sl_groundvehicleDynamics 0000000180023690 f   c5_sl_groundvehicleDynamics.obj
 0001:000226c0       sf_opaque_cleanup_runtime_resources_c5_sl_groundvehicleDynamics 00000001800236c0 f   c5_sl_groundvehicleDynamics.obj
 0001:00022760       sf_opaque_mdl_start_c5_sl_groundvehicleDynamics 0000000180023760 f   c5_sl_groundvehicleDynamics.obj
 0001:000227a0       sf_opaque_mdl_terminate_c5_sl_groundvehicleDynamics 00000001800237a0 f   c5_sl_groundvehicleDynamics.obj
 0001:000227c0       mdlProcessParameters_c5_sl_groundvehicleDynamics 00000001800237c0 f   c5_sl_groundvehicleDynamics.obj
 0001:00022a40       mdlSetWorkWidths_c5_sl_groundvehicleDynamics 0000000180023a40 f   c5_sl_groundvehicleDynamics.obj
 0001:00022ad0       mdlRTW_c5_sl_groundvehicleDynamics 0000000180023ad0 f   c5_sl_groundvehicleDynamics.obj
 0001:00022b10       mdlSetupRuntimeResources_c5_sl_groundvehicleDynamics 0000000180023b10 f   c5_sl_groundvehicleDynamics.obj
 0001:000255c4       $LN197                     00000001800265c4     sl_groundvehicleDynamics_sfun_registry.obj
 0001:00026424       $LN22                      0000000180027424     sl_groundvehicleDynamics_sfun_registry.obj
 0001:00026b24       $LN26                      0000000180027b24     sl_groundvehicleDynamics_sfun_registry.obj
 0001:00027204       $LN24                      0000000180028204     sl_groundvehicleDynamics_sfun_registry.obj
 0001:00027f3c       $LN30                      0000000180028f3c     sl_groundvehicleDynamics_sfun_registry.obj
 0001:0002b550       ProcessMexSfunctionCmdLineCall 000000018002c550 f   sl_groundvehicleDynamics_sfun_registry.obj
 0001:0002b800       mdlSetWorkWidths           000000018002c800 f   sl_groundvehicleDynamics_sfun_registry.obj
 0001:0002b850       mdlProcessParameters       000000018002c850 f   sl_groundvehicleDynamics_sfun_registry.obj
 0001:0002b880       mdl_setup_runtime_resources_processing 000000018002c880 f   sl_groundvehicleDynamics_sfun_registry.obj
 0001:0002b8e0       mdlSetupRuntimeResources   000000018002c8e0 f   sl_groundvehicleDynamics_sfun_registry.obj
 0001:0002b910       mdl_cleanup_runtime_resources_processing 000000018002c910 f   sl_groundvehicleDynamics_sfun_registry.obj
 0001:0002b9d0       mdlCleanupRuntimeResources 000000018002c9d0 f   sl_groundvehicleDynamics_sfun_registry.obj
 0001:0002ba00       mdl_start_processing       000000018002ca00 f   sl_groundvehicleDynamics_sfun_registry.obj
 0001:0002ba40       mdlStart                   000000018002ca40 f   sl_groundvehicleDynamics_sfun_registry.obj
 0001:0002ba70       mdl_terminate_processing   000000018002ca70 f   sl_groundvehicleDynamics_sfun_registry.obj
 0001:0002bab0       mdlTerminate               000000018002cab0 f   sl_groundvehicleDynamics_sfun_registry.obj
 0001:0002bae0       mdlInitializeSizes         000000018002cae0 f   sl_groundvehicleDynamics_sfun_registry.obj
 0001:0002bb10       mdlInitializeSampleTimes   000000018002cb10 f   sl_groundvehicleDynamics_sfun_registry.obj
 0001:0002bb40       mdl_outputs_continuous_legacy 000000018002cb40 f   sl_groundvehicleDynamics_sfun_registry.obj
 0001:0002bc40       mdl_outputs_processing     000000018002cc40 f   sl_groundvehicleDynamics_sfun_registry.obj
 0001:0002bd80       mdl_zeroCrossings_processing 000000018002cd80 f   sl_groundvehicleDynamics_sfun_registry.obj
 0001:0002bdc0       mdlZeroCrossings           000000018002cdc0 f   sl_groundvehicleDynamics_sfun_registry.obj
 0001:0002bdf0       mdl_derivatives_processing 000000018002cdf0 f   sl_groundvehicleDynamics_sfun_registry.obj
 0001:0002be40       mdlDerivatives             000000018002ce40 f   sl_groundvehicleDynamics_sfun_registry.obj
 0001:0002be70       mdl_initialize_conditions_processing 000000018002ce70 f   sl_groundvehicleDynamics_sfun_registry.obj
 0001:0002bec0       mdlInitializeConditions    000000018002cec0 f   sl_groundvehicleDynamics_sfun_registry.obj
 0001:0002bef0       mdl_ext_mode_exec_processing 000000018002cef0 f   sl_groundvehicleDynamics_sfun_registry.obj
 0001:0002bf30       mdlExtModeExec             000000018002cf30 f   sl_groundvehicleDynamics_sfun_registry.obj
 0001:0002bf60       mdlRTW                     000000018002cf60 f   sl_groundvehicleDynamics_sfun_registry.obj
 0001:0002bfa0       mdl_enable_processing      000000018002cfa0 f   sl_groundvehicleDynamics_sfun_registry.obj
 0001:0002bfe0       mdlEnable                  000000018002cfe0 f   sl_groundvehicleDynamics_sfun_registry.obj
 0001:0002c010       mdl_disable_processing     000000018002d010 f   sl_groundvehicleDynamics_sfun_registry.obj
 0001:0002c050       mdlDisable                 000000018002d050 f   sl_groundvehicleDynamics_sfun_registry.obj
 0001:0002c080       mdlOutputs                 000000018002d080 f   sl_groundvehicleDynamics_sfun_registry.obj
 0001:0002c0b0       mdl_update_processing      000000018002d0b0 f   sl_groundvehicleDynamics_sfun_registry.obj
 0001:0002c100       mdlUpdate                  000000018002d100 f   sl_groundvehicleDynamics_sfun_registry.obj
 0001:0002c2f0       mdlGetTimeOfNextVarHit     000000018002d2f0 f   sl_groundvehicleDynamics_sfun_registry.obj
 0001:0002c340       _RegNumInputPortsCB        000000018002d340 f   sl_groundvehicleDynamics_sfun_registry.obj
 0001:0002c3c0       _RegNumOutputPortsCB       000000018002d3c0 f   sl_groundvehicleDynamics_sfun_registry.obj
 0001:0002c440       _CreateSimStruct           000000018002d440 f   sl_groundvehicleDynamics_sfun_registry.obj
 0001:0002c670       _ProcessMexSfunctionCmdLineCall 000000018002d670 f   sl_groundvehicleDynamics_sfun_registry.obj
 0001:0002d0e0       ReportIndexOutOfBoundsError 000000018002e0e0 f   sl_groundvehicleDynamics_sfun_registry.obj
 0001:00039f18       capture_current_context    000000018003af18 f   MSVCRT:gs_report.obj
 0001:00039f88       capture_previous_context   000000018003af88 f   MSVCRT:gs_report.obj
 0001:0003a080       $$000000                   000000018003b080     MSVCRT:amdsecgs.obj
 0001:0003a0b0       $$000000                   000000018003b0b0     MSVCRT:chkstk.obj
 0001:0003a18c       ?dllmain_crt_dispatch@@YAHQEAUHINSTANCE__@@KQEAX@Z 000000018003b18c f   MSVCRT:dll_dllmain.obj
 0001:0003a1dc       ?dllmain_crt_process_attach@@YAHQEAUHINSTANCE__@@QEAX@Z 000000018003b1dc f   MSVCRT:dll_dllmain.obj
 0001:0003a2f4       ?dllmain_crt_process_detach@@YAH_N@Z 000000018003b2f4 f   MSVCRT:dll_dllmain.obj
 0001:0003a374       ?dllmain_dispatch@@YAHQEAUHINSTANCE__@@KQEAX@Z 000000018003b374 f   MSVCRT:dll_dllmain.obj
 0001:0003a4a8       ?dllmain_raw@@YAHQEAUHINSTANCE__@@KQEAX@Z 000000018003b4a8 f   MSVCRT:dll_dllmain.obj
 0001:0003a574       __get_entropy              000000018003b574 f   MSVCRT:gs_support.obj
 0001:0003a704       ?find_pe_section@@YAPEAU_IMAGE_SECTION_HEADER@@QEAE_K@Z 000000018003b704 f   MSVCRT:utility.obj
 0001:0003a758       ?is_potentially_valid_image_base@@YA_NQEAX@Z 000000018003b758 f   MSVCRT:utility.obj
 0001:0003ae84       __castguard_check_failure_os_handled_wrapper 000000018003be84 f   MSVCRT:guard_support.obj
 0001:0003aed4       __castguard_check_failure_user_handled_wrapper 000000018003bed4 f   MSVCRT:guard_support.obj
 0001:0003aef0       __castguard_compat_check   000000018003bef0 f   MSVCRT:guard_support.obj
 0001:0003b02c       __castguard_slow_path_compat_check 000000018003c02c f   MSVCRT:guard_support.obj
 0001:0003b390       $$000000                   000000018003c390     MSVCRT:guard_dispatch.obj
 0001:0003b3b0       $$000000                   000000018003c3b0     MSVCRT:guard_xfg_dispatch.obj
 0001:0003b3d0       priorityqueuecodegen_constructPQ$dtor$0 000000018003c3d0 f   priorityqueue_api.obj
 0001:0003b3ed       priorityqueuecodegen_constructNodeMap$dtor$0 000000018003c3ed f   priorityqueue_api.obj
 0001:0003b40a       priorityqueuecodegen_constructSimpleMap$dtor$0 000000018003c40a f   priorityqueue_api.obj
 0001:0003b430       ?dtor$0@?0???$?0AEBUpiecewise_construct_t@std@@V?$tuple@AEBH@1@V?$tuple@$$V@1@@?$_List_node_emplace_op2@V?$allocator@U?$_List_node@U?$pair@$$CBHH@std@@PEAX@std@@@std@@@std@@QEAA@AEAV?$allocator@U?$_List_node@U?$pair@$$CBHH@std@@PEAX@std@@@1@AEBUpiecewise_construct_t@1@$$QEAV?$tuple@AEBH@1@$$QEAV?$tuple@$$V@1@@Z@4HA 000000018003c430 f   priorityqueue_api.obj
 0001:0003b450       ?dtor$0@?0???$?0AEBUpiecewise_construct_t@std@@V?$tuple@AEBH@1@V?$tuple@$$V@1@@?$_List_node_emplace_op2@V?$allocator@U?$_List_node@U?$pair@$$CBHV?$vector@NV?$allocator@N@std@@@std@@@std@@PEAX@std@@@std@@@std@@QEAA@AEAV?$allocator@U?$_List_node@U?$pair@$$CBHV?$vector@NV?$allocator@N@std@@@std@@@std@@PEAX@std@@@1@AEBUpiecewise_construct_t@1@$$QEAV?$tuple@AEBH@1@$$QEAV?$tuple@$$V@1@@Z@4HA 000000018003c450 f   priorityqueue_api.obj
 0001:0003b470       ?dtor$0@?0???$_Construct_n@AEBN@?$vector@NV?$allocator@N@std@@@std@@AEAAX_KAEBN@Z@4HA 000000018003c470 f   priorityqueue_api.obj
 0001:0003b490       ?dtor$0@?0???$_Construct_n@AEBQEANAEBQEAN@?$vector@NV?$allocator@N@std@@@std@@AEAAX_KAEBQEAN1@Z@4HA 000000018003c490 f   priorityqueue_api.obj
 0001:0003b4b0       ?dtor$0@?0???$_Construct_n@PEBNPEBN@?$vector@NV?$allocator@N@std@@@std@@AEAAX_K$$QEAPEBN1@Z@4HA 000000018003c4b0 f   priorityqueue_api.obj
 0001:0003b4d0       ?catch$0@?0???$_Emplace_reallocate@AEAHV?$vector@NV?$allocator@N@std@@@std@@@?$vector@U?$pair@HV?$vector@NV?$allocator@N@std@@@std@@@std@@V?$allocator@U?$pair@HV?$vector@NV?$allocator@N@std@@@std@@@std@@@2@@std@@AEAAPEAU?$pair@HV?$vector@NV?$allocator@N@std@@@std@@@1@QEAU21@AEAH$$QEAV?$vector@NV?$allocator@N@std@@@1@@Z@4HA 000000018003c4d0 f   priorityqueue_api.obj
 0001:0003b4dd       __catch$??$_Emplace_reallocate@AEAHV?$vector@NV?$allocator@N@std@@@std@@@?$vector@U?$pair@HV?$vector@NV?$allocator@N@std@@@std@@@std@@V?$allocator@U?$pair@HV?$vector@NV?$allocator@N@std@@@std@@@std@@@2@@std@@AEAAPEAU?$pair@HV?$vector@NV?$allocator@N@std@@@std@@@1@QEAU21@AEAH$$QEAV?$vector@NV?$allocator@N@std@@@1@@Z$0 000000018003c4dd f   priorityqueue_api.obj
 0001:0003b520       ?catch$0@?0???$_Emplace_reallocate@AEBHN@?$vector@V?$vector@NV?$allocator@N@std@@@std@@V?$allocator@V?$vector@NV?$allocator@N@std@@@std@@@2@@std@@AEAAPEAV?$vector@NV?$allocator@N@std@@@1@QEAV21@AEBH$$QEAN@Z@4HA 000000018003c520 f   priorityqueue_api.obj
 0001:0003b52d       __catch$??$_Emplace_reallocate@AEBHN@?$vector@V?$vector@NV?$allocator@N@std@@@std@@V?$allocator@V?$vector@NV?$allocator@N@std@@@std@@@2@@std@@AEAAPEAV?$vector@NV?$allocator@N@std@@@1@QEAV21@AEBH$$QEAN@Z$0 000000018003c52d f   priorityqueue_api.obj
 0001:0003b570       ?catch$0@?0???$_Emplace_reallocate@AEBV?$vector@NV?$allocator@N@std@@@std@@@?$vector@V?$vector@NV?$allocator@N@std@@@std@@V?$allocator@V?$vector@NV?$allocator@N@std@@@std@@@2@@std@@AEAAPEAV?$vector@NV?$allocator@N@std@@@1@QEAV21@AEBV21@@Z@4HA 000000018003c570 f   priorityqueue_api.obj
 0001:0003b57d       __catch$??$_Emplace_reallocate@AEBV?$vector@NV?$allocator@N@std@@@std@@@?$vector@V?$vector@NV?$allocator@N@std@@@std@@V?$allocator@V?$vector@NV?$allocator@N@std@@@std@@@2@@std@@AEAAPEAV?$vector@NV?$allocator@N@std@@@1@QEAV21@AEBV21@@Z$0 000000018003c57d f   priorityqueue_api.obj
 0001:0003b5c0       ?dtor$0@?0???$_Pop_heap_unchecked@PEAU?$pair@HV?$vector@NV?$allocator@N@std@@@std@@@std@@Ucomparator@PriorityQueueImpl@nav@@@std@@YAXPEAU?$pair@HV?$vector@NV?$allocator@N@std@@@std@@@0@0Ucomparator@PriorityQueueImpl@nav@@@Z@4HA 000000018003c5c0 f   priorityqueue_api.obj
 0001:0003b5e0       ?dtor$0@?0???$_Try_emplace@AEBH$$V@?$_Hash@V?$_Umap_traits@HHV?$_Uhash_compare@HU?$hash@H@std@@U?$equal_to@H@2@@std@@V?$allocator@U?$pair@$$CBHH@std@@@2@$0A@@std@@@std@@IEAA?AU?$pair@PEAU?$_List_node@U?$pair@$$CBHH@std@@PEAX@std@@_N@1@AEBH@Z@4HA 000000018003c5e0 f   priorityqueue_api.obj
 0001:0003b600       ?dtor$0@?0???$_Try_emplace@AEBH$$V@?$_Hash@V?$_Umap_traits@HV?$vector@NV?$allocator@N@std@@@std@@V?$_Uhash_compare@HU?$hash@H@std@@U?$equal_to@H@2@@2@V?$allocator@U?$pair@$$CBHV?$vector@NV?$allocator@N@std@@@std@@@std@@@2@$0A@@std@@@std@@IEAA?AU?$pair@PEAU?$_List_node@U?$pair@$$CBHV?$vector@NV?$allocator@N@std@@@std@@@std@@PEAX@std@@_N@1@AEBH@Z@4HA 000000018003c600 f   priorityqueue_api.obj
 0001:0003b620       ?dtor$0@?0???$_Uninitialized_copy@PEANPEANV?$allocator@N@std@@@std@@YAPEANPEAN00AEAV?$allocator@N@0@@Z@4HA 000000018003c620 f   priorityqueue_api.obj
 0001:0003b640       ?dtor$0@?0???$_Uninitialized_copy@PEBNPEBNV?$allocator@N@std@@@std@@YAPEANPEBN0PEANAEAV?$allocator@N@0@@Z@4HA 000000018003c640 f   priorityqueue_api.obj
 0001:0003b660       ?dtor$0@?0???$_Uninitialized_fill_n@V?$allocator@N@std@@@std@@YAPEANPEAN_KAEBNAEAV?$allocator@N@0@@Z@4HA 000000018003c660 f   priorityqueue_api.obj
 0001:0003b680       ?dtor$0@?0???$_Uninitialized_move@PEAU?$pair@HV?$vector@NV?$allocator@N@std@@@std@@@std@@V?$allocator@U?$pair@HV?$vector@NV?$allocator@N@std@@@std@@@std@@@2@@std@@YAPEAU?$pair@HV?$vector@NV?$allocator@N@std@@@std@@@0@QEAU10@0PEAU10@AEAV?$allocator@U?$pair@HV?$vector@NV?$allocator@N@std@@@std@@@std@@@0@@Z@4HA 000000018003c680 f   priorityqueue_api.obj
 0001:0003b6a0       ?dtor$0@?0???$_Uninitialized_move@PEAV?$vector@NV?$allocator@N@std@@@std@@V?$allocator@V?$vector@NV?$allocator@N@std@@@std@@@2@@std@@YAPEAV?$vector@NV?$allocator@N@std@@@0@QEAV10@0PEAV10@AEAV?$allocator@V?$vector@NV?$allocator@N@std@@@std@@@0@@Z@4HA 000000018003c6a0 f   priorityqueue_api.obj
 0001:0003b6c0       ?dtor$0@?0???$push_heap@V?$_Vector_iterator@V?$_Vector_val@U?$_Simple_types@U?$pair@HV?$vector@NV?$allocator@N@std@@@std@@@std@@@std@@@std@@@std@@Ucomparator@PriorityQueueImpl@nav@@@std@@YAXV?$_Vector_iterator@V?$_Vector_val@U?$_Simple_types@U?$pair@HV?$vector@NV?$allocator@N@std@@@std@@@std@@@std@@@std@@@0@0Ucomparator@PriorityQueueImpl@nav@@@Z@4HA 000000018003c6c0 f   priorityqueue_api.obj
 0001:0003b6e0       ?dtor$0@?0???$uninitialized_fill@PEAV?$_List_unchecked_iterator@V?$_List_val@U?$_List_simple_types@U?$pair@$$CBHH@std@@@std@@@std@@@std@@V12@@std@@YAXQEAV?$_List_unchecked_iterator@V?$_List_val@U?$_List_simple_types@U?$pair@$$CBHH@std@@@std@@@std@@@0@0AEBV10@@Z@4HA 000000018003c6e0 f   priorityqueue_api.obj
 0001:0003b700       ?dtor$0@?0???$uninitialized_fill@PEAV?$_List_unchecked_iterator@V?$_List_val@U?$_List_simple_types@U?$pair@$$CBHV?$vector@NV?$allocator@N@std@@@std@@@std@@@std@@@std@@@std@@V12@@std@@YAXQEAV?$_List_unchecked_iterator@V?$_List_val@U?$_List_simple_types@U?$pair@$$CBHV?$vector@NV?$allocator@N@std@@@std@@@std@@@std@@@std@@@0@0AEBV10@@Z@4HA 000000018003c700 f   priorityqueue_api.obj
 0001:0003b720       ?dtor$0@?0???0?$_Hash@V?$_Umap_traits@HHV?$_Uhash_compare@HU?$hash@H@std@@U?$equal_to@H@2@@std@@V?$allocator@U?$pair@$$CBHH@std@@@2@$0A@@std@@@std@@IEAA@AEBV?$_Uhash_compare@HU?$hash@H@std@@U?$equal_to@H@2@@1@AEBV?$allocator@U?$pair@$$CBHH@std@@@1@@Z@4HA 000000018003c720 f   priorityqueue_api.obj
 0001:0003b740       ?dtor$1@?0???0?$_Hash@V?$_Umap_traits@HHV?$_Uhash_compare@HU?$hash@H@std@@U?$equal_to@H@2@@std@@V?$allocator@U?$pair@$$CBHH@std@@@2@$0A@@std@@@std@@IEAA@AEBV?$_Uhash_compare@HU?$hash@H@std@@U?$equal_to@H@2@@1@AEBV?$allocator@U?$pair@$$CBHH@std@@@1@@Z@4HA 000000018003c740 f   priorityqueue_api.obj
 0001:0003b760       ?dtor$0@?0???0?$_Hash@V?$_Umap_traits@HV?$vector@NV?$allocator@N@std@@@std@@V?$_Uhash_compare@HU?$hash@H@std@@U?$equal_to@H@2@@2@V?$allocator@U?$pair@$$CBHV?$vector@NV?$allocator@N@std@@@std@@@std@@@2@$0A@@std@@@std@@IEAA@AEBV?$_Uhash_compare@HU?$hash@H@std@@U?$equal_to@H@2@@1@AEBV?$allocator@U?$pair@$$CBHV?$vector@NV?$allocator@N@std@@@std@@@std@@@1@@Z@4HA 000000018003c760 f   priorityqueue_api.obj
 0001:0003b780       ?dtor$1@?0???0?$_Hash@V?$_Umap_traits@HV?$vector@NV?$allocator@N@std@@@std@@V?$_Uhash_compare@HU?$hash@H@std@@U?$equal_to@H@2@@2@V?$allocator@U?$pair@$$CBHV?$vector@NV?$allocator@N@std@@@std@@@std@@@2@$0A@@std@@@std@@IEAA@AEBV?$_Uhash_compare@HU?$hash@H@std@@U?$equal_to@H@2@@1@AEBV?$allocator@U?$pair@$$CBHV?$vector@NV?$allocator@N@std@@@std@@@std@@@1@@Z@4HA 000000018003c780 f   priorityqueue_api.obj
 0001:0003b7a0       ?dtor$0@?0???0?$priority_queue@U?$pair@HV?$vector@NV?$allocator@N@std@@@std@@@std@@V?$vector@U?$pair@HV?$vector@NV?$allocator@N@std@@@std@@@std@@V?$allocator@U?$pair@HV?$vector@NV?$allocator@N@std@@@std@@@std@@@2@@2@Ucomparator@PriorityQueueImpl@nav@@@std@@QEAA@XZ@4HA 000000018003c7a0 f   priorityqueue_api.obj
 0001:0003b7c0       ?dtor$0@?0???0NodeMap@nav@@QEAA@H@Z@4HA 000000018003c7c0 f   priorityqueue_api.obj
 0001:0003b7e0       ?dtor$1@?0???0NodeMap@nav@@QEAA@H@Z@4HA 000000018003c7e0 f   priorityqueue_api.obj
 0001:0003b800       ?dtor$0@?0???0PriorityQueueImpl@nav@@QEAA@HH@Z@4HA 000000018003c800 f   priorityqueue_api.obj
 0001:0003b820       ?dtor$0@?0???0SimpleMap@nav@@QEAA@H@Z@4HA 000000018003c820 f   priorityqueue_api.obj
 0001:0003b840       ?dtor$0@?0??insertData@SimpleMap@nav@@QEAAXHPEBN@Z@4HA 000000018003c840 f   priorityqueue_api.obj
 0001:0003b860       ?dtor$0@?0??insertNode@NodeMap@nav@@QEAAHPEBNH@Z@4HA 000000018003c860 f   priorityqueue_api.obj
 0001:0003b880       ?dtor$0@?0??push@PriorityQueueImpl@nav@@QEAAHPEBN@Z@4HA 000000018003c880 f   priorityqueue_api.obj
 0001:0003b8a0       ?dtor$0@?0??traceBack@NodeMap@nav@@QEAA?AV?$vector@V?$vector@NV?$allocator@N@std@@@std@@V?$allocator@V?$vector@NV?$allocator@N@std@@@std@@@2@@std@@H@Z@4HA 000000018003c8a0 f   priorityqueue_api.obj
 0001:0003b8b8       ?fin$0@?0??dllmain_crt_process_attach@@YAHQEAUHINSTANCE__@@QEAX@Z@4HA 000000018003c8b8 f   MSVCRT:dll_dllmain.obj
 0001:0003b8cf       ?fin$0@?0??dllmain_crt_process_detach@@YAH_N@Z@4HA 000000018003c8cf f   MSVCRT:dll_dllmain.obj
 0001:0003b8e8       ?fin$1@?0??dllmain_crt_process_detach@@YAH_N@Z@4HA 000000018003c8e8 f   MSVCRT:dll_dllmain.obj
 0001:0003b8fc       ?filt$0@?0??dllmain_dispatch@@YAHQEAUHINSTANCE__@@KQEAX@Z@4HA 000000018003c8fc f   MSVCRT:dll_dllmain.obj
 0001:0003b932       __scrt_is_nonwritable_in_current_image$filt$0 000000018003c932 f   MSVCRT:utility.obj
 0002:000006a0       ?c5_b_postfixPredicateTree@?1??mdl_setup_runtime_resources_c5_sl_groundvehicleDynamics@@9@9 000000018003d6a0     c5_sl_groundvehicleDynamics.obj
 0002:000006ac       ?c5_decisionTxtEndIdx@?1??mdl_setup_runtime_resources_c5_sl_groundvehicleDynamics@@9@9 000000018003d6ac     c5_sl_groundvehicleDynamics.obj
 0002:000006b0       ?c5_postfixPredicateTree@?1??mdl_setup_runtime_resources_c5_sl_groundvehicleDynamics@@9@9 000000018003d6b0     c5_sl_groundvehicleDynamics.obj
 0002:000006bc       ?c5_decisionTxtStartIdx@?1??mdl_setup_runtime_resources_c5_sl_groundvehicleDynamics@@9@9 000000018003d6bc     c5_sl_groundvehicleDynamics.obj
 0002:000006c0       ?c5_b_condTxtEndIdx@?1??mdl_setup_runtime_resources_c5_sl_groundvehicleDynamics@@9@9 000000018003d6c0     c5_sl_groundvehicleDynamics.obj
 0002:000006c8       ?c5_b_condTxtStartIdx@?1??mdl_setup_runtime_resources_c5_sl_groundvehicleDynamics@@9@9 000000018003d6c8     c5_sl_groundvehicleDynamics.obj
 0002:000006d0       ?c5_condTxtEndIdx@?1??mdl_setup_runtime_resources_c5_sl_groundvehicleDynamics@@9@9 000000018003d6d0     c5_sl_groundvehicleDynamics.obj
 0002:000006d8       ?c5_condTxtStartIdx@?1??mdl_setup_runtime_resources_c5_sl_groundvehicleDynamics@@9@9 000000018003d6d8     c5_sl_groundvehicleDynamics.obj
 0002:000007f0       ?piecewise_construct@std@@3Upiecewise_construct_t@1@B 000000018003d7f0     priorityqueue_api.obj
 0002:000007f1       ?_Fake_alloc@std@@3U_Fake_allocator@1@B 000000018003d7f1     priorityqueue_api.obj
 0002:000009f0       GS_ExceptionPointers       000000018003d9f0     MSVCRT:gs_report.obj
 0002:00001400       $unwind$load_sl_groundvehicleDynamics_optimization_info 000000018003e400     sl_groundvehicleDynamics_sfun.obj
 0002:00001408       $unwind$unload_sl_groundvehicleDynamics_optimization_info 000000018003e408     sl_groundvehicleDynamics_sfun.obj
 0002:00001410       $unwind$sf_sl_groundvehicleDynamics_method_dispatcher 000000018003e410     sl_groundvehicleDynamics_sfun.obj
 0002:00001418       $unwind$sf_sl_groundvehicleDynamics_process_check_sum_call 000000018003e418     sl_groundvehicleDynamics_sfun.obj
 0002:00001428       $unwind$sf_sl_groundvehicleDynamics_get_eml_resolved_functions_info 000000018003e428     sl_groundvehicleDynamics_sfun.obj
 0002:00001438       $unwind$sf_sl_groundvehicleDynamics_third_party_uses_info 000000018003e438     sl_groundvehicleDynamics_sfun.obj
 0002:00001448       $unwind$sf_sl_groundvehicleDynamics_jit_fallback_info 000000018003e448     sl_groundvehicleDynamics_sfun.obj
 0002:00001458       $unwind$sf_sl_groundvehicleDynamics_get_post_codegen_info 000000018003e458     sl_groundvehicleDynamics_sfun.obj
 0002:00001468       $unwind$sf_sl_groundvehicleDynamics_updateBuildInfo_args_info 000000018003e468     sl_groundvehicleDynamics_sfun.obj
 0002:00001478       $unwind$sf_c5_sl_groundvehicleDynamics_get_eml_resolved_functions_info 000000018003e478     c5_sl_groundvehicleDynamics.obj
 0002:00001488       $unwind$sf_c5_sl_groundvehicleDynamics_get_check_sum 000000018003e488     c5_sl_groundvehicleDynamics.obj
 0002:00001490       $unwind$c5_sl_groundvehicleDynamics_method_dispatcher 000000018003e490     c5_sl_groundvehicleDynamics.obj
 0002:00001498       $unwind$initialize_c5_sl_groundvehicleDynamics 000000018003e498     c5_sl_groundvehicleDynamics.obj
 0002:000014a0       $unwind$mdl_start_c5_sl_groundvehicleDynamics 000000018003e4a0     c5_sl_groundvehicleDynamics.obj
 0002:000014a8       $unwind$mdl_terminate_c5_sl_groundvehicleDynamics 000000018003e4a8     c5_sl_groundvehicleDynamics.obj
 0002:000014b0       $unwind$mdl_setup_runtime_resources_c5_sl_groundvehicleDynamics 000000018003e4b0     c5_sl_groundvehicleDynamics.obj
 0002:000014b8       $unwind$mdl_cleanup_runtime_resources_c5_sl_groundvehicleDynamics 000000018003e4b8     c5_sl_groundvehicleDynamics.obj
 0002:000014c0       $unwind$enable_c5_sl_groundvehicleDynamics 000000018003e4c0     c5_sl_groundvehicleDynamics.obj
 0002:000014c8       $unwind$disable_c5_sl_groundvehicleDynamics 000000018003e4c8     c5_sl_groundvehicleDynamics.obj
 0002:000014d0       $unwind$sf_gateway_c5_sl_groundvehicleDynamics 000000018003e4d0     c5_sl_groundvehicleDynamics.obj
 0002:000014e0       $unwind$get_sim_state_c5_sl_groundvehicleDynamics 000000018003e4e0     c5_sl_groundvehicleDynamics.obj
 0002:000014e8       $unwind$set_sim_state_c5_sl_groundvehicleDynamics 000000018003e4e8     c5_sl_groundvehicleDynamics.obj
 0002:000014f8       $unwind$c5_path_gen        000000018003e4f8     c5_sl_groundvehicleDynamics.obj
 0002:00001508       $unwind$c5_binaryOccupancyMap_binaryOccupancyMap 000000018003e508     c5_sl_groundvehicleDynamics.obj
 0002:00001510       $unwind$c5_binaryOccupancyMap_inflate 000000018003e510     c5_sl_groundvehicleDynamics.obj
 0002:00001520       $unwind$c5_MapLayer_getValueAllImpl 000000018003e520     c5_sl_groundvehicleDynamics.obj
 0002:00001528       $unwind$c5_allinrange      000000018003e528     c5_sl_groundvehicleDynamics.obj
 0002:00001530       $unwind$c5_MapInterface_world2grid 000000018003e530     c5_sl_groundvehicleDynamics.obj
 0002:00001538       $unwind$c5_MapInterface_local2gridImpl 000000018003e538     c5_sl_groundvehicleDynamics.obj
 0002:00001548       $unwind$c5_b_MapInterface_world2grid 000000018003e548     c5_sl_groundvehicleDynamics.obj
 0002:00001550       $unwind$c5_plannerAStarGrid_plannerAStarGrid 000000018003e550     c5_sl_groundvehicleDynamics.obj
 0002:00001560       $unwind$c5_plannerAStarGrid_setInputState 000000018003e560     c5_sl_groundvehicleDynamics.obj
 0002:00001568       $unwind$c5_ind2sub         000000018003e568     c5_sl_groundvehicleDynamics.obj
 0002:00001570       $unwind$c5_validateAStarBuiltinCostFunction 000000018003e570     c5_sl_groundvehicleDynamics.obj
 0002:00001584       $unwind$c5_plannerAStarGrid_plan 000000018003e584     c5_sl_groundvehicleDynamics.obj
 0002:0000158c       $unwind$c5_plannerAStarGrid_validateStartGoal 000000018003e58c     c5_sl_groundvehicleDynamics.obj
 0002:0000159c       $unwind$c5_plannerAStarGrid_getNodeCostOMDefault 000000018003e59c     c5_sl_groundvehicleDynamics.obj
 0002:000015a4       $unwind$c5_plannerAStarGrid_initializeInternalPlanner 000000018003e5a4     c5_sl_groundvehicleDynamics.obj
 0002:000015ac       $unwind$c5_b_plannerAStarGrid_plannerAStarGrid 000000018003e5ac     c5_sl_groundvehicleDynamics.obj
 0002:000015b4       $unwind$c5_b_ind2sub       000000018003e5b4     c5_sl_groundvehicleDynamics.obj
 0002:000015bc       $unwind$c5_plannerAStarGrid_runPlan 000000018003e5bc     c5_sl_groundvehicleDynamics.obj
 0002:000015cc       $unwind$c5_plannerAStarGrid_getHeuristicMatrix 000000018003e5cc     c5_sl_groundvehicleDynamics.obj
 0002:000015d4       $unwind$c5_plannerAStarGrid_Chebyshev 000000018003e5d4     c5_sl_groundvehicleDynamics.obj
 0002:000015dc       $unwind$c5_plannerAStarGrid_Euclidean 000000018003e5dc     c5_sl_groundvehicleDynamics.obj
 0002:000015e4       $unwind$c5_sumColumnB      000000018003e5e4     c5_sl_groundvehicleDynamics.obj
 0002:000015ec       $unwind$c5_plannerAStarGrid_getNeighbors 000000018003e5ec     c5_sl_groundvehicleDynamics.obj
 0002:000015f4       $unwind$c5_plannerAStarGrid_reconstructPath 000000018003e5f4     c5_sl_groundvehicleDynamics.obj
 0002:00001604       $unwind$c5_plannerAStarGrid_gcostValue 000000018003e604     c5_sl_groundvehicleDynamics.obj
 0002:0000160c       $unwind$c5_plannerAStarGrid_getEssentialOutput 000000018003e60c     c5_sl_groundvehicleDynamics.obj
 0002:0000161c       $unwind$c5_warning         000000018003e61c     c5_sl_groundvehicleDynamics.obj
 0002:00001624       $unwind$c5_plannerAStarGrid_getPathOutput 000000018003e624     c5_sl_groundvehicleDynamics.obj
 0002:00001634       $unwind$c5_MapInterface_grid2worldImpl 000000018003e634     c5_sl_groundvehicleDynamics.obj
 0002:00001644       $unwind$c5_MapInterface_grid2localImpl 000000018003e644     c5_sl_groundvehicleDynamics.obj
 0002:00001654       $unwind$c5_MapInterface_local2worldImpl 000000018003e654     c5_sl_groundvehicleDynamics.obj
 0002:0000165c       $unwind$c5_MapInterface_grid2world 000000018003e65c     c5_sl_groundvehicleDynamics.obj
 0002:0000166c       $unwind$c5_b_MapInterface_grid2worldImpl 000000018003e66c     c5_sl_groundvehicleDynamics.obj
 0002:0000167c       $unwind$c5_b_MapInterface_grid2localImpl 000000018003e67c     c5_sl_groundvehicleDynamics.obj
 0002:0000168c       $unwind$c5_b_path_gen      000000018003e68c     c5_sl_groundvehicleDynamics.obj
 0002:0000169c       $unwind$c5_handle_matlabCodegenDestructor 000000018003e69c     c5_sl_groundvehicleDynamics.obj
 0002:000016a4       $unwind$c5_emlrt_marshallIn 000000018003e6a4     c5_sl_groundvehicleDynamics.obj
 0002:000016ac       $unwind$c5_b_emlrt_marshallIn 000000018003e6ac     c5_sl_groundvehicleDynamics.obj
 0002:000016bc       $unwind$c5_c_emlrt_marshallIn 000000018003e6bc     c5_sl_groundvehicleDynamics.obj
 0002:000016c4       $unwind$c5_d_emlrt_marshallIn 000000018003e6c4     c5_sl_groundvehicleDynamics.obj
 0002:000016cc       $unwind$c5_e_emlrt_marshallIn 000000018003e6cc     c5_sl_groundvehicleDynamics.obj
 0002:000016d4       $unwind$c5_f_emlrt_marshallIn 000000018003e6d4     c5_sl_groundvehicleDynamics.obj
 0002:000016dc       $unwind$c5_g_emlrt_marshallIn 000000018003e6dc     c5_sl_groundvehicleDynamics.obj
 0002:000016e4       $unwind$c5_h_emlrt_marshallIn 000000018003e6e4     c5_sl_groundvehicleDynamics.obj
 0002:000016f4       $unwind$c5_chart_data_browse_helper 000000018003e6f4     c5_sl_groundvehicleDynamics.obj
 0002:000016fc       $unwind$c5_hold            000000018003e6fc     c5_sl_groundvehicleDynamics.obj
 0002:00001704       $unwind$c5_plot            000000018003e704     c5_sl_groundvehicleDynamics.obj
 0002:0000170c       $unwind$c5_sprintf         000000018003e70c     c5_sl_groundvehicleDynamics.obj
 0002:00001714       $unwind$c5_feval           000000018003e714     c5_sl_groundvehicleDynamics.obj
 0002:0000171c       $unwind$c5_b_feval         000000018003e71c     c5_sl_groundvehicleDynamics.obj
 0002:00001724       $unwind$c5_b_sqrt          000000018003e724     c5_sl_groundvehicleDynamics.obj
 0002:0000172c       $unwind$c5_or              000000018003e72c     c5_sl_groundvehicleDynamics.obj
 0002:0000173c       $unwind$c5_array_real_T_SetSize 000000018003e73c     c5_sl_groundvehicleDynamics.obj
 0002:00001744       $unwind$c5_array_int32_T_SetSize 000000018003e744     c5_sl_groundvehicleDynamics.obj
 0002:0000174c       $unwind$c5_array_real_T_2D_SetSize 000000018003e74c     c5_sl_groundvehicleDynamics.obj
 0002:00001754       $unwind$c5_array_real_T_Destructor 000000018003e754     c5_sl_groundvehicleDynamics.obj
 0002:0000175c       $unwind$c5_array_s_Y7g3XIg0UrmNkIXtokcBk_C 000000018003e75c     c5_sl_groundvehicleDynamics.obj
 0002:00001764       $unwind$c5_array_s_Y7g3XIg0UrmNkIXtokcBk_D 000000018003e764     c5_sl_groundvehicleDynamics.obj
 0002:0000176c       $unwind$c5_array_real_T_2D_Destructor 000000018003e76c     c5_sl_groundvehicleDynamics.obj
 0002:00001774       $unwind$c5_array_int32_T_Destructor 000000018003e774     c5_sl_groundvehicleDynamics.obj
 0002:0000177c       $unwind$c5_array_cell_wrap_36_2s_Construct 000000018003e77c     c5_sl_groundvehicleDynamics.obj
 0002:00001784       $unwind$c5_array_cell_wrap_36_Constructor 000000018003e784     c5_sl_groundvehicleDynamics.obj
 0002:0000178c       $unwind$c5_array_cell_wrap_36_2s_Destructo 000000018003e78c     c5_sl_groundvehicleDynamics.obj
 0002:00001794       $unwind$c5_array_cell_wrap_36_Destructor 000000018003e794     c5_sl_groundvehicleDynamics.obj
 0002:0000179c       $unwind$c5_div_nzp_s32     000000018003e79c     c5_sl_groundvehicleDynamics.obj
 0002:000017a4       $unwind$c5_div_s32_ndbzs   000000018003e7a4     c5_sl_groundvehicleDynamics.obj
 0002:000017ac       $unwind$init_simulink_io_address 000000018003e7ac     c5_sl_groundvehicleDynamics.obj
 0002:000017b4       $unwind$sf_c5_sl_groundvehicleDynamics_third_party_uses_info 000000018003e7b4     c5_sl_groundvehicleDynamics.obj
 0002:000017bc       $unwind$sf_c5_sl_groundvehicleDynamics_jit_fallback_info 000000018003e7bc     c5_sl_groundvehicleDynamics.obj
 0002:000017cc       $unwind$sf_c5_sl_groundvehicleDynamics_updateBuildInfo_args_info 000000018003e7cc     c5_sl_groundvehicleDynamics.obj
 0002:000017d4       $unwind$sf_get_sim_state_info_c5_sl_groundvehicleDynamics 000000018003e7d4     c5_sl_groundvehicleDynamics.obj
 0002:000017dc       $unwind$sf_opaque_initialize_c5_sl_groundvehicleDynamics 000000018003e7dc     c5_sl_groundvehicleDynamics.obj
 0002:000017e4       $unwind$sf_opaque_enable_c5_sl_groundvehicleDynamics 000000018003e7e4     c5_sl_groundvehicleDynamics.obj
 0002:000017ec       $unwind$sf_opaque_disable_c5_sl_groundvehicleDynamics 000000018003e7ec     c5_sl_groundvehicleDynamics.obj
 0002:000017f4       $unwind$sf_opaque_gateway_c5_sl_groundvehicleDynamics 000000018003e7f4     c5_sl_groundvehicleDynamics.obj
 0002:000017fc       $unwind$sf_opaque_get_sim_state_c5_sl_groundvehicleDynamics 000000018003e7fc     c5_sl_groundvehicleDynamics.obj
 0002:00001804       $unwind$sf_opaque_set_sim_state_c5_sl_groundvehicleDynamics 000000018003e804     c5_sl_groundvehicleDynamics.obj
 0002:0000180c       $unwind$sf_opaque_cleanup_runtime_resources_c5_sl_groundvehicleDynamics 000000018003e80c     c5_sl_groundvehicleDynamics.obj
 0002:00001814       $unwind$sf_opaque_mdl_start_c5_sl_groundvehicleDynamics 000000018003e814     c5_sl_groundvehicleDynamics.obj
 0002:0000181c       $unwind$sf_opaque_mdl_terminate_c5_sl_groundvehicleDynamics 000000018003e81c     c5_sl_groundvehicleDynamics.obj
 0002:00001824       $unwind$mdlProcessParameters_c5_sl_groundvehicleDynamics 000000018003e824     c5_sl_groundvehicleDynamics.obj
 0002:0000182c       $unwind$sf_c5_sl_groundvehicleDynamics_get_post_codegen_info 000000018003e82c     c5_sl_groundvehicleDynamics.obj
 0002:0000183c       $unwind$mdlSetWorkWidths_c5_sl_groundvehicleDynamics 000000018003e83c     c5_sl_groundvehicleDynamics.obj
 0002:00001844       $unwind$mdlRTW_c5_sl_groundvehicleDynamics 000000018003e844     c5_sl_groundvehicleDynamics.obj
 0002:0000184c       $unwind$mdlSetupRuntimeResources_c5_sl_groundvehicleDynamics 000000018003e84c     c5_sl_groundvehicleDynamics.obj
 0002:00001854       $unwind$_vsnprintf_l       000000018003e854     sl_groundvehicleDynamics_sfun_registry.obj
 0002:0000185c       $unwind$_vsprintf_l        000000018003e85c     sl_groundvehicleDynamics_sfun_registry.obj
 0002:00001864       $unwind$sprintf            000000018003e864     sl_groundvehicleDynamics_sfun_registry.obj
 0002:0000186c       $unwind$mexFunction        000000018003e86c     sl_groundvehicleDynamics_sfun_registry.obj
 0002:0000187c       $unwind$_ssSetInputPortDirectFeedThroughFcn 000000018003e87c     sl_groundvehicleDynamics_sfun_registry.obj
 0002:0000188c       $unwind$_ssSetRWorkValueFcn 000000018003e88c     sl_groundvehicleDynamics_sfun_registry.obj
 0002:00001894       $unwind$_ssGetRWorkValueFcn 000000018003e894     sl_groundvehicleDynamics_sfun_registry.obj
 0002:0000189c       $unwind$_ssSetIWorkValueFcn 000000018003e89c     sl_groundvehicleDynamics_sfun_registry.obj
 0002:000018a4       $unwind$_ssGetIWorkValueFcn 000000018003e8a4     sl_groundvehicleDynamics_sfun_registry.obj
 0002:000018ac       $unwind$_ssSetPWorkValueFcn 000000018003e8ac     sl_groundvehicleDynamics_sfun_registry.obj
 0002:000018b4       $unwind$_ssGetPWorkValueFcn 000000018003e8b4     sl_groundvehicleDynamics_sfun_registry.obj
 0002:000018bc       $unwind$_ssGetInputPortSignalFcn 000000018003e8bc     sl_groundvehicleDynamics_sfun_registry.obj
 0002:000018cc       $unwind$_ssGetInputPortBufferDstPortFcn 000000018003e8cc     sl_groundvehicleDynamics_sfun_registry.obj
 0002:000018d4       $unwind$_ssGetInputPortSignalPtrsFcn 000000018003e8d4     sl_groundvehicleDynamics_sfun_registry.obj
 0002:000018e4       $unwind$ssGetParameterTuningCompliance 000000018003e8e4     sl_groundvehicleDynamics_sfun_registry.obj
 0002:000018ec       $unwind$_ssReadInputStringFcn 000000018003e8ec     sl_groundvehicleDynamics_sfun_registry.obj
 0002:000018f4       $unwind$ssGetDTypeIdFromMxArray 000000018003e8f4     sl_groundvehicleDynamics_sfun_registry.obj
 0002:000018fc       $unwind$ssWriteRTWMx2dMatParam 000000018003e8fc     sl_groundvehicleDynamics_sfun_registry.obj
 0002:00001904       $unwind$ssWriteRTWMxVectParam 000000018003e904     sl_groundvehicleDynamics_sfun_registry.obj
 0002:0000190c       $unwind$ssWriteRTWParameters 000000018003e90c     sl_groundvehicleDynamics_sfun_registry.obj
 0002:00001914       $unwind$ssWriteRTWParamSettings 000000018003e914     sl_groundvehicleDynamics_sfun_registry.obj
 0002:0000191c       $unwind$ssWriteRTWStr      000000018003e91c     sl_groundvehicleDynamics_sfun_registry.obj
 0002:00001924       $unwind$ssWriteRTWWorkVect 000000018003e924     sl_groundvehicleDynamics_sfun_registry.obj
 0002:00001938       $unwind$ssWarning          000000018003e938     sl_groundvehicleDynamics_sfun_registry.obj
 0002:0000194c       $unwind$ssGetRootSS        000000018003e94c     sl_groundvehicleDynamics_sfun_registry.obj
 0002:00001954       $unwind$ssGetParentSS      000000018003e954     sl_groundvehicleDynamics_sfun_registry.obj
 0002:0000195c       $unwind$ssWriteRTWNameValuePair 000000018003e95c     sl_groundvehicleDynamics_sfun_registry.obj
 0002:00001964       $unwind$_ssSetInputPortMatrixDimensions 000000018003e964     sl_groundvehicleDynamics_sfun_registry.obj
 0002:00001970       $unwind$_ssSetOutputPortMatrixDimensions 000000018003e970     sl_groundvehicleDynamics_sfun_registry.obj
 0002:0000197c       $unwind$_ssSetInputPortVectorDimension 000000018003e97c     sl_groundvehicleDynamics_sfun_registry.obj
 0002:00001988       $unwind$_ssSetOutputPortVectorDimension 000000018003e988     sl_groundvehicleDynamics_sfun_registry.obj
 0002:00001994       $unwind$ssIsRunTimeParamTunable 000000018003e994     sl_groundvehicleDynamics_sfun_registry.obj
 0002:0000199c       $unwind$ssGetSFuncBlockHandle 000000018003e99c     sl_groundvehicleDynamics_sfun_registry.obj
 0002:000019a4       $unwind$_ssGetCallSystemNumFcnCallDestinations 000000018003e9a4     sl_groundvehicleDynamics_sfun_registry.obj
 0002:000019ac       $unwind$_ssGetCurrentInputPortWidth 000000018003e9ac     sl_groundvehicleDynamics_sfun_registry.obj
 0002:000019b4       $unwind$_ssGetCurrentOutputPortWidth 000000018003e9b4     sl_groundvehicleDynamics_sfun_registry.obj
 0002:000019bc       $unwind$ssGetIsZeroCrossControlDisabled 000000018003e9bc     sl_groundvehicleDynamics_sfun_registry.obj
 0002:000019c4       $unwind$ssSetIsInputPortUsedForContZcSignal 000000018003e9c4     sl_groundvehicleDynamics_sfun_registry.obj
 0002:000019cc       $unwind$ssSetZcSignalIsZcElementDisc 000000018003e9cc     sl_groundvehicleDynamics_sfun_registry.obj
 0002:000019dc       $unwind$ssSetZcSignalName  000000018003e9dc     sl_groundvehicleDynamics_sfun_registry.obj
 0002:000019e4       $unwind$ssSetZcSignalWidth 000000018003e9e4     sl_groundvehicleDynamics_sfun_registry.obj
 0002:000019ec       $unwind$ssSetZcSignalZcEventType 000000018003e9ec     sl_groundvehicleDynamics_sfun_registry.obj
 0002:000019f4       $unwind$ssSetZcSignalType  000000018003e9f4     sl_groundvehicleDynamics_sfun_registry.obj
 0002:000019fc       $unwind$ssSetZcSignalZcTol 000000018003e9fc     sl_groundvehicleDynamics_sfun_registry.obj
 0002:00001a04       $unwind$ssSetZcSignalNeedsEventNotification 000000018003ea04     sl_groundvehicleDynamics_sfun_registry.obj
 0002:00001a0c       $unwind$ssCreateAndAddZcSignalInfo 000000018003ea0c     sl_groundvehicleDynamics_sfun_registry.obj
 0002:00001a14       $unwind$ssCloneAndAddZcSignalInfo 000000018003ea14     sl_groundvehicleDynamics_sfun_registry.obj
 0002:00001a1c       $unwind$ssGetNumZcSignals  000000018003ea1c     sl_groundvehicleDynamics_sfun_registry.obj
 0002:00001a24       $unwind$ssGetZcSignalVector 000000018003ea24     sl_groundvehicleDynamics_sfun_registry.obj
 0002:00001a2c       $unwind$ssGetZcSignalName  000000018003ea2c     sl_groundvehicleDynamics_sfun_registry.obj
 0002:00001a34       $unwind$ssGetZcSignalWidth 000000018003ea34     sl_groundvehicleDynamics_sfun_registry.obj
 0002:00001a3c       $unwind$ssGetZcSignalZcEventType 000000018003ea3c     sl_groundvehicleDynamics_sfun_registry.obj
 0002:00001a44       $unwind$ssGetZcSignalZcEvents 000000018003ea44     sl_groundvehicleDynamics_sfun_registry.obj
 0002:00001a4c       $unwind$ssGetZcSignalType  000000018003ea4c     sl_groundvehicleDynamics_sfun_registry.obj
 0002:00001a54       $unwind$ssGetZcSignalZcTol 000000018003ea54     sl_groundvehicleDynamics_sfun_registry.obj
 0002:00001a5c       $unwind$ssGetZcSignalNeedsEventNotification 000000018003ea5c     sl_groundvehicleDynamics_sfun_registry.obj
 0002:00001a64       $unwind$ssGetZcSignalIsZcElementDisc 000000018003ea64     sl_groundvehicleDynamics_sfun_registry.obj
 0002:00001a74       $unwind$ssGetIsInputPortElementContinuous 000000018003ea74     sl_groundvehicleDynamics_sfun_registry.obj
 0002:00001a84       $unwind$_ssGetAbsTol       000000018003ea84     sl_groundvehicleDynamics_sfun_registry.obj
 0002:00001a8c       $unwind$_ssSetInputPortReusableFcn 000000018003ea8c     sl_groundvehicleDynamics_sfun_registry.obj
 0002:00001a94       $unwind$_ssSetOutputPortReusableFcn 000000018003ea94     sl_groundvehicleDynamics_sfun_registry.obj
 0002:00001a9c       $unwind$_ssSetSymbolicDimsSupport 000000018003ea9c     sl_groundvehicleDynamics_sfun_registry.obj
 0002:00001aa4       $unwind$_ssRegisterSymbolicDimsExpr 000000018003eaa4     sl_groundvehicleDynamics_sfun_registry.obj
 0002:00001aac       $unwind$_ssRegisterSymbolicDimsMATLABExpr 000000018003eaac     sl_groundvehicleDynamics_sfun_registry.obj
 0002:00001ab4       $unwind$_ssRegisterSymbolicDims 000000018003eab4     sl_groundvehicleDynamics_sfun_registry.obj
 0002:00001abc       $unwind$_ssRegisterSymbolicDimsString 000000018003eabc     sl_groundvehicleDynamics_sfun_registry.obj
 0002:00001ac4       $unwind$_ssRegisterSymbolicDimsIntValue 000000018003eac4     sl_groundvehicleDynamics_sfun_registry.obj
 0002:00001acc       $unwind$_ssRegisterSymbolicEqualRelation 000000018003eacc     sl_groundvehicleDynamics_sfun_registry.obj
 0002:00001ad4       $unwind$_ssRegisterSymbolicEqualValue 000000018003ead4     sl_groundvehicleDynamics_sfun_registry.obj
 0002:00001adc       $unwind$_ssAmendLeadingSymbolicDims 000000018003eadc     sl_groundvehicleDynamics_sfun_registry.obj
 0002:00001ae4       $unwind$_ssAmendTrailingSymbolicDims 000000018003eae4     sl_groundvehicleDynamics_sfun_registry.obj
 0002:00001aec       $unwind$_ssRegisterSymbolicDimsPlus 000000018003eaec     sl_groundvehicleDynamics_sfun_registry.obj
 0002:00001af4       $unwind$_ssRegisterSymbolicDimsMinus 000000018003eaf4     sl_groundvehicleDynamics_sfun_registry.obj
 0002:00001afc       $unwind$_ssRegisterSymbolicDimsMultiply 000000018003eafc     sl_groundvehicleDynamics_sfun_registry.obj
 0002:00001b04       $unwind$_ssRegisterSymbolicDimsDivide 000000018003eb04     sl_groundvehicleDynamics_sfun_registry.obj
 0002:00001b0c       $unwind$_ssGetNumSymbolicDims 000000018003eb0c     sl_groundvehicleDynamics_sfun_registry.obj
 0002:00001b14       $unwind$_ssGetSymbolicDim  000000018003eb14     sl_groundvehicleDynamics_sfun_registry.obj
 0002:00001b1c       $unwind$_ssSetInputPortSymbolicDimsId 000000018003eb1c     sl_groundvehicleDynamics_sfun_registry.obj
 0002:00001b24       $unwind$_ssGetCompInputPortSymbolicDimsId 000000018003eb24     sl_groundvehicleDynamics_sfun_registry.obj
 0002:00001b2c       $unwind$_ssSetCompInputPortSymbolicDimsId 000000018003eb2c     sl_groundvehicleDynamics_sfun_registry.obj
 0002:00001b34       $unwind$_ssSetOutputPortSymbolicDimsId 000000018003eb34     sl_groundvehicleDynamics_sfun_registry.obj
 0002:00001b3c       $unwind$_ssGetCompOutputPortSymbolicDimsId 000000018003eb3c     sl_groundvehicleDynamics_sfun_registry.obj
 0002:00001b44       $unwind$_ssSetCompOutputPortSymbolicDimsId 000000018003eb44     sl_groundvehicleDynamics_sfun_registry.obj
 0002:00001b4c       $unwind$_ssGetDWorkSymbolicDimsId 000000018003eb4c     sl_groundvehicleDynamics_sfun_registry.obj
 0002:00001b54       $unwind$_ssSetDWorkSymbolicDimsId 000000018003eb54     sl_groundvehicleDynamics_sfun_registry.obj
 0002:00001b5c       $unwind$_ssGetCompDWorkSymbolicDimsId 000000018003eb5c     sl_groundvehicleDynamics_sfun_registry.obj
 0002:00001b64       $unwind$_ssSetCompDWorkSymbolicDimsId 000000018003eb64     sl_groundvehicleDynamics_sfun_registry.obj
 0002:00001b6c       $unwind$_ssCreateSLCGStringBuffer 000000018003eb6c     sl_groundvehicleDynamics_sfun_registry.obj
 0002:00001b74       $unwind$_ssAddToSLCGStringBuffer 000000018003eb74     sl_groundvehicleDynamics_sfun_registry.obj
 0002:00001b7c       $unwind$_ssGetPointerContainedData 000000018003eb7c     sl_groundvehicleDynamics_sfun_registry.obj
 0002:00001b84       $unwind$_ssGetPointerContainedDataWidth 000000018003eb84     sl_groundvehicleDynamics_sfun_registry.obj
 0002:00001b8c       $unwind$_ssRegisterDynamicArrayDataTypeFcn 000000018003eb8c     sl_groundvehicleDynamics_sfun_registry.obj
 0002:00001b94       $unwind$_ssGetDynamicArrayContainedDataCurrentWidthFcn 000000018003eb94     sl_groundvehicleDynamics_sfun_registry.obj
 0002:00001b9c       $unwind$_ssGetDynamicArrayContainedDataFcn 000000018003eb9c     sl_groundvehicleDynamics_sfun_registry.obj
 0002:00001ba4       $unwind$_ssGetInputPortDynamicArrayDataFcn 000000018003eba4     sl_groundvehicleDynamics_sfun_registry.obj
 0002:00001bac       $unwind$_ssGetOutputPortDynamicArrayDataFcn 000000018003ebac     sl_groundvehicleDynamics_sfun_registry.obj
 0002:00001bb4       $unwind$_ssGetInputPortDynamicArrayContainedDataFcn 000000018003ebb4     sl_groundvehicleDynamics_sfun_registry.obj
 0002:00001bbc       $unwind$_ssGetOutputPortDynamicArrayContainedDataFcn 000000018003ebbc     sl_groundvehicleDynamics_sfun_registry.obj
 0002:00001bc4       $unwind$_ssGetDynamicArrayDWorkContainedDataFcn 000000018003ebc4     sl_groundvehicleDynamics_sfun_registry.obj
 0002:00001bcc       $unwind$sf_process_check_sum_call 000000018003ebcc     sl_groundvehicleDynamics_sfun_registry.obj
 0002:00001bd4       $unwind$sf_process_get_third_party_uses_info_call 000000018003ebd4     sl_groundvehicleDynamics_sfun_registry.obj
 0002:00001be4       $unwind$sf_process_get_jit_fallback_info_call 000000018003ebe4     sl_groundvehicleDynamics_sfun_registry.obj
 0002:00001bf4       $unwind$sf_process_get_post_codegen_info_call 000000018003ebf4     sl_groundvehicleDynamics_sfun_registry.obj
 0002:00001c04       $unwind$sf_process_get_updateBuildInfo_args_info_call 000000018003ec04     sl_groundvehicleDynamics_sfun_registry.obj
 0002:00001c14       $unwind$sf_process_get_eml_resolved_functions_info_call 000000018003ec14     sl_groundvehicleDynamics_sfun_registry.obj
 0002:00001c24       $unwind$sf_mex_unlock_call 000000018003ec24     sl_groundvehicleDynamics_sfun_registry.obj
 0002:00001c34       $unwind$ProcessMexSfunctionCmdLineCall 000000018003ec34     sl_groundvehicleDynamics_sfun_registry.obj
 0002:00001c3c       $unwind$sf_machine_global_initializer_called 000000018003ec3c     sl_groundvehicleDynamics_sfun_registry.obj
 0002:00001c44       $unwind$sf_machine_global_method_dispatcher 000000018003ec44     sl_groundvehicleDynamics_sfun_registry.obj
 0002:00001c4c       $unwind$sf_machine_global_terminator 000000018003ec4c     sl_groundvehicleDynamics_sfun_registry.obj
 0002:00001c54       $unwind$sf_machine_global_initializer 000000018003ec54     sl_groundvehicleDynamics_sfun_registry.obj
 0002:00001c5c       $unwind$mdlGetSimState     000000018003ec5c     sl_groundvehicleDynamics_sfun_registry.obj
 0002:00001c64       $unwind$mdlSetSimState     000000018003ec64     sl_groundvehicleDynamics_sfun_registry.obj
 0002:00001c6c       $unwind$mdlSetWorkWidths   000000018003ec6c     sl_groundvehicleDynamics_sfun_registry.obj
 0002:00001c74       $unwind$mdlProcessParameters 000000018003ec74     sl_groundvehicleDynamics_sfun_registry.obj
 0002:00001c7c       $unwind$mdl_setup_runtime_resources_processing 000000018003ec7c     sl_groundvehicleDynamics_sfun_registry.obj
 0002:00001c84       $unwind$mdlSetupRuntimeResources 000000018003ec84     sl_groundvehicleDynamics_sfun_registry.obj
 0002:00001c8c       $unwind$mdl_cleanup_runtime_resources_processing 000000018003ec8c     sl_groundvehicleDynamics_sfun_registry.obj
 0002:00001c94       $unwind$mdlCleanupRuntimeResources 000000018003ec94     sl_groundvehicleDynamics_sfun_registry.obj
 0002:00001c9c       $unwind$mdl_start_processing 000000018003ec9c     sl_groundvehicleDynamics_sfun_registry.obj
 0002:00001ca4       $unwind$mdlStart           000000018003eca4     sl_groundvehicleDynamics_sfun_registry.obj
 0002:00001cac       $unwind$mdl_terminate_processing 000000018003ecac     sl_groundvehicleDynamics_sfun_registry.obj
 0002:00001cb4       $unwind$mdlTerminate       000000018003ecb4     sl_groundvehicleDynamics_sfun_registry.obj
 0002:00001cbc       $unwind$mdlInitializeSizes 000000018003ecbc     sl_groundvehicleDynamics_sfun_registry.obj
 0002:00001cc4       $unwind$mdlInitializeSampleTimes 000000018003ecc4     sl_groundvehicleDynamics_sfun_registry.obj
 0002:00001ccc       $unwind$mdl_outputs_continuous_legacy 000000018003eccc     sl_groundvehicleDynamics_sfun_registry.obj
 0002:00001cd4       $unwind$mdl_outputs_processing 000000018003ecd4     sl_groundvehicleDynamics_sfun_registry.obj
 0002:00001cdc       $unwind$mdl_zeroCrossings_processing 000000018003ecdc     sl_groundvehicleDynamics_sfun_registry.obj
 0002:00001ce4       $unwind$mdlZeroCrossings   000000018003ece4     sl_groundvehicleDynamics_sfun_registry.obj
 0002:00001cec       $unwind$mdl_derivatives_processing 000000018003ecec     sl_groundvehicleDynamics_sfun_registry.obj
 0002:00001cf4       $unwind$mdlDerivatives     000000018003ecf4     sl_groundvehicleDynamics_sfun_registry.obj
 0002:00001cfc       $unwind$mdl_initialize_conditions_processing 000000018003ecfc     sl_groundvehicleDynamics_sfun_registry.obj
 0002:00001d04       $unwind$mdlInitializeConditions 000000018003ed04     sl_groundvehicleDynamics_sfun_registry.obj
 0002:00001d0c       $unwind$mdl_ext_mode_exec_processing 000000018003ed0c     sl_groundvehicleDynamics_sfun_registry.obj
 0002:00001d14       $unwind$mdlExtModeExec     000000018003ed14     sl_groundvehicleDynamics_sfun_registry.obj
 0002:00001d1c       $unwind$mdlRTW             000000018003ed1c     sl_groundvehicleDynamics_sfun_registry.obj
 0002:00001d24       $unwind$mdl_enable_processing 000000018003ed24     sl_groundvehicleDynamics_sfun_registry.obj
 0002:00001d2c       $unwind$mdlEnable          000000018003ed2c     sl_groundvehicleDynamics_sfun_registry.obj
 0002:00001d34       $unwind$mdl_disable_processing 000000018003ed34     sl_groundvehicleDynamics_sfun_registry.obj
 0002:00001d3c       $unwind$mdlDisable         000000018003ed3c     sl_groundvehicleDynamics_sfun_registry.obj
 0002:00001d44       $unwind$mdlOutputs         000000018003ed44     sl_groundvehicleDynamics_sfun_registry.obj
 0002:00001d4c       $unwind$mdl_update_processing 000000018003ed4c     sl_groundvehicleDynamics_sfun_registry.obj
 0002:00001d54       $unwind$mdlUpdate          000000018003ed54     sl_groundvehicleDynamics_sfun_registry.obj
 0002:00001d5c       $unwind$ProcessMexSfunctionEveryCall 000000018003ed5c     sl_groundvehicleDynamics_sfun_registry.obj
 0002:00001d64       $unwind$_RegNumInputPortsCB 000000018003ed64     sl_groundvehicleDynamics_sfun_registry.obj
 0002:00001d6c       $unwind$_RegNumOutputPortsCB 000000018003ed6c     sl_groundvehicleDynamics_sfun_registry.obj
 0002:00001d74       $unwind$_CreateSimStruct   000000018003ed74     sl_groundvehicleDynamics_sfun_registry.obj
 0002:00001d7c       $unwind$_ProcessMexSfunctionCmdLineCall 000000018003ed7c     sl_groundvehicleDynamics_sfun_registry.obj
 0002:00001d8c       $unwind$ReportIndexOutOfBoundsError 000000018003ed8c     sl_groundvehicleDynamics_sfun_registry.obj
 0002:00001d9c       $unwind$?_Fnv1a_append_bytes@std@@YA_K_KQEBE_K@Z 000000018003ed9c     priorityqueue_api.obj
 0002:00001da4       $unwind$??0exception@std@@QEAA@QEBDH@Z 000000018003eda4     priorityqueue_api.obj
 0002:00001dac       $unwind$??0exception@std@@QEAA@AEBV01@@Z 000000018003edac     priorityqueue_api.obj
 0002:00001dbc       $cppxdata$??0exception@std@@QEAA@AEBV01@@Z 000000018003edbc     priorityqueue_api.obj
 0002:00001dc1       $ip2state$??0exception@std@@QEAA@AEBV01@@Z 000000018003edc1     priorityqueue_api.obj
 0002:00001dc4       $unwind$??1exception@std@@UEAA@XZ 000000018003edc4     priorityqueue_api.obj
 0002:00001dd4       $cppxdata$??1exception@std@@UEAA@XZ 000000018003edd4     priorityqueue_api.obj
 0002:00001dd9       $ip2state$??1exception@std@@UEAA@XZ 000000018003edd9     priorityqueue_api.obj
 0002:00001ddc       $unwind$?what@exception@std@@UEBAPEBDXZ 000000018003eddc     priorityqueue_api.obj
 0002:00001de4       $unwind$??_Gexception@std@@UEAAPEAXI@Z 000000018003ede4     priorityqueue_api.obj
 0002:00001dec       $unwind$??0bad_alloc@std@@AEAA@QEBD@Z 000000018003edec     priorityqueue_api.obj
 0002:00001df4       $unwind$??1bad_alloc@std@@UEAA@XZ 000000018003edf4     priorityqueue_api.obj
 0002:00001dfc       $unwind$??0bad_alloc@std@@QEAA@AEBV01@@Z 000000018003edfc     priorityqueue_api.obj
 0002:00001e04       $unwind$??_Gbad_alloc@std@@UEAAPEAXI@Z 000000018003ee04     priorityqueue_api.obj
 0002:00001e0c       $unwind$??0bad_array_new_length@std@@QEAA@XZ 000000018003ee0c     priorityqueue_api.obj
 0002:00001e14       $unwind$??1bad_array_new_length@std@@UEAA@XZ 000000018003ee14     priorityqueue_api.obj
 0002:00001e1c       $unwind$??0bad_array_new_length@std@@QEAA@AEBV01@@Z 000000018003ee1c     priorityqueue_api.obj
 0002:00001e24       $unwind$??_Gbad_array_new_length@std@@UEAAPEAXI@Z 000000018003ee24     priorityqueue_api.obj
 0002:00001e2c       $unwind$?_Throw_bad_array_new_length@std@@YAXXZ 000000018003ee2c     priorityqueue_api.obj
 0002:00001e34       $unwind$?_Allocate@_Default_allocate_traits@std@@SAPEAX_K@Z 000000018003ee34     priorityqueue_api.obj
 0002:00001e3c       $unwind$?_Adjust_manually_vector_aligned@std@@YAXAEAPEAXAEA_K@Z 000000018003ee3c     priorityqueue_api.obj
 0002:00001e44       $unwind$?_Floor_of_log_2@std@@YAK_K@Z 000000018003ee44     priorityqueue_api.obj
 0002:00001e4c       $unwind$?_Ceiling_of_log_2@std@@YAK_K@Z 000000018003ee4c     priorityqueue_api.obj
 0002:00001e54       $unwind$??0?$_Uhash_compare@HU?$hash@H@std@@U?$equal_to@H@2@@std@@QEAA@XZ 000000018003ee54     priorityqueue_api.obj
 0002:00001e5c       $unwind$??R?$equal_to@H@std@@QEBA_NAEBH0@Z 000000018003ee5c     priorityqueue_api.obj
 0002:00001e64       $unwind$??R?$_Conditionally_enabled_hash@H$00@std@@QEBA_KAEBH@Z 000000018003ee64     priorityqueue_api.obj
 0002:00001e6c       $unwind$?_Do_hash@?$hash@H@std@@SA_KAEBH@Z 000000018003ee6c     priorityqueue_api.obj
 0002:00001e74       $unwind$?deallocate@?$allocator@U?$_List_node@U?$pair@$$CBHV?$vector@NV?$allocator@N@std@@@std@@@std@@PEAX@std@@@std@@QEAAXQEAU?$_List_node@U?$pair@$$CBHV?$vector@NV?$allocator@N@std@@@std@@@std@@PEAX@2@_K@Z 000000018003ee74     priorityqueue_api.obj
 0002:00001e7c       $unwind$?allocate@?$allocator@U?$_List_node@U?$pair@$$CBHV?$vector@NV?$allocator@N@std@@@std@@@std@@PEAX@std@@@std@@QEAAPEAU?$_List_node@U?$pair@$$CBHV?$vector@NV?$allocator@N@std@@@std@@@std@@PEAX@2@_K@Z 000000018003ee7c     priorityqueue_api.obj
 0002:00001e84       $unwind$?deallocate@?$_Default_allocator_traits@V?$allocator@U?$_List_node@U?$pair@$$CBHV?$vector@NV?$allocator@N@std@@@std@@@std@@PEAX@std@@@std@@@std@@SAXAEAV?$allocator@U?$_List_node@U?$pair@$$CBHV?$vector@NV?$allocator@N@std@@@std@@@std@@PEAX@std@@@2@QEAU?$_List_node@U?$pair@$$CBHV?$vector@NV?$allocator@N@std@@@std@@@std@@PEAX@2@_K@Z 000000018003ee84     priorityqueue_api.obj
 0002:00001e8c       $unwind$??0?$list@U?$pair@$$CBHV?$vector@NV?$allocator@N@std@@@std@@@std@@V?$allocator@U?$pair@$$CBHV?$vector@NV?$allocator@N@std@@@std@@@std@@@2@@std@@QEAA@AEBV?$allocator@U?$pair@$$CBHV?$vector@NV?$allocator@N@std@@@std@@@std@@@1@@Z 000000018003ee8c     priorityqueue_api.obj
 0002:00001e94       $unwind$?_Swap_val@?$list@U?$pair@$$CBHV?$vector@NV?$allocator@N@std@@@std@@@std@@V?$allocator@U?$pair@$$CBHV?$vector@NV?$allocator@N@std@@@std@@@std@@@2@@std@@AEAAXAEAV12@@Z 000000018003ee94     priorityqueue_api.obj
 0002:00001e9c       $unwind$??1?$list@U?$pair@$$CBHV?$vector@NV?$allocator@N@std@@@std@@@std@@V?$allocator@U?$pair@$$CBHV?$vector@NV?$allocator@N@std@@@std@@@std@@@2@@std@@QEAA@XZ 000000018003ee9c     priorityqueue_api.obj
 0002:00001ea4       $unwind$?end@?$list@U?$pair@$$CBHV?$vector@NV?$allocator@N@std@@@std@@@std@@V?$allocator@U?$pair@$$CBHV?$vector@NV?$allocator@N@std@@@std@@@std@@@2@@std@@QEAA?AV?$_List_iterator@V?$_List_val@U?$_List_simple_types@U?$pair@$$CBHV?$vector@NV?$allocator@N@std@@@std@@@std@@@std@@@std@@@2@XZ 000000018003eea4     priorityqueue_api.obj
 0002:00001eac       $unwind$?_Unchecked_begin@?$list@U?$pair@$$CBHV?$vector@NV?$allocator@N@std@@@std@@@std@@V?$allocator@U?$pair@$$CBHV?$vector@NV?$allocator@N@std@@@std@@@std@@@2@@std@@QEAA?AV?$_List_unchecked_iterator@V?$_List_val@U?$_List_simple_types@U?$pair@$$CBHV?$vector@NV?$allocator@N@std@@@std@@@std@@@std@@@std@@@2@XZ 000000018003eeac     priorityqueue_api.obj
 0002:00001eb4       $unwind$?_Unchecked_end@?$list@U?$pair@$$CBHV?$vector@NV?$allocator@N@std@@@std@@@std@@V?$allocator@U?$pair@$$CBHV?$vector@NV?$allocator@N@std@@@std@@@std@@@2@@std@@QEAA?AV?$_List_unchecked_iterator@V?$_List_val@U?$_List_simple_types@U?$pair@$$CBHV?$vector@NV?$allocator@N@std@@@std@@@std@@@std@@@std@@@2@XZ 000000018003eeb4     priorityqueue_api.obj
 0002:00001ebc       $unwind$?_Make_iter@?$list@U?$pair@$$CBHV?$vector@NV?$allocator@N@std@@@std@@@std@@V?$allocator@U?$pair@$$CBHV?$vector@NV?$allocator@N@std@@@std@@@std@@@2@@std@@QEBA?AV?$_List_iterator@V?$_List_val@U?$_List_simple_types@U?$pair@$$CBHV?$vector@NV?$allocator@N@std@@@std@@@std@@@std@@@std@@@2@PEAU?$_List_node@U?$pair@$$CBHV?$vector@NV?$allocator@N@std@@@std@@@std@@PEAX@2@@Z 000000018003eebc     priorityqueue_api.obj
 0002:00001ec4       $unwind$?max_size@?$list@U?$pair@$$CBHV?$vector@NV?$allocator@N@std@@@std@@@std@@V?$allocator@U?$pair@$$CBHV?$vector@NV?$allocator@N@std@@@std@@@std@@@2@@std@@QEBA_KXZ 000000018003eec4     priorityqueue_api.obj
 0002:00001ecc       $unwind$?clear@?$list@U?$pair@$$CBHV?$vector@NV?$allocator@N@std@@@std@@@std@@V?$allocator@U?$pair@$$CBHV?$vector@NV?$allocator@N@std@@@std@@@std@@@2@@std@@QEAAXXZ 000000018003eecc     priorityqueue_api.obj
 0002:00001ed4       $unwind$?_Tidy@?$list@U?$pair@$$CBHV?$vector@NV?$allocator@N@std@@@std@@@std@@V?$allocator@U?$pair@$$CBHV?$vector@NV?$allocator@N@std@@@std@@@std@@@2@@std@@AEAAXXZ 000000018003eed4     priorityqueue_api.obj
 0002:00001edc       $unwind$?_Alloc_sentinel_and_proxy@?$list@U?$pair@$$CBHV?$vector@NV?$allocator@N@std@@@std@@@std@@V?$allocator@U?$pair@$$CBHV?$vector@NV?$allocator@N@std@@@std@@@std@@@2@@std@@AEAAXXZ 000000018003eedc     priorityqueue_api.obj
 0002:00001ee4       $unwind$?_Getal@?$list@U?$pair@$$CBHV?$vector@NV?$allocator@N@std@@@std@@@std@@V?$allocator@U?$pair@$$CBHV?$vector@NV?$allocator@N@std@@@std@@@std@@@2@@std@@AEAAAEAV?$allocator@U?$_List_node@U?$pair@$$CBHV?$vector@NV?$allocator@N@std@@@std@@@std@@PEAX@std@@@2@XZ 000000018003eee4     priorityqueue_api.obj
 0002:00001eec       $unwind$?_Getal@?$list@U?$pair@$$CBHV?$vector@NV?$allocator@N@std@@@std@@@std@@V?$allocator@U?$pair@$$CBHV?$vector@NV?$allocator@N@std@@@std@@@std@@@2@@std@@AEBAAEBV?$allocator@U?$_List_node@U?$pair@$$CBHV?$vector@NV?$allocator@N@std@@@std@@@std@@PEAX@std@@@2@XZ 000000018003eeec     priorityqueue_api.obj
 0002:00001ef4       $unwind$?_Unchecked_splice@?$_List_val@U?$_List_simple_types@U?$pair@$$CBHV?$vector@NV?$allocator@N@std@@@std@@@std@@@std@@@std@@SAPEAU?$_List_node@U?$pair@$$CBHV?$vector@NV?$allocator@N@std@@@std@@@std@@PEAX@2@QEAU32@00@Z 000000018003eef4     priorityqueue_api.obj
 0002:00001efc       $unwind$??0?$_Hash@V?$_Umap_traits@HV?$vector@NV?$allocator@N@std@@@std@@V?$_Uhash_compare@HU?$hash@H@std@@U?$equal_to@H@2@@2@V?$allocator@U?$pair@$$CBHV?$vector@NV?$allocator@N@std@@@std@@@std@@@2@$0A@@std@@@std@@IEAA@AEBV?$_Uhash_compare@HU?$hash@H@std@@U?$equal_to@H@2@@1@AEBV?$allocator@U?$pair@$$CBHV?$vector@NV?$allocator@N@std@@@std@@@std@@@1@@Z 000000018003eefc     priorityqueue_api.obj
 0002:00001f0c       $cppxdata$??0?$_Hash@V?$_Umap_traits@HV?$vector@NV?$allocator@N@std@@@std@@V?$_Uhash_compare@HU?$hash@H@std@@U?$equal_to@H@2@@2@V?$allocator@U?$pair@$$CBHV?$vector@NV?$allocator@N@std@@@std@@@std@@@2@$0A@@std@@@std@@IEAA@AEBV?$_Uhash_compare@HU?$hash@H@std@@U?$equal_to@H@2@@1@AEBV?$allocator@U?$pair@$$CBHV?$vector@NV?$allocator@N@std@@@std@@@std@@@1@@Z 000000018003ef0c     priorityqueue_api.obj
 0002:00001f15       $stateUnwindMap$??0?$_Hash@V?$_Umap_traits@HV?$vector@NV?$allocator@N@std@@@std@@V?$_Uhash_compare@HU?$hash@H@std@@U?$equal_to@H@2@@2@V?$allocator@U?$pair@$$CBHV?$vector@NV?$allocator@N@std@@@std@@@std@@@2@$0A@@std@@@std@@IEAA@AEBV?$_Uhash_compare@HU?$hash@H@std@@U?$equal_to@H@2@@1@AEBV?$allocator@U?$pair@$$CBHV?$vector@NV?$allocator@N@std@@@std@@@std@@@1@@Z 000000018003ef15     priorityqueue_api.obj
 0002:00001f20       $ip2state$??0?$_Hash@V?$_Umap_traits@HV?$vector@NV?$allocator@N@std@@@std@@V?$_Uhash_compare@HU?$hash@H@std@@U?$equal_to@H@2@@2@V?$allocator@U?$pair@$$CBHV?$vector@NV?$allocator@N@std@@@std@@@std@@@2@$0A@@std@@@std@@IEAA@AEBV?$_Uhash_compare@HU?$hash@H@std@@U?$equal_to@H@2@@1@AEBV?$allocator@U?$pair@$$CBHV?$vector@NV?$allocator@N@std@@@std@@@std@@@1@@Z 000000018003ef20     priorityqueue_api.obj
 0002:00001f2c       $unwind$?dtor$0@?0???0?$_Hash@V?$_Umap_traits@HV?$vector@NV?$allocator@N@std@@@std@@V?$_Uhash_compare@HU?$hash@H@std@@U?$equal_to@H@2@@2@V?$allocator@U?$pair@$$CBHV?$vector@NV?$allocator@N@std@@@std@@@std@@@2@$0A@@std@@@std@@IEAA@AEBV?$_Uhash_compare@HU?$hash@H@std@@U?$equal_to@H@2@@1@AEBV?$allocator@U?$pair@$$CBHV?$vector@NV?$allocator@N@std@@@std@@@std@@@1@@Z@4HA 000000018003ef2c     priorityqueue_api.obj
 0002:00001f34       $unwind$?dtor$1@?0???0?$_Hash@V?$_Umap_traits@HV?$vector@NV?$allocator@N@std@@@std@@V?$_Uhash_compare@HU?$hash@H@std@@U?$equal_to@H@2@@2@V?$allocator@U?$pair@$$CBHV?$vector@NV?$allocator@N@std@@@std@@@std@@@2@$0A@@std@@@std@@IEAA@AEBV?$_Uhash_compare@HU?$hash@H@std@@U?$equal_to@H@2@@1@AEBV?$allocator@U?$pair@$$CBHV?$vector@NV?$allocator@N@std@@@std@@@std@@@1@@Z@4HA 000000018003ef34     priorityqueue_api.obj
 0002:00001f3c       $unwind$?_Swap_val@?$_Hash@V?$_Umap_traits@HV?$vector@NV?$allocator@N@std@@@std@@V?$_Uhash_compare@HU?$hash@H@std@@U?$equal_to@H@2@@2@V?$allocator@U?$pair@$$CBHV?$vector@NV?$allocator@N@std@@@std@@@std@@@2@$0A@@std@@@std@@AEAAXAEAV12@@Z 000000018003ef3c     priorityqueue_api.obj
 0002:00001f44       $unwind$?_Pocma_both@?$_Hash@V?$_Umap_traits@HV?$vector@NV?$allocator@N@std@@@std@@V?$_Uhash_compare@HU?$hash@H@std@@U?$equal_to@H@2@@2@V?$allocator@U?$pair@$$CBHV?$vector@NV?$allocator@N@std@@@std@@@std@@@2@$0A@@std@@@std@@AEAAXAEAV12@@Z 000000018003ef44     priorityqueue_api.obj
 0002:00001f4c       $unwind$??4?$_Hash@V?$_Umap_traits@HV?$vector@NV?$allocator@N@std@@@std@@V?$_Uhash_compare@HU?$hash@H@std@@U?$equal_to@H@2@@2@V?$allocator@U?$pair@$$CBHV?$vector@NV?$allocator@N@std@@@std@@@std@@@2@$0A@@std@@@std@@QEAAAEAV01@$$QEAV01@@Z 000000018003ef4c     priorityqueue_api.obj
 0002:00001f54       $unwind$?end@?$_Hash@V?$_Umap_traits@HV?$vector@NV?$allocator@N@std@@@std@@V?$_Uhash_compare@HU?$hash@H@std@@U?$equal_to@H@2@@2@V?$allocator@U?$pair@$$CBHV?$vector@NV?$allocator@N@std@@@std@@@std@@@2@$0A@@std@@@std@@QEAA?AV?$_List_iterator@V?$_List_val@U?$_List_simple_types@U?$pair@$$CBHV?$vector@NV?$allocator@N@std@@@std@@@std@@@std@@@std@@@2@XZ 000000018003ef54     priorityqueue_api.obj
 0002:00001f5c       $unwind$?_Unchecked_begin@?$_Hash@V?$_Umap_traits@HV?$vector@NV?$allocator@N@std@@@std@@V?$_Uhash_compare@HU?$hash@H@std@@U?$equal_to@H@2@@2@V?$allocator@U?$pair@$$CBHV?$vector@NV?$allocator@N@std@@@std@@@std@@@2@$0A@@std@@@std@@QEAA?AV?$_List_unchecked_iterator@V?$_List_val@U?$_List_simple_types@U?$pair@$$CBHV?$vector@NV?$allocator@N@std@@@std@@@std@@@std@@@std@@@2@XZ 000000018003ef5c     priorityqueue_api.obj
 0002:00001f64       $unwind$?_Unchecked_end@?$_Hash@V?$_Umap_traits@HV?$vector@NV?$allocator@N@std@@@std@@V?$_Uhash_compare@HU?$hash@H@std@@U?$equal_to@H@2@@2@V?$allocator@U?$pair@$$CBHV?$vector@NV?$allocator@N@std@@@std@@@std@@@2@$0A@@std@@@std@@QEAA?AV?$_List_unchecked_iterator@V?$_List_val@U?$_List_simple_types@U?$pair@$$CBHV?$vector@NV?$allocator@N@std@@@std@@@std@@@std@@@std@@@2@XZ 000000018003ef64     priorityqueue_api.obj
 0002:00001f6c       $unwind$?size@?$_Hash@V?$_Umap_traits@HV?$vector@NV?$allocator@N@std@@@std@@V?$_Uhash_compare@HU?$hash@H@std@@U?$equal_to@H@2@@2@V?$allocator@U?$pair@$$CBHV?$vector@NV?$allocator@N@std@@@std@@@std@@@2@$0A@@std@@@std@@QEBA_KXZ 000000018003ef6c     priorityqueue_api.obj
 0002:00001f74       $unwind$?bucket@?$_Hash@V?$_Umap_traits@HV?$vector@NV?$allocator@N@std@@@std@@V?$_Uhash_compare@HU?$hash@H@std@@U?$equal_to@H@2@@2@V?$allocator@U?$pair@$$CBHV?$vector@NV?$allocator@N@std@@@std@@@std@@@2@$0A@@std@@@std@@QEBA_KAEBH@Z 000000018003ef74     priorityqueue_api.obj
 0002:00001f7c       $unwind$?max_load_factor@?$_Hash@V?$_Umap_traits@HV?$vector@NV?$allocator@N@std@@@std@@V?$_Uhash_compare@HU?$hash@H@std@@U?$equal_to@H@2@@2@V?$allocator@U?$pair@$$CBHV?$vector@NV?$allocator@N@std@@@std@@@std@@@2@$0A@@std@@@std@@QEBAMXZ 000000018003ef7c     priorityqueue_api.obj
 0002:00001f84       $unwind$?_Unchecked_erase@?$_Hash@V?$_Umap_traits@HV?$vector@NV?$allocator@N@std@@@std@@V?$_Uhash_compare@HU?$hash@H@std@@U?$equal_to@H@2@@2@V?$allocator@U?$pair@$$CBHV?$vector@NV?$allocator@N@std@@@std@@@std@@@2@$0A@@std@@@std@@AEAAPEAU?$_List_node@U?$pair@$$CBHV?$vector@NV?$allocator@N@std@@@std@@@std@@PEAX@2@PEAU32@QEAU32@@Z 000000018003ef84     priorityqueue_api.obj
 0002:00001f8c       $unwind$?clear@?$_Hash@V?$_Umap_traits@HV?$vector@NV?$allocator@N@std@@@std@@V?$_Uhash_compare@HU?$hash@H@std@@U?$equal_to@H@2@@2@V?$allocator@U?$pair@$$CBHV?$vector@NV?$allocator@N@std@@@std@@@std@@@2@$0A@@std@@@std@@QEAAXXZ 000000018003ef8c     priorityqueue_api.obj
 0002:00001f9c       $cppxdata$?clear@?$_Hash@V?$_Umap_traits@HV?$vector@NV?$allocator@N@std@@@std@@V?$_Uhash_compare@HU?$hash@H@std@@U?$equal_to@H@2@@2@V?$allocator@U?$pair@$$CBHV?$vector@NV?$allocator@N@std@@@std@@@std@@@2@$0A@@std@@@std@@QEAAXXZ 000000018003ef9c     priorityqueue_api.obj
 0002:00001fa1       $ip2state$?clear@?$_Hash@V?$_Umap_traits@HV?$vector@NV?$allocator@N@std@@@std@@V?$_Uhash_compare@HU?$hash@H@std@@U?$equal_to@H@2@@2@V?$allocator@U?$pair@$$CBHV?$vector@NV?$allocator@N@std@@@std@@@std@@@2@$0A@@std@@@std@@QEAAXXZ 000000018003efa1     priorityqueue_api.obj
 0002:00001fa4       $unwind$?_Insert_new_node_before@?$_Hash@V?$_Umap_traits@HV?$vector@NV?$allocator@N@std@@@std@@V?$_Uhash_compare@HU?$hash@H@std@@U?$equal_to@H@2@@2@V?$allocator@U?$pair@$$CBHV?$vector@NV?$allocator@N@std@@@std@@@std@@@2@$0A@@std@@@std@@IEAAPEAU?$_List_node@U?$pair@$$CBHV?$vector@NV?$allocator@N@std@@@std@@@std@@PEAX@2@_KQEAU32@1@Z 000000018003efa4     priorityqueue_api.obj
 0002:00001fac       $unwind$?_Check_max_size@?$_Hash@V?$_Umap_traits@HV?$vector@NV?$allocator@N@std@@@std@@V?$_Uhash_compare@HU?$hash@H@std@@U?$equal_to@H@2@@2@V?$allocator@U?$pair@$$CBHV?$vector@NV?$allocator@N@std@@@std@@@std@@@2@$0A@@std@@@std@@IEBAXXZ 000000018003efac     priorityqueue_api.obj
 0002:00001fb4       $unwind$?_Check_rehash_required_1@?$_Hash@V?$_Umap_traits@HV?$vector@NV?$allocator@N@std@@@std@@V?$_Uhash_compare@HU?$hash@H@std@@U?$equal_to@H@2@@2@V?$allocator@U?$pair@$$CBHV?$vector@NV?$allocator@N@std@@@std@@@std@@@2@$0A@@std@@@std@@IEBA_NXZ 000000018003efb4     priorityqueue_api.obj
 0002:00001fbc       $unwind$?_Rehash_for_1@?$_Hash@V?$_Umap_traits@HV?$vector@NV?$allocator@N@std@@@std@@V?$_Uhash_compare@HU?$hash@H@std@@U?$equal_to@H@2@@2@V?$allocator@U?$pair@$$CBHV?$vector@NV?$allocator@N@std@@@std@@@std@@@2@$0A@@std@@@std@@IEAAXXZ 000000018003efbc     priorityqueue_api.obj
 0002:00001fc4       $unwind$?_Min_load_factor_buckets@?$_Hash@V?$_Umap_traits@HV?$vector@NV?$allocator@N@std@@@std@@V?$_Uhash_compare@HU?$hash@H@std@@U?$equal_to@H@2@@2@V?$allocator@U?$pair@$$CBHV?$vector@NV?$allocator@N@std@@@std@@@std@@@2@$0A@@std@@@std@@IEBA_K_K@Z 000000018003efc4     priorityqueue_api.obj
 0002:00001fd4       $cppxdata$?_Min_load_factor_buckets@?$_Hash@V?$_Umap_traits@HV?$vector@NV?$allocator@N@std@@@std@@V?$_Uhash_compare@HU?$hash@H@std@@U?$equal_to@H@2@@2@V?$allocator@U?$pair@$$CBHV?$vector@NV?$allocator@N@std@@@std@@@std@@@2@$0A@@std@@@std@@IEBA_K_K@Z 000000018003efd4     priorityqueue_api.obj
 0002:00001fd9       $ip2state$?_Min_load_factor_buckets@?$_Hash@V?$_Umap_traits@HV?$vector@NV?$allocator@N@std@@@std@@V?$_Uhash_compare@HU?$hash@H@std@@U?$equal_to@H@2@@2@V?$allocator@U?$pair@$$CBHV?$vector@NV?$allocator@N@std@@@std@@@std@@@2@$0A@@std@@@std@@IEBA_K_K@Z 000000018003efd9     priorityqueue_api.obj
 0002:00001fdc       $unwind$?_Desired_grow_bucket_count@?$_Hash@V?$_Umap_traits@HV?$vector@NV?$allocator@N@std@@@std@@V?$_Uhash_compare@HU?$hash@H@std@@U?$equal_to@H@2@@2@V?$allocator@U?$pair@$$CBHV?$vector@NV?$allocator@N@std@@@std@@@std@@@2@$0A@@std@@@std@@IEBA_K_K@Z 000000018003efdc     priorityqueue_api.obj
 0002:00001fe4       $unwind$?_Forced_rehash@?$_Hash@V?$_Umap_traits@HV?$vector@NV?$allocator@N@std@@@std@@V?$_Uhash_compare@HU?$hash@H@std@@U?$equal_to@H@2@@2@V?$allocator@U?$pair@$$CBHV?$vector@NV?$allocator@N@std@@@std@@@std@@@2@$0A@@std@@@std@@IEAAX_K@Z 000000018003efe4     priorityqueue_api.obj
 0002:00001fec       $unwind$?_Max_bucket_size@?$_Hash@V?$_Umap_traits@HV?$vector@NV?$allocator@N@std@@@std@@V?$_Uhash_compare@HU?$hash@H@std@@U?$equal_to@H@2@@2@V?$allocator@U?$pair@$$CBHV?$vector@NV?$allocator@N@std@@@std@@@std@@@2@$0A@@std@@@std@@IEAAAEAMXZ 000000018003efec     priorityqueue_api.obj
 0002:00001ff4       $unwind$?_Max_bucket_size@?$_Hash@V?$_Umap_traits@HV?$vector@NV?$allocator@N@std@@@std@@V?$_Uhash_compare@HU?$hash@H@std@@U?$equal_to@H@2@@2@V?$allocator@U?$pair@$$CBHV?$vector@NV?$allocator@N@std@@@std@@@std@@@2@$0A@@std@@@std@@IEBAAEBMXZ 000000018003eff4     priorityqueue_api.obj
 0002:00001ffc       $unwind$?_Getal@?$_Hash@V?$_Umap_traits@HV?$vector@NV?$allocator@N@std@@@std@@V?$_Uhash_compare@HU?$hash@H@std@@U?$equal_to@H@2@@2@V?$allocator@U?$pair@$$CBHV?$vector@NV?$allocator@N@std@@@std@@@std@@@2@$0A@@std@@@std@@IEAAAEAV?$allocator@U?$_List_node@U?$pair@$$CBHV?$vector@NV?$allocator@N@std@@@std@@@std@@PEAX@std@@@2@XZ 000000018003effc     priorityqueue_api.obj
 0002:00002004       $unwind$?deallocate@?$allocator@V?$_List_unchecked_iterator@V?$_List_val@U?$_List_simple_types@U?$pair@$$CBHV?$vector@NV?$allocator@N@std@@@std@@@std@@@std@@@std@@@std@@@std@@QEAAXQEAV?$_List_unchecked_iterator@V?$_List_val@U?$_List_simple_types@U?$pair@$$CBHV?$vector@NV?$allocator@N@std@@@std@@@std@@@std@@@std@@@2@_K@Z 000000018003f004     priorityqueue_api.obj
 0002:0000200c       $unwind$?allocate@?$allocator@V?$_List_unchecked_iterator@V?$_List_val@U?$_List_simple_types@U?$pair@$$CBHV?$vector@NV?$allocator@N@std@@@std@@@std@@@std@@@std@@@std@@@std@@QEAAPEAV?$_List_unchecked_iterator@V?$_List_val@U?$_List_simple_types@U?$pair@$$CBHV?$vector@NV?$allocator@N@std@@@std@@@std@@@std@@@std@@@2@_K@Z 000000018003f00c     priorityqueue_api.obj
 0002:00002014       $unwind$?max_size@?$_Hash_vec@V?$allocator@V?$_List_unchecked_iterator@V?$_List_val@U?$_List_simple_types@U?$pair@$$CBHV?$vector@NV?$allocator@N@std@@@std@@@std@@@std@@@std@@@std@@@std@@@std@@QEBA_KXZ 000000018003f014     priorityqueue_api.obj
 0002:0000201c       $unwind$?_Assign_grow@?$_Hash_vec@V?$allocator@V?$_List_unchecked_iterator@V?$_List_val@U?$_List_simple_types@U?$pair@$$CBHV?$vector@NV?$allocator@N@std@@@std@@@std@@@std@@@std@@@std@@@std@@@std@@QEAAX_KV?$_List_unchecked_iterator@V?$_List_val@U?$_List_simple_types@U?$pair@$$CBHV?$vector@NV?$allocator@N@std@@@std@@@std@@@std@@@std@@@2@@Z 000000018003f01c     priorityqueue_api.obj
 0002:00002024       $unwind$?_Tidy@?$_Hash_vec@V?$allocator@V?$_List_unchecked_iterator@V?$_List_val@U?$_List_simple_types@U?$pair@$$CBHV?$vector@NV?$allocator@N@std@@@std@@@std@@@std@@@std@@@std@@@std@@@std@@QEAAXXZ 000000018003f024     priorityqueue_api.obj
 0002:00002034       $cppxdata$?_Tidy@?$_Hash_vec@V?$allocator@V?$_List_unchecked_iterator@V?$_List_val@U?$_List_simple_types@U?$pair@$$CBHV?$vector@NV?$allocator@N@std@@@std@@@std@@@std@@@std@@@std@@@std@@@std@@QEAAXXZ 000000018003f034     priorityqueue_api.obj
 0002:00002039       $ip2state$?_Tidy@?$_Hash_vec@V?$allocator@V?$_List_unchecked_iterator@V?$_List_val@U?$_List_simple_types@U?$pair@$$CBHV?$vector@NV?$allocator@N@std@@@std@@@std@@@std@@@std@@@std@@@std@@@std@@QEAAXXZ 000000018003f039     priorityqueue_api.obj
 0002:0000203c       $unwind$??1?$_Hash_vec@V?$allocator@V?$_List_unchecked_iterator@V?$_List_val@U?$_List_simple_types@U?$pair@$$CBHV?$vector@NV?$allocator@N@std@@@std@@@std@@@std@@@std@@@std@@@std@@@std@@QEAA@XZ 000000018003f03c     priorityqueue_api.obj
 0002:00002044       $unwind$?_Swap_val@?$_Vector_val@U?$_Simple_types@V?$_List_unchecked_iterator@V?$_List_val@U?$_List_simple_types@U?$pair@$$CBHV?$vector@NV?$allocator@N@std@@@std@@@std@@@std@@@std@@@std@@@std@@@std@@QEAAXAEAV12@@Z 000000018003f044     priorityqueue_api.obj
 0002:0000204c       $unwind$??1?$_Hash@V?$_Umap_traits@HV?$vector@NV?$allocator@N@std@@@std@@V?$_Uhash_compare@HU?$hash@H@std@@U?$equal_to@H@2@@2@V?$allocator@U?$pair@$$CBHV?$vector@NV?$allocator@N@std@@@std@@@std@@@2@$0A@@std@@@std@@QEAA@XZ 000000018003f04c     priorityqueue_api.obj
 0002:00002054       $unwind$??0?$unordered_map@HV?$vector@NV?$allocator@N@std@@@std@@U?$hash@H@2@U?$equal_to@H@2@V?$allocator@U?$pair@$$CBHV?$vector@NV?$allocator@N@std@@@std@@@std@@@2@@std@@QEAA@XZ 000000018003f054     priorityqueue_api.obj
 0002:0000205c       $unwind$??4?$unordered_map@HV?$vector@NV?$allocator@N@std@@@std@@U?$hash@H@2@U?$equal_to@H@2@V?$allocator@U?$pair@$$CBHV?$vector@NV?$allocator@N@std@@@std@@@std@@@2@@std@@QEAAAEAV01@$$QEAV01@@Z 000000018003f05c     priorityqueue_api.obj
 0002:0000206c       $cppxdata$??4?$unordered_map@HV?$vector@NV?$allocator@N@std@@@std@@U?$hash@H@2@U?$equal_to@H@2@V?$allocator@U?$pair@$$CBHV?$vector@NV?$allocator@N@std@@@std@@@std@@@2@@std@@QEAAAEAV01@$$QEAV01@@Z 000000018003f06c     priorityqueue_api.obj
 0002:00002071       $ip2state$??4?$unordered_map@HV?$vector@NV?$allocator@N@std@@@std@@U?$hash@H@2@U?$equal_to@H@2@V?$allocator@U?$pair@$$CBHV?$vector@NV?$allocator@N@std@@@std@@@std@@@2@@std@@QEAAAEAV01@$$QEAV01@@Z 000000018003f071     priorityqueue_api.obj
 0002:00002074       $unwind$??A?$unordered_map@HV?$vector@NV?$allocator@N@std@@@std@@U?$hash@H@2@U?$equal_to@H@2@V?$allocator@U?$pair@$$CBHV?$vector@NV?$allocator@N@std@@@std@@@std@@@2@@std@@QEAAAEAV?$vector@NV?$allocator@N@std@@@1@AEBH@Z 000000018003f074     priorityqueue_api.obj
 0002:0000207c       $unwind$??1?$unordered_map@HV?$vector@NV?$allocator@N@std@@@std@@U?$hash@H@2@U?$equal_to@H@2@V?$allocator@U?$pair@$$CBHV?$vector@NV?$allocator@N@std@@@std@@@std@@@2@@std@@QEAA@XZ 000000018003f07c     priorityqueue_api.obj
 0002:00002084       $unwind$??0SimpleMap@nav@@QEAA@H@Z 000000018003f084     priorityqueue_api.obj
 0002:00002094       $cppxdata$??0SimpleMap@nav@@QEAA@H@Z 000000018003f094     priorityqueue_api.obj
 0002:0000209d       $stateUnwindMap$??0SimpleMap@nav@@QEAA@H@Z 000000018003f09d     priorityqueue_api.obj
 0002:000020a3       $ip2state$??0SimpleMap@nav@@QEAA@H@Z 000000018003f0a3     priorityqueue_api.obj
 0002:000020ac       $unwind$?dtor$0@?0???0SimpleMap@nav@@QEAA@H@Z@4HA 000000018003f0ac     priorityqueue_api.obj
 0002:000020b4       $unwind$?insertData@SimpleMap@nav@@QEAAXHPEBN@Z 000000018003f0b4     priorityqueue_api.obj
 0002:000020c4       $cppxdata$?insertData@SimpleMap@nav@@QEAAXHPEBN@Z 000000018003f0c4     priorityqueue_api.obj
 0002:000020cd       $stateUnwindMap$?insertData@SimpleMap@nav@@QEAAXHPEBN@Z 000000018003f0cd     priorityqueue_api.obj
 0002:000020d3       $ip2state$?insertData@SimpleMap@nav@@QEAAXHPEBN@Z 000000018003f0d3     priorityqueue_api.obj
 0002:000020dc       $unwind$?dtor$0@?0??insertData@SimpleMap@nav@@QEAAXHPEBN@Z@4HA 000000018003f0dc     priorityqueue_api.obj
 0002:000020e4       $unwind$?getData@SimpleMap@nav@@QEAA?AV?$vector@NV?$allocator@N@std@@@std@@H@Z 000000018003f0e4     priorityqueue_api.obj
 0002:000020ec       $unwind$?getSize@SimpleMap@nav@@QEAA_KXZ 000000018003f0ec     priorityqueue_api.obj
 0002:000020f4       $unwind$??1SimpleMap@nav@@QEAA@XZ 000000018003f0f4     priorityqueue_api.obj
 0002:000020fc       $unwind$??_GSimpleMap@nav@@QEAAPEAXI@Z 000000018003f0fc     priorityqueue_api.obj
 0002:00002104       $unwind$?deallocate@?$allocator@N@std@@QEAAXQEAN_K@Z 000000018003f104     priorityqueue_api.obj
 0002:0000210c       $unwind$?allocate@?$allocator@N@std@@QEAAPEAN_K@Z 000000018003f10c     priorityqueue_api.obj
 0002:00002114       $unwind$??0?$vector@NV?$allocator@N@std@@@std@@QEAA@XZ 000000018003f114     priorityqueue_api.obj
 0002:0000211c       $unwind$??0?$vector@NV?$allocator@N@std@@@std@@QEAA@_KAEBNAEBV?$allocator@N@1@@Z 000000018003f11c     priorityqueue_api.obj
 0002:00002124       $unwind$??0?$vector@NV?$allocator@N@std@@@std@@QEAA@AEBV01@@Z 000000018003f124     priorityqueue_api.obj
 0002:0000212c       $unwind$??0?$vector@NV?$allocator@N@std@@@std@@QEAA@$$QEAV01@@Z 000000018003f12c     priorityqueue_api.obj
 0002:00002134       $unwind$??4?$vector@NV?$allocator@N@std@@@std@@QEAAAEAV01@$$QEAV01@@Z 000000018003f134     priorityqueue_api.obj
 0002:0000213c       $unwind$??1?$vector@NV?$allocator@N@std@@@std@@QEAA@XZ 000000018003f13c     priorityqueue_api.obj
 0002:00002144       $unwind$?size@?$vector@NV?$allocator@N@std@@@std@@QEBA_KXZ 000000018003f144     priorityqueue_api.obj
 0002:0000214c       $unwind$?max_size@?$vector@NV?$allocator@N@std@@@std@@QEBA_KXZ 000000018003f14c     priorityqueue_api.obj
 0002:00002154       $unwind$??A?$vector@NV?$allocator@N@std@@@std@@QEAAAEAN_K@Z 000000018003f154     priorityqueue_api.obj
 0002:0000215c       $unwind$??A?$vector@NV?$allocator@N@std@@@std@@QEBAAEBN_K@Z 000000018003f15c     priorityqueue_api.obj
 0002:00002164       $unwind$?_Buy_raw@?$vector@NV?$allocator@N@std@@@std@@AEAAX_K@Z 000000018003f164     priorityqueue_api.obj
 0002:0000216c       $unwind$?_Buy_nonzero@?$vector@NV?$allocator@N@std@@@std@@AEAAX_K@Z 000000018003f16c     priorityqueue_api.obj
 0002:00002174       $unwind$?_Tidy@?$vector@NV?$allocator@N@std@@@std@@AEAAXXZ 000000018003f174     priorityqueue_api.obj
 0002:00002184       $cppxdata$?_Tidy@?$vector@NV?$allocator@N@std@@@std@@AEAAXXZ 000000018003f184     priorityqueue_api.obj
 0002:00002189       $ip2state$?_Tidy@?$vector@NV?$allocator@N@std@@@std@@AEAAXXZ 000000018003f189     priorityqueue_api.obj
 0002:0000218c       $unwind$?_Xlength@?$vector@NV?$allocator@N@std@@@std@@CAXXZ 000000018003f18c     priorityqueue_api.obj
 0002:00002194       $unwind$?_Getal@?$vector@NV?$allocator@N@std@@@std@@AEAAAEAV?$allocator@N@2@XZ 000000018003f194     priorityqueue_api.obj
 0002:0000219c       $unwind$?_Getal@?$vector@NV?$allocator@N@std@@@std@@AEBAAEBV?$allocator@N@2@XZ 000000018003f19c     priorityqueue_api.obj
 0002:000021a4       $unwind$?_Take_contents@?$_Vector_val@U?$_Simple_types@N@std@@@std@@QEAAXAEAV12@@Z 000000018003f1a4     priorityqueue_api.obj
 0002:000021ac       $unwind$??_G?$vector@NV?$allocator@N@std@@@std@@QEAAPEAXI@Z 000000018003f1ac     priorityqueue_api.obj
 0002:000021b4       $unwind$??$?0PEBN$0A@@?$vector@NV?$allocator@N@std@@@std@@QEAA@PEBN0AEBV?$allocator@N@1@@Z 000000018003f1b4     priorityqueue_api.obj
 0002:000021bc       $unwind$??$find@X@?$_Hash@V?$_Umap_traits@HV?$vector@NV?$allocator@N@std@@@std@@V?$_Uhash_compare@HU?$hash@H@std@@U?$equal_to@H@2@@2@V?$allocator@U?$pair@$$CBHV?$vector@NV?$allocator@N@std@@@std@@@std@@@2@$0A@@std@@@std@@QEAA?AV?$_List_iterator@V?$_List_val@U?$_List_simple_types@U?$pair@$$CBHV?$vector@NV?$allocator@N@std@@@std@@@std@@@std@@@std@@@1@AEBH@Z 000000018003f1bc     priorityqueue_api.obj
 0002:000021c4       $unwind$??0?$_List_unchecked_const_iterator@V?$_List_val@U?$_List_simple_types@U?$pair@$$CBHV?$vector@NV?$allocator@N@std@@@std@@@std@@@std@@@std@@U_Iterator_base0@2@@std@@QEAA@PEAU?$_List_node@U?$pair@$$CBHV?$vector@NV?$allocator@N@std@@@std@@@std@@PEAX@1@PEBV?$_List_val@U?$_List_simple_types@U?$pair@$$CBHV?$vector@NV?$allocator@N@std@@@std@@@std@@@std@@@1@@Z 000000018003f1c4     priorityqueue_api.obj
 0002:000021cc       $unwind$??8?$_List_unchecked_const_iterator@V?$_List_val@U?$_List_simple_types@U?$pair@$$CBHV?$vector@NV?$allocator@N@std@@@std@@@std@@@std@@@std@@U_Iterator_base0@2@@std@@QEBA_NAEBV01@@Z 000000018003f1cc     priorityqueue_api.obj
 0002:000021d4       $unwind$??9?$_List_unchecked_const_iterator@V?$_List_val@U?$_List_simple_types@U?$pair@$$CBHV?$vector@NV?$allocator@N@std@@@std@@@std@@@std@@@std@@U_Iterator_base0@2@@std@@QEBA_NAEBV01@@Z 000000018003f1d4     priorityqueue_api.obj
 0002:000021dc       $unwind$??8?$_List_const_iterator@V?$_List_val@U?$_List_simple_types@U?$pair@$$CBHV?$vector@NV?$allocator@N@std@@@std@@@std@@@std@@@std@@@std@@QEBA_NAEBV01@@Z 000000018003f1dc     priorityqueue_api.obj
 0002:000021e4       $unwind$??0?$_List_const_iterator@V?$_List_val@U?$_List_simple_types@U?$pair@$$CBHV?$vector@NV?$allocator@N@std@@@std@@@std@@@std@@@std@@@std@@QEAA@PEAU?$_List_node@U?$pair@$$CBHV?$vector@NV?$allocator@N@std@@@std@@@std@@PEAX@1@PEBV?$_List_val@U?$_List_simple_types@U?$pair@$$CBHV?$vector@NV?$allocator@N@std@@@std@@@std@@@std@@@1@@Z 000000018003f1e4     priorityqueue_api.obj
 0002:000021ec       $unwind$??0?$_List_iterator@V?$_List_val@U?$_List_simple_types@U?$pair@$$CBHV?$vector@NV?$allocator@N@std@@@std@@@std@@@std@@@std@@@std@@QEAA@PEAU?$_List_node@U?$pair@$$CBHV?$vector@NV?$allocator@N@std@@@std@@@std@@PEAX@1@PEBV?$_List_val@U?$_List_simple_types@U?$pair@$$CBHV?$vector@NV?$allocator@N@std@@@std@@@std@@@std@@@1@@Z 000000018003f1ec     priorityqueue_api.obj
 0002:000021f4       $unwind$??1?$pair@$$CBHV?$vector@NV?$allocator@N@std@@@std@@@std@@QEAA@XZ 000000018003f1f4     priorityqueue_api.obj
 0002:000021fc       $unwind$??_G?$pair@$$CBHV?$vector@NV?$allocator@N@std@@@std@@@std@@QEAAPEAXI@Z 000000018003f1fc     priorityqueue_api.obj
 0002:00002204       $unwind$?deallocate@?$allocator@U?$_List_node@U?$pair@$$CBHH@std@@PEAX@std@@@std@@QEAAXQEAU?$_List_node@U?$pair@$$CBHH@std@@PEAX@2@_K@Z 000000018003f204     priorityqueue_api.obj
 0002:0000220c       $unwind$?allocate@?$allocator@U?$_List_node@U?$pair@$$CBHH@std@@PEAX@std@@@std@@QEAAPEAU?$_List_node@U?$pair@$$CBHH@std@@PEAX@2@_K@Z 000000018003f20c     priorityqueue_api.obj
 0002:00002214       $unwind$?deallocate@?$_Default_allocator_traits@V?$allocator@U?$_List_node@U?$pair@$$CBHH@std@@PEAX@std@@@std@@@std@@SAXAEAV?$allocator@U?$_List_node@U?$pair@$$CBHH@std@@PEAX@std@@@2@QEAU?$_List_node@U?$pair@$$CBHH@std@@PEAX@2@_K@Z 000000018003f214     priorityqueue_api.obj
 0002:0000221c       $unwind$??0?$list@U?$pair@$$CBHH@std@@V?$allocator@U?$pair@$$CBHH@std@@@2@@std@@QEAA@AEBV?$allocator@U?$pair@$$CBHH@std@@@1@@Z 000000018003f21c     priorityqueue_api.obj
 0002:00002224       $unwind$?_Swap_val@?$list@U?$pair@$$CBHH@std@@V?$allocator@U?$pair@$$CBHH@std@@@2@@std@@AEAAXAEAV12@@Z 000000018003f224     priorityqueue_api.obj
 0002:0000222c       $unwind$??1?$list@U?$pair@$$CBHH@std@@V?$allocator@U?$pair@$$CBHH@std@@@2@@std@@QEAA@XZ 000000018003f22c     priorityqueue_api.obj
 0002:00002234       $unwind$?end@?$list@U?$pair@$$CBHH@std@@V?$allocator@U?$pair@$$CBHH@std@@@2@@std@@QEAA?AV?$_List_iterator@V?$_List_val@U?$_List_simple_types@U?$pair@$$CBHH@std@@@std@@@std@@@2@XZ 000000018003f234     priorityqueue_api.obj
 0002:0000223c       $unwind$?_Unchecked_begin@?$list@U?$pair@$$CBHH@std@@V?$allocator@U?$pair@$$CBHH@std@@@2@@std@@QEAA?AV?$_List_unchecked_iterator@V?$_List_val@U?$_List_simple_types@U?$pair@$$CBHH@std@@@std@@@std@@@2@XZ 000000018003f23c     priorityqueue_api.obj
 0002:00002244       $unwind$?_Unchecked_end@?$list@U?$pair@$$CBHH@std@@V?$allocator@U?$pair@$$CBHH@std@@@2@@std@@QEAA?AV?$_List_unchecked_iterator@V?$_List_val@U?$_List_simple_types@U?$pair@$$CBHH@std@@@std@@@std@@@2@XZ 000000018003f244     priorityqueue_api.obj
 0002:0000224c       $unwind$?_Make_iter@?$list@U?$pair@$$CBHH@std@@V?$allocator@U?$pair@$$CBHH@std@@@2@@std@@QEBA?AV?$_List_iterator@V?$_List_val@U?$_List_simple_types@U?$pair@$$CBHH@std@@@std@@@std@@@2@PEAU?$_List_node@U?$pair@$$CBHH@std@@PEAX@2@@Z 000000018003f24c     priorityqueue_api.obj
 0002:00002254       $unwind$?max_size@?$list@U?$pair@$$CBHH@std@@V?$allocator@U?$pair@$$CBHH@std@@@2@@std@@QEBA_KXZ 000000018003f254     priorityqueue_api.obj
 0002:0000225c       $unwind$?clear@?$list@U?$pair@$$CBHH@std@@V?$allocator@U?$pair@$$CBHH@std@@@2@@std@@QEAAXXZ 000000018003f25c     priorityqueue_api.obj
 0002:00002264       $unwind$?_Tidy@?$list@U?$pair@$$CBHH@std@@V?$allocator@U?$pair@$$CBHH@std@@@2@@std@@AEAAXXZ 000000018003f264     priorityqueue_api.obj
 0002:0000226c       $unwind$?_Alloc_sentinel_and_proxy@?$list@U?$pair@$$CBHH@std@@V?$allocator@U?$pair@$$CBHH@std@@@2@@std@@AEAAXXZ 000000018003f26c     priorityqueue_api.obj
 0002:00002274       $unwind$?_Getal@?$list@U?$pair@$$CBHH@std@@V?$allocator@U?$pair@$$CBHH@std@@@2@@std@@AEAAAEAV?$allocator@U?$_List_node@U?$pair@$$CBHH@std@@PEAX@std@@@2@XZ 000000018003f274     priorityqueue_api.obj
 0002:0000227c       $unwind$?_Getal@?$list@U?$pair@$$CBHH@std@@V?$allocator@U?$pair@$$CBHH@std@@@2@@std@@AEBAAEBV?$allocator@U?$_List_node@U?$pair@$$CBHH@std@@PEAX@std@@@2@XZ 000000018003f27c     priorityqueue_api.obj
 0002:00002284       $unwind$?_Unchecked_splice@?$_List_val@U?$_List_simple_types@U?$pair@$$CBHH@std@@@std@@@std@@SAPEAU?$_List_node@U?$pair@$$CBHH@std@@PEAX@2@QEAU32@00@Z 000000018003f284     priorityqueue_api.obj
 0002:0000228c       $unwind$??0?$_Hash@V?$_Umap_traits@HHV?$_Uhash_compare@HU?$hash@H@std@@U?$equal_to@H@2@@std@@V?$allocator@U?$pair@$$CBHH@std@@@2@$0A@@std@@@std@@IEAA@AEBV?$_Uhash_compare@HU?$hash@H@std@@U?$equal_to@H@2@@1@AEBV?$allocator@U?$pair@$$CBHH@std@@@1@@Z 000000018003f28c     priorityqueue_api.obj
 0002:0000229c       $cppxdata$??0?$_Hash@V?$_Umap_traits@HHV?$_Uhash_compare@HU?$hash@H@std@@U?$equal_to@H@2@@std@@V?$allocator@U?$pair@$$CBHH@std@@@2@$0A@@std@@@std@@IEAA@AEBV?$_Uhash_compare@HU?$hash@H@std@@U?$equal_to@H@2@@1@AEBV?$allocator@U?$pair@$$CBHH@std@@@1@@Z 000000018003f29c     priorityqueue_api.obj
 0002:000022a5       $stateUnwindMap$??0?$_Hash@V?$_Umap_traits@HHV?$_Uhash_compare@HU?$hash@H@std@@U?$equal_to@H@2@@std@@V?$allocator@U?$pair@$$CBHH@std@@@2@$0A@@std@@@std@@IEAA@AEBV?$_Uhash_compare@HU?$hash@H@std@@U?$equal_to@H@2@@1@AEBV?$allocator@U?$pair@$$CBHH@std@@@1@@Z 000000018003f2a5     priorityqueue_api.obj
 0002:000022b0       $ip2state$??0?$_Hash@V?$_Umap_traits@HHV?$_Uhash_compare@HU?$hash@H@std@@U?$equal_to@H@2@@std@@V?$allocator@U?$pair@$$CBHH@std@@@2@$0A@@std@@@std@@IEAA@AEBV?$_Uhash_compare@HU?$hash@H@std@@U?$equal_to@H@2@@1@AEBV?$allocator@U?$pair@$$CBHH@std@@@1@@Z 000000018003f2b0     priorityqueue_api.obj
 0002:000022bc       $unwind$?dtor$0@?0???0?$_Hash@V?$_Umap_traits@HHV?$_Uhash_compare@HU?$hash@H@std@@U?$equal_to@H@2@@std@@V?$allocator@U?$pair@$$CBHH@std@@@2@$0A@@std@@@std@@IEAA@AEBV?$_Uhash_compare@HU?$hash@H@std@@U?$equal_to@H@2@@1@AEBV?$allocator@U?$pair@$$CBHH@std@@@1@@Z@4HA 000000018003f2bc     priorityqueue_api.obj
 0002:000022c4       $unwind$?dtor$1@?0???0?$_Hash@V?$_Umap_traits@HHV?$_Uhash_compare@HU?$hash@H@std@@U?$equal_to@H@2@@std@@V?$allocator@U?$pair@$$CBHH@std@@@2@$0A@@std@@@std@@IEAA@AEBV?$_Uhash_compare@HU?$hash@H@std@@U?$equal_to@H@2@@1@AEBV?$allocator@U?$pair@$$CBHH@std@@@1@@Z@4HA 000000018003f2c4     priorityqueue_api.obj
 0002:000022cc       $unwind$?_Swap_val@?$_Hash@V?$_Umap_traits@HHV?$_Uhash_compare@HU?$hash@H@std@@U?$equal_to@H@2@@std@@V?$allocator@U?$pair@$$CBHH@std@@@2@$0A@@std@@@std@@AEAAXAEAV12@@Z 000000018003f2cc     priorityqueue_api.obj
 0002:000022d4       $unwind$?_Pocma_both@?$_Hash@V?$_Umap_traits@HHV?$_Uhash_compare@HU?$hash@H@std@@U?$equal_to@H@2@@std@@V?$allocator@U?$pair@$$CBHH@std@@@2@$0A@@std@@@std@@AEAAXAEAV12@@Z 000000018003f2d4     priorityqueue_api.obj
 0002:000022dc       $unwind$??4?$_Hash@V?$_Umap_traits@HHV?$_Uhash_compare@HU?$hash@H@std@@U?$equal_to@H@2@@std@@V?$allocator@U?$pair@$$CBHH@std@@@2@$0A@@std@@@std@@QEAAAEAV01@$$QEAV01@@Z 000000018003f2dc     priorityqueue_api.obj
 0002:000022e4       $unwind$?end@?$_Hash@V?$_Umap_traits@HHV?$_Uhash_compare@HU?$hash@H@std@@U?$equal_to@H@2@@std@@V?$allocator@U?$pair@$$CBHH@std@@@2@$0A@@std@@@std@@QEAA?AV?$_List_iterator@V?$_List_val@U?$_List_simple_types@U?$pair@$$CBHH@std@@@std@@@std@@@2@XZ 000000018003f2e4     priorityqueue_api.obj
 0002:000022ec       $unwind$?_Unchecked_begin@?$_Hash@V?$_Umap_traits@HHV?$_Uhash_compare@HU?$hash@H@std@@U?$equal_to@H@2@@std@@V?$allocator@U?$pair@$$CBHH@std@@@2@$0A@@std@@@std@@QEAA?AV?$_List_unchecked_iterator@V?$_List_val@U?$_List_simple_types@U?$pair@$$CBHH@std@@@std@@@std@@@2@XZ 000000018003f2ec     priorityqueue_api.obj
 0002:000022f4       $unwind$?_Unchecked_end@?$_Hash@V?$_Umap_traits@HHV?$_Uhash_compare@HU?$hash@H@std@@U?$equal_to@H@2@@std@@V?$allocator@U?$pair@$$CBHH@std@@@2@$0A@@std@@@std@@QEAA?AV?$_List_unchecked_iterator@V?$_List_val@U?$_List_simple_types@U?$pair@$$CBHH@std@@@std@@@std@@@2@XZ 000000018003f2f4     priorityqueue_api.obj
 0002:000022fc       $unwind$?bucket@?$_Hash@V?$_Umap_traits@HHV?$_Uhash_compare@HU?$hash@H@std@@U?$equal_to@H@2@@std@@V?$allocator@U?$pair@$$CBHH@std@@@2@$0A@@std@@@std@@QEBA_KAEBH@Z 000000018003f2fc     priorityqueue_api.obj
 0002:00002304       $unwind$?max_load_factor@?$_Hash@V?$_Umap_traits@HHV?$_Uhash_compare@HU?$hash@H@std@@U?$equal_to@H@2@@std@@V?$allocator@U?$pair@$$CBHH@std@@@2@$0A@@std@@@std@@QEBAMXZ 000000018003f304     priorityqueue_api.obj
 0002:0000230c       $unwind$?_Unchecked_erase@?$_Hash@V?$_Umap_traits@HHV?$_Uhash_compare@HU?$hash@H@std@@U?$equal_to@H@2@@std@@V?$allocator@U?$pair@$$CBHH@std@@@2@$0A@@std@@@std@@AEAAPEAU?$_List_node@U?$pair@$$CBHH@std@@PEAX@2@PEAU32@QEAU32@@Z 000000018003f30c     priorityqueue_api.obj
 0002:00002314       $unwind$?clear@?$_Hash@V?$_Umap_traits@HHV?$_Uhash_compare@HU?$hash@H@std@@U?$equal_to@H@2@@std@@V?$allocator@U?$pair@$$CBHH@std@@@2@$0A@@std@@@std@@QEAAXXZ 000000018003f314     priorityqueue_api.obj
 0002:00002324       $cppxdata$?clear@?$_Hash@V?$_Umap_traits@HHV?$_Uhash_compare@HU?$hash@H@std@@U?$equal_to@H@2@@std@@V?$allocator@U?$pair@$$CBHH@std@@@2@$0A@@std@@@std@@QEAAXXZ 000000018003f324     priorityqueue_api.obj
 0002:00002329       $ip2state$?clear@?$_Hash@V?$_Umap_traits@HHV?$_Uhash_compare@HU?$hash@H@std@@U?$equal_to@H@2@@std@@V?$allocator@U?$pair@$$CBHH@std@@@2@$0A@@std@@@std@@QEAAXXZ 000000018003f329     priorityqueue_api.obj
 0002:0000232c       $unwind$?_Insert_new_node_before@?$_Hash@V?$_Umap_traits@HHV?$_Uhash_compare@HU?$hash@H@std@@U?$equal_to@H@2@@std@@V?$allocator@U?$pair@$$CBHH@std@@@2@$0A@@std@@@std@@IEAAPEAU?$_List_node@U?$pair@$$CBHH@std@@PEAX@2@_KQEAU32@1@Z 000000018003f32c     priorityqueue_api.obj
 0002:00002334       $unwind$?_Check_max_size@?$_Hash@V?$_Umap_traits@HHV?$_Uhash_compare@HU?$hash@H@std@@U?$equal_to@H@2@@std@@V?$allocator@U?$pair@$$CBHH@std@@@2@$0A@@std@@@std@@IEBAXXZ 000000018003f334     priorityqueue_api.obj
 0002:0000233c       $unwind$?_Check_rehash_required_1@?$_Hash@V?$_Umap_traits@HHV?$_Uhash_compare@HU?$hash@H@std@@U?$equal_to@H@2@@std@@V?$allocator@U?$pair@$$CBHH@std@@@2@$0A@@std@@@std@@IEBA_NXZ 000000018003f33c     priorityqueue_api.obj
 0002:00002344       $unwind$?_Rehash_for_1@?$_Hash@V?$_Umap_traits@HHV?$_Uhash_compare@HU?$hash@H@std@@U?$equal_to@H@2@@std@@V?$allocator@U?$pair@$$CBHH@std@@@2@$0A@@std@@@std@@IEAAXXZ 000000018003f344     priorityqueue_api.obj
 0002:0000234c       $unwind$?_Min_load_factor_buckets@?$_Hash@V?$_Umap_traits@HHV?$_Uhash_compare@HU?$hash@H@std@@U?$equal_to@H@2@@std@@V?$allocator@U?$pair@$$CBHH@std@@@2@$0A@@std@@@std@@IEBA_K_K@Z 000000018003f34c     priorityqueue_api.obj
 0002:0000235c       $cppxdata$?_Min_load_factor_buckets@?$_Hash@V?$_Umap_traits@HHV?$_Uhash_compare@HU?$hash@H@std@@U?$equal_to@H@2@@std@@V?$allocator@U?$pair@$$CBHH@std@@@2@$0A@@std@@@std@@IEBA_K_K@Z 000000018003f35c     priorityqueue_api.obj
 0002:00002361       $ip2state$?_Min_load_factor_buckets@?$_Hash@V?$_Umap_traits@HHV?$_Uhash_compare@HU?$hash@H@std@@U?$equal_to@H@2@@std@@V?$allocator@U?$pair@$$CBHH@std@@@2@$0A@@std@@@std@@IEBA_K_K@Z 000000018003f361     priorityqueue_api.obj
 0002:00002364       $unwind$?_Desired_grow_bucket_count@?$_Hash@V?$_Umap_traits@HHV?$_Uhash_compare@HU?$hash@H@std@@U?$equal_to@H@2@@std@@V?$allocator@U?$pair@$$CBHH@std@@@2@$0A@@std@@@std@@IEBA_K_K@Z 000000018003f364     priorityqueue_api.obj
 0002:0000236c       $unwind$?_Forced_rehash@?$_Hash@V?$_Umap_traits@HHV?$_Uhash_compare@HU?$hash@H@std@@U?$equal_to@H@2@@std@@V?$allocator@U?$pair@$$CBHH@std@@@2@$0A@@std@@@std@@IEAAX_K@Z 000000018003f36c     priorityqueue_api.obj
 0002:00002374       $unwind$?_Max_bucket_size@?$_Hash@V?$_Umap_traits@HHV?$_Uhash_compare@HU?$hash@H@std@@U?$equal_to@H@2@@std@@V?$allocator@U?$pair@$$CBHH@std@@@2@$0A@@std@@@std@@IEAAAEAMXZ 000000018003f374     priorityqueue_api.obj
 0002:0000237c       $unwind$?_Max_bucket_size@?$_Hash@V?$_Umap_traits@HHV?$_Uhash_compare@HU?$hash@H@std@@U?$equal_to@H@2@@std@@V?$allocator@U?$pair@$$CBHH@std@@@2@$0A@@std@@@std@@IEBAAEBMXZ 000000018003f37c     priorityqueue_api.obj
 0002:00002384       $unwind$?_Getal@?$_Hash@V?$_Umap_traits@HHV?$_Uhash_compare@HU?$hash@H@std@@U?$equal_to@H@2@@std@@V?$allocator@U?$pair@$$CBHH@std@@@2@$0A@@std@@@std@@IEAAAEAV?$allocator@U?$_List_node@U?$pair@$$CBHH@std@@PEAX@std@@@2@XZ 000000018003f384     priorityqueue_api.obj
 0002:0000238c       $unwind$?deallocate@?$allocator@V?$_List_unchecked_iterator@V?$_List_val@U?$_List_simple_types@U?$pair@$$CBHH@std@@@std@@@std@@@std@@@std@@QEAAXQEAV?$_List_unchecked_iterator@V?$_List_val@U?$_List_simple_types@U?$pair@$$CBHH@std@@@std@@@std@@@2@_K@Z 000000018003f38c     priorityqueue_api.obj
 0002:00002394       $unwind$?allocate@?$allocator@V?$_List_unchecked_iterator@V?$_List_val@U?$_List_simple_types@U?$pair@$$CBHH@std@@@std@@@std@@@std@@@std@@QEAAPEAV?$_List_unchecked_iterator@V?$_List_val@U?$_List_simple_types@U?$pair@$$CBHH@std@@@std@@@std@@@2@_K@Z 000000018003f394     priorityqueue_api.obj
 0002:0000239c       $unwind$?max_size@?$_Hash_vec@V?$allocator@V?$_List_unchecked_iterator@V?$_List_val@U?$_List_simple_types@U?$pair@$$CBHH@std@@@std@@@std@@@std@@@std@@@std@@QEBA_KXZ 000000018003f39c     priorityqueue_api.obj
 0002:000023a4       $unwind$?_Assign_grow@?$_Hash_vec@V?$allocator@V?$_List_unchecked_iterator@V?$_List_val@U?$_List_simple_types@U?$pair@$$CBHH@std@@@std@@@std@@@std@@@std@@@std@@QEAAX_KV?$_List_unchecked_iterator@V?$_List_val@U?$_List_simple_types@U?$pair@$$CBHH@std@@@std@@@std@@@2@@Z 000000018003f3a4     priorityqueue_api.obj
 0002:000023ac       $unwind$?_Tidy@?$_Hash_vec@V?$allocator@V?$_List_unchecked_iterator@V?$_List_val@U?$_List_simple_types@U?$pair@$$CBHH@std@@@std@@@std@@@std@@@std@@@std@@QEAAXXZ 000000018003f3ac     priorityqueue_api.obj
 0002:000023bc       $cppxdata$?_Tidy@?$_Hash_vec@V?$allocator@V?$_List_unchecked_iterator@V?$_List_val@U?$_List_simple_types@U?$pair@$$CBHH@std@@@std@@@std@@@std@@@std@@@std@@QEAAXXZ 000000018003f3bc     priorityqueue_api.obj
 0002:000023c1       $ip2state$?_Tidy@?$_Hash_vec@V?$allocator@V?$_List_unchecked_iterator@V?$_List_val@U?$_List_simple_types@U?$pair@$$CBHH@std@@@std@@@std@@@std@@@std@@@std@@QEAAXXZ 000000018003f3c1     priorityqueue_api.obj
 0002:000023c4       $unwind$??1?$_Hash_vec@V?$allocator@V?$_List_unchecked_iterator@V?$_List_val@U?$_List_simple_types@U?$pair@$$CBHH@std@@@std@@@std@@@std@@@std@@@std@@QEAA@XZ 000000018003f3c4     priorityqueue_api.obj
 0002:000023cc       $unwind$?_Swap_val@?$_Vector_val@U?$_Simple_types@V?$_List_unchecked_iterator@V?$_List_val@U?$_List_simple_types@U?$pair@$$CBHH@std@@@std@@@std@@@std@@@std@@@std@@QEAAXAEAV12@@Z 000000018003f3cc     priorityqueue_api.obj
 0002:000023d4       $unwind$??1?$_Hash@V?$_Umap_traits@HHV?$_Uhash_compare@HU?$hash@H@std@@U?$equal_to@H@2@@std@@V?$allocator@U?$pair@$$CBHH@std@@@2@$0A@@std@@@std@@QEAA@XZ 000000018003f3d4     priorityqueue_api.obj
 0002:000023dc       $unwind$??0?$unordered_map@HHU?$hash@H@std@@U?$equal_to@H@2@V?$allocator@U?$pair@$$CBHH@std@@@2@@std@@QEAA@XZ 000000018003f3dc     priorityqueue_api.obj
 0002:000023e4       $unwind$??4?$unordered_map@HHU?$hash@H@std@@U?$equal_to@H@2@V?$allocator@U?$pair@$$CBHH@std@@@2@@std@@QEAAAEAV01@$$QEAV01@@Z 000000018003f3e4     priorityqueue_api.obj
 0002:000023f4       $cppxdata$??4?$unordered_map@HHU?$hash@H@std@@U?$equal_to@H@2@V?$allocator@U?$pair@$$CBHH@std@@@2@@std@@QEAAAEAV01@$$QEAV01@@Z 000000018003f3f4     priorityqueue_api.obj
 0002:000023f9       $ip2state$??4?$unordered_map@HHU?$hash@H@std@@U?$equal_to@H@2@V?$allocator@U?$pair@$$CBHH@std@@@2@@std@@QEAAAEAV01@$$QEAV01@@Z 000000018003f3f9     priorityqueue_api.obj
 0002:000023fc       $unwind$??A?$unordered_map@HHU?$hash@H@std@@U?$equal_to@H@2@V?$allocator@U?$pair@$$CBHH@std@@@2@@std@@QEAAAEAHAEBH@Z 000000018003f3fc     priorityqueue_api.obj
 0002:00002404       $unwind$??1?$unordered_map@HHU?$hash@H@std@@U?$equal_to@H@2@V?$allocator@U?$pair@$$CBHH@std@@@2@@std@@QEAA@XZ 000000018003f404     priorityqueue_api.obj
 0002:0000240c       $unwind$??0NodeMap@nav@@QEAA@H@Z 000000018003f40c     priorityqueue_api.obj
 0002:0000241c       $cppxdata$??0NodeMap@nav@@QEAA@H@Z 000000018003f41c     priorityqueue_api.obj
 0002:00002425       $stateUnwindMap$??0NodeMap@nav@@QEAA@H@Z 000000018003f425     priorityqueue_api.obj
 0002:00002430       $ip2state$??0NodeMap@nav@@QEAA@H@Z 000000018003f430     priorityqueue_api.obj
 0002:0000243c       $unwind$?dtor$0@?0???0NodeMap@nav@@QEAA@H@Z@4HA 000000018003f43c     priorityqueue_api.obj
 0002:00002444       $unwind$?dtor$1@?0???0NodeMap@nav@@QEAA@H@Z@4HA 000000018003f444     priorityqueue_api.obj
 0002:0000244c       $unwind$?insertNode@NodeMap@nav@@QEAAHPEBNH@Z 000000018003f44c     priorityqueue_api.obj
 0002:0000245c       $cppxdata$?insertNode@NodeMap@nav@@QEAAHPEBNH@Z 000000018003f45c     priorityqueue_api.obj
 0002:00002465       $stateUnwindMap$?insertNode@NodeMap@nav@@QEAAHPEBNH@Z 000000018003f465     priorityqueue_api.obj
 0002:0000246b       $ip2state$?insertNode@NodeMap@nav@@QEAAHPEBNH@Z 000000018003f46b     priorityqueue_api.obj
 0002:00002474       $unwind$?dtor$0@?0??insertNode@NodeMap@nav@@QEAAHPEBNH@Z@4HA 000000018003f474     priorityqueue_api.obj
 0002:0000247c       $unwind$?getNodeData@NodeMap@nav@@QEAA?AV?$vector@NV?$allocator@N@std@@@std@@HAEAH@Z 000000018003f47c     priorityqueue_api.obj
 0002:00002484       $unwind$?traceBack@NodeMap@nav@@QEAA?AV?$vector@V?$vector@NV?$allocator@N@std@@@std@@V?$allocator@V?$vector@NV?$allocator@N@std@@@std@@@2@@std@@H@Z 000000018003f484     priorityqueue_api.obj
 0002:00002494       $cppxdata$?traceBack@NodeMap@nav@@QEAA?AV?$vector@V?$vector@NV?$allocator@N@std@@@std@@V?$allocator@V?$vector@NV?$allocator@N@std@@@std@@@2@@std@@H@Z 000000018003f494     priorityqueue_api.obj
 0002:0000249d       $stateUnwindMap$?traceBack@NodeMap@nav@@QEAA?AV?$vector@V?$vector@NV?$allocator@N@std@@@std@@V?$allocator@V?$vector@NV?$allocator@N@std@@@std@@@2@@std@@H@Z 000000018003f49d     priorityqueue_api.obj
 0002:000024a3       $ip2state$?traceBack@NodeMap@nav@@QEAA?AV?$vector@V?$vector@NV?$allocator@N@std@@@std@@V?$allocator@V?$vector@NV?$allocator@N@std@@@std@@@2@@std@@H@Z 000000018003f4a3     priorityqueue_api.obj
 0002:000024ac       $unwind$?dtor$0@?0??traceBack@NodeMap@nav@@QEAA?AV?$vector@V?$vector@NV?$allocator@N@std@@@std@@V?$allocator@V?$vector@NV?$allocator@N@std@@@std@@@2@@std@@H@Z@4HA 000000018003f4ac     priorityqueue_api.obj
 0002:000024b4       $unwind$?getNumNodes@NodeMap@nav@@QEAA_KXZ 000000018003f4b4     priorityqueue_api.obj
 0002:000024bc       $unwind$??1NodeMap@nav@@QEAA@XZ 000000018003f4bc     priorityqueue_api.obj
 0002:000024c4       $unwind$??_GNodeMap@nav@@QEAAPEAXI@Z 000000018003f4c4     priorityqueue_api.obj
 0002:000024cc       $unwind$?deallocate@?$allocator@V?$vector@NV?$allocator@N@std@@@std@@@std@@QEAAXQEAV?$vector@NV?$allocator@N@std@@@2@_K@Z 000000018003f4cc     priorityqueue_api.obj
 0002:000024d4       $unwind$?allocate@?$allocator@V?$vector@NV?$allocator@N@std@@@std@@@std@@QEAAPEAV?$vector@NV?$allocator@N@std@@@2@_K@Z 000000018003f4d4     priorityqueue_api.obj
 0002:000024dc       $unwind$??0?$vector@V?$vector@NV?$allocator@N@std@@@std@@V?$allocator@V?$vector@NV?$allocator@N@std@@@std@@@2@@std@@QEAA@XZ 000000018003f4dc     priorityqueue_api.obj
 0002:000024e4       $unwind$??0?$vector@V?$vector@NV?$allocator@N@std@@@std@@V?$allocator@V?$vector@NV?$allocator@N@std@@@std@@@2@@std@@QEAA@$$QEAV01@@Z 000000018003f4e4     priorityqueue_api.obj
 0002:000024ec       $unwind$??1?$vector@V?$vector@NV?$allocator@N@std@@@std@@V?$allocator@V?$vector@NV?$allocator@N@std@@@std@@@2@@std@@QEAA@XZ 000000018003f4ec     priorityqueue_api.obj
 0002:000024f4       $unwind$?push_back@?$vector@V?$vector@NV?$allocator@N@std@@@std@@V?$allocator@V?$vector@NV?$allocator@N@std@@@std@@@2@@std@@QEAAXAEBV?$vector@NV?$allocator@N@std@@@2@@Z 000000018003f4f4     priorityqueue_api.obj
 0002:000024fc       $unwind$?begin@?$vector@V?$vector@NV?$allocator@N@std@@@std@@V?$allocator@V?$vector@NV?$allocator@N@std@@@std@@@2@@std@@QEAA?AV?$_Vector_iterator@V?$_Vector_val@U?$_Simple_types@V?$vector@NV?$allocator@N@std@@@std@@@std@@@std@@@2@XZ 000000018003f4fc     priorityqueue_api.obj
 0002:00002504       $unwind$?end@?$vector@V?$vector@NV?$allocator@N@std@@@std@@V?$allocator@V?$vector@NV?$allocator@N@std@@@std@@@2@@std@@QEAA?AV?$_Vector_iterator@V?$_Vector_val@U?$_Simple_types@V?$vector@NV?$allocator@N@std@@@std@@@std@@@std@@@2@XZ 000000018003f504     priorityqueue_api.obj
 0002:0000250c       $unwind$?empty@?$vector@V?$vector@NV?$allocator@N@std@@@std@@V?$allocator@V?$vector@NV?$allocator@N@std@@@std@@@2@@std@@QEBA_NXZ 000000018003f50c     priorityqueue_api.obj
 0002:00002514       $unwind$?size@?$vector@V?$vector@NV?$allocator@N@std@@@std@@V?$allocator@V?$vector@NV?$allocator@N@std@@@std@@@2@@std@@QEBA_KXZ 000000018003f514     priorityqueue_api.obj
 0002:0000251c       $unwind$?max_size@?$vector@V?$vector@NV?$allocator@N@std@@@std@@V?$allocator@V?$vector@NV?$allocator@N@std@@@std@@@2@@std@@QEBA_KXZ 000000018003f51c     priorityqueue_api.obj
 0002:00002524       $unwind$?capacity@?$vector@V?$vector@NV?$allocator@N@std@@@std@@V?$allocator@V?$vector@NV?$allocator@N@std@@@std@@@2@@std@@QEBA_KXZ 000000018003f524     priorityqueue_api.obj
 0002:0000252c       $unwind$?_Calculate_growth@?$vector@V?$vector@NV?$allocator@N@std@@@std@@V?$allocator@V?$vector@NV?$allocator@N@std@@@std@@@2@@std@@AEBA_K_K@Z 000000018003f52c     priorityqueue_api.obj
 0002:00002534       $unwind$?_Change_array@?$vector@V?$vector@NV?$allocator@N@std@@@std@@V?$allocator@V?$vector@NV?$allocator@N@std@@@std@@@2@@std@@AEAAXQEAV?$vector@NV?$allocator@N@std@@@2@_K1@Z 000000018003f534     priorityqueue_api.obj
 0002:0000253c       $unwind$?_Tidy@?$vector@V?$vector@NV?$allocator@N@std@@@std@@V?$allocator@V?$vector@NV?$allocator@N@std@@@std@@@2@@std@@AEAAXXZ 000000018003f53c     priorityqueue_api.obj
 0002:0000254c       $cppxdata$?_Tidy@?$vector@V?$vector@NV?$allocator@N@std@@@std@@V?$allocator@V?$vector@NV?$allocator@N@std@@@std@@@2@@std@@AEAAXXZ 000000018003f54c     priorityqueue_api.obj
 0002:00002551       $ip2state$?_Tidy@?$vector@V?$vector@NV?$allocator@N@std@@@std@@V?$allocator@V?$vector@NV?$allocator@N@std@@@std@@@2@@std@@AEAAXXZ 000000018003f551     priorityqueue_api.obj
 0002:00002554       $unwind$?_Xlength@?$vector@V?$vector@NV?$allocator@N@std@@@std@@V?$allocator@V?$vector@NV?$allocator@N@std@@@std@@@2@@std@@CAXXZ 000000018003f554     priorityqueue_api.obj
 0002:0000255c       $unwind$?_Getal@?$vector@V?$vector@NV?$allocator@N@std@@@std@@V?$allocator@V?$vector@NV?$allocator@N@std@@@std@@@2@@std@@AEAAAEAV?$allocator@V?$vector@NV?$allocator@N@std@@@std@@@2@XZ 000000018003f55c     priorityqueue_api.obj
 0002:00002564       $unwind$?_Getal@?$vector@V?$vector@NV?$allocator@N@std@@@std@@V?$allocator@V?$vector@NV?$allocator@N@std@@@std@@@2@@std@@AEBAAEBV?$allocator@V?$vector@NV?$allocator@N@std@@@std@@@2@XZ 000000018003f564     priorityqueue_api.obj
 0002:0000256c       $unwind$??$find@X@?$_Hash@V?$_Umap_traits@HHV?$_Uhash_compare@HU?$hash@H@std@@U?$equal_to@H@2@@std@@V?$allocator@U?$pair@$$CBHH@std@@@2@$0A@@std@@@std@@QEAA?AV?$_List_iterator@V?$_List_val@U?$_List_simple_types@U?$pair@$$CBHH@std@@@std@@@std@@@1@AEBH@Z 000000018003f56c     priorityqueue_api.obj
 0002:00002574       $unwind$??0?$_List_unchecked_const_iterator@V?$_List_val@U?$_List_simple_types@U?$pair@$$CBHH@std@@@std@@@std@@U_Iterator_base0@2@@std@@QEAA@PEAU?$_List_node@U?$pair@$$CBHH@std@@PEAX@1@PEBV?$_List_val@U?$_List_simple_types@U?$pair@$$CBHH@std@@@std@@@1@@Z 000000018003f574     priorityqueue_api.obj
 0002:0000257c       $unwind$??8?$_List_unchecked_const_iterator@V?$_List_val@U?$_List_simple_types@U?$pair@$$CBHH@std@@@std@@@std@@U_Iterator_base0@2@@std@@QEBA_NAEBV01@@Z 000000018003f57c     priorityqueue_api.obj
 0002:00002584       $unwind$??9?$_List_unchecked_const_iterator@V?$_List_val@U?$_List_simple_types@U?$pair@$$CBHH@std@@@std@@@std@@U_Iterator_base0@2@@std@@QEBA_NAEBV01@@Z 000000018003f584     priorityqueue_api.obj
 0002:0000258c       $unwind$??8?$_List_const_iterator@V?$_List_val@U?$_List_simple_types@U?$pair@$$CBHH@std@@@std@@@std@@@std@@QEBA_NAEBV01@@Z 000000018003f58c     priorityqueue_api.obj
 0002:00002594       $unwind$??9?$_List_const_iterator@V?$_List_val@U?$_List_simple_types@U?$pair@$$CBHH@std@@@std@@@std@@@std@@QEBA_NAEBV01@@Z 000000018003f594     priorityqueue_api.obj
 0002:0000259c       $unwind$??0?$_List_const_iterator@V?$_List_val@U?$_List_simple_types@U?$pair@$$CBHH@std@@@std@@@std@@@std@@QEAA@PEAU?$_List_node@U?$pair@$$CBHH@std@@PEAX@1@PEBV?$_List_val@U?$_List_simple_types@U?$pair@$$CBHH@std@@@std@@@1@@Z 000000018003f59c     priorityqueue_api.obj
 0002:000025a4       $unwind$??0?$_List_iterator@V?$_List_val@U?$_List_simple_types@U?$pair@$$CBHH@std@@@std@@@std@@@std@@QEAA@PEAU?$_List_node@U?$pair@$$CBHH@std@@PEAX@1@PEBV?$_List_val@U?$_List_simple_types@U?$pair@$$CBHH@std@@@std@@@1@@Z 000000018003f5a4     priorityqueue_api.obj
 0002:000025ac       $unwind$??$emplace_back@AEBHN@?$vector@V?$vector@NV?$allocator@N@std@@@std@@V?$allocator@V?$vector@NV?$allocator@N@std@@@std@@@2@@std@@QEAA?A_TAEBH$$QEAN@Z 000000018003f5ac     priorityqueue_api.obj
 0002:000025b4       $unwind$??$_Emplace_one_at_back@AEBHN@?$vector@V?$vector@NV?$allocator@N@std@@@std@@V?$allocator@V?$vector@NV?$allocator@N@std@@@std@@@2@@std@@AEAAAEAV?$vector@NV?$allocator@N@std@@@1@AEBH$$QEAN@Z 000000018003f5b4     priorityqueue_api.obj
 0002:000025bc       $unwind$??Rcomparator@PriorityQueueImpl@nav@@QEBA_NAEBU?$pair@HV?$vector@NV?$allocator@N@std@@@std@@@std@@0@Z 000000018003f5bc     priorityqueue_api.obj
 0002:000025c4       $unwind$?deallocate@?$allocator@U?$pair@HV?$vector@NV?$allocator@N@std@@@std@@@std@@@std@@QEAAXQEAU?$pair@HV?$vector@NV?$allocator@N@std@@@std@@@2@_K@Z 000000018003f5c4     priorityqueue_api.obj
 0002:000025cc       $unwind$?allocate@?$allocator@U?$pair@HV?$vector@NV?$allocator@N@std@@@std@@@std@@@std@@QEAAPEAU?$pair@HV?$vector@NV?$allocator@N@std@@@std@@@2@_K@Z 000000018003f5cc     priorityqueue_api.obj
 0002:000025d4       $unwind$??0?$vector@U?$pair@HV?$vector@NV?$allocator@N@std@@@std@@@std@@V?$allocator@U?$pair@HV?$vector@NV?$allocator@N@std@@@std@@@std@@@2@@std@@QEAA@XZ 000000018003f5d4     priorityqueue_api.obj
 0002:000025dc       $unwind$??4?$vector@U?$pair@HV?$vector@NV?$allocator@N@std@@@std@@@std@@V?$allocator@U?$pair@HV?$vector@NV?$allocator@N@std@@@std@@@std@@@2@@std@@QEAAAEAV01@$$QEAV01@@Z 000000018003f5dc     priorityqueue_api.obj
 0002:000025e4       $unwind$??1?$vector@U?$pair@HV?$vector@NV?$allocator@N@std@@@std@@@std@@V?$allocator@U?$pair@HV?$vector@NV?$allocator@N@std@@@std@@@std@@@2@@std@@QEAA@XZ 000000018003f5e4     priorityqueue_api.obj
 0002:000025ec       $unwind$?pop_back@?$vector@U?$pair@HV?$vector@NV?$allocator@N@std@@@std@@@std@@V?$allocator@U?$pair@HV?$vector@NV?$allocator@N@std@@@std@@@std@@@2@@std@@QEAAXXZ 000000018003f5ec     priorityqueue_api.obj
 0002:000025fc       $cppxdata$?pop_back@?$vector@U?$pair@HV?$vector@NV?$allocator@N@std@@@std@@@std@@V?$allocator@U?$pair@HV?$vector@NV?$allocator@N@std@@@std@@@std@@@2@@std@@QEAAXXZ 000000018003f5fc     priorityqueue_api.obj
 0002:00002601       $ip2state$?pop_back@?$vector@U?$pair@HV?$vector@NV?$allocator@N@std@@@std@@@std@@V?$allocator@U?$pair@HV?$vector@NV?$allocator@N@std@@@std@@@std@@@2@@std@@QEAAXXZ 000000018003f601     priorityqueue_api.obj
 0002:00002604       $unwind$?begin@?$vector@U?$pair@HV?$vector@NV?$allocator@N@std@@@std@@@std@@V?$allocator@U?$pair@HV?$vector@NV?$allocator@N@std@@@std@@@std@@@2@@std@@QEAA?AV?$_Vector_iterator@V?$_Vector_val@U?$_Simple_types@U?$pair@HV?$vector@NV?$allocator@N@std@@@std@@@std@@@std@@@std@@@2@XZ 000000018003f604     priorityqueue_api.obj
 0002:0000260c       $unwind$?end@?$vector@U?$pair@HV?$vector@NV?$allocator@N@std@@@std@@@std@@V?$allocator@U?$pair@HV?$vector@NV?$allocator@N@std@@@std@@@std@@@2@@std@@QEAA?AV?$_Vector_iterator@V?$_Vector_val@U?$_Simple_types@U?$pair@HV?$vector@NV?$allocator@N@std@@@std@@@std@@@std@@@std@@@2@XZ 000000018003f60c     priorityqueue_api.obj
 0002:00002614       $unwind$?empty@?$vector@U?$pair@HV?$vector@NV?$allocator@N@std@@@std@@@std@@V?$allocator@U?$pair@HV?$vector@NV?$allocator@N@std@@@std@@@std@@@2@@std@@QEBA_NXZ 000000018003f614     priorityqueue_api.obj
 0002:0000261c       $unwind$?size@?$vector@U?$pair@HV?$vector@NV?$allocator@N@std@@@std@@@std@@V?$allocator@U?$pair@HV?$vector@NV?$allocator@N@std@@@std@@@std@@@2@@std@@QEBA_KXZ 000000018003f61c     priorityqueue_api.obj
 0002:00002624       $unwind$?max_size@?$vector@U?$pair@HV?$vector@NV?$allocator@N@std@@@std@@@std@@V?$allocator@U?$pair@HV?$vector@NV?$allocator@N@std@@@std@@@std@@@2@@std@@QEBA_KXZ 000000018003f624     priorityqueue_api.obj
 0002:0000262c       $unwind$?capacity@?$vector@U?$pair@HV?$vector@NV?$allocator@N@std@@@std@@@std@@V?$allocator@U?$pair@HV?$vector@NV?$allocator@N@std@@@std@@@std@@@2@@std@@QEBA_KXZ 000000018003f62c     priorityqueue_api.obj
 0002:00002634       $unwind$?front@?$vector@U?$pair@HV?$vector@NV?$allocator@N@std@@@std@@@std@@V?$allocator@U?$pair@HV?$vector@NV?$allocator@N@std@@@std@@@std@@@2@@std@@QEBAAEBU?$pair@HV?$vector@NV?$allocator@N@std@@@std@@@2@XZ 000000018003f634     priorityqueue_api.obj
 0002:0000263c       $unwind$?_Calculate_growth@?$vector@U?$pair@HV?$vector@NV?$allocator@N@std@@@std@@@std@@V?$allocator@U?$pair@HV?$vector@NV?$allocator@N@std@@@std@@@std@@@2@@std@@AEBA_K_K@Z 000000018003f63c     priorityqueue_api.obj
 0002:00002644       $unwind$?_Change_array@?$vector@U?$pair@HV?$vector@NV?$allocator@N@std@@@std@@@std@@V?$allocator@U?$pair@HV?$vector@NV?$allocator@N@std@@@std@@@std@@@2@@std@@AEAAXQEAU?$pair@HV?$vector@NV?$allocator@N@std@@@std@@@2@_K1@Z 000000018003f644     priorityqueue_api.obj
 0002:0000264c       $unwind$?_Tidy@?$vector@U?$pair@HV?$vector@NV?$allocator@N@std@@@std@@@std@@V?$allocator@U?$pair@HV?$vector@NV?$allocator@N@std@@@std@@@std@@@2@@std@@AEAAXXZ 000000018003f64c     priorityqueue_api.obj
 0002:0000265c       $cppxdata$?_Tidy@?$vector@U?$pair@HV?$vector@NV?$allocator@N@std@@@std@@@std@@V?$allocator@U?$pair@HV?$vector@NV?$allocator@N@std@@@std@@@std@@@2@@std@@AEAAXXZ 000000018003f65c     priorityqueue_api.obj
 0002:00002661       $ip2state$?_Tidy@?$vector@U?$pair@HV?$vector@NV?$allocator@N@std@@@std@@@std@@V?$allocator@U?$pair@HV?$vector@NV?$allocator@N@std@@@std@@@std@@@2@@std@@AEAAXXZ 000000018003f661     priorityqueue_api.obj
 0002:00002664       $unwind$?_Xlength@?$vector@U?$pair@HV?$vector@NV?$allocator@N@std@@@std@@@std@@V?$allocator@U?$pair@HV?$vector@NV?$allocator@N@std@@@std@@@std@@@2@@std@@CAXXZ 000000018003f664     priorityqueue_api.obj
 0002:0000266c       $unwind$?_Getal@?$vector@U?$pair@HV?$vector@NV?$allocator@N@std@@@std@@@std@@V?$allocator@U?$pair@HV?$vector@NV?$allocator@N@std@@@std@@@std@@@2@@std@@AEAAAEAV?$allocator@U?$pair@HV?$vector@NV?$allocator@N@std@@@std@@@std@@@2@XZ 000000018003f66c     priorityqueue_api.obj
 0002:00002674       $unwind$?_Getal@?$vector@U?$pair@HV?$vector@NV?$allocator@N@std@@@std@@@std@@V?$allocator@U?$pair@HV?$vector@NV?$allocator@N@std@@@std@@@std@@@2@@std@@AEBAAEBV?$allocator@U?$pair@HV?$vector@NV?$allocator@N@std@@@std@@@std@@@2@XZ 000000018003f674     priorityqueue_api.obj
 0002:0000267c       $unwind$?_Take_contents@?$_Vector_val@U?$_Simple_types@U?$pair@HV?$vector@NV?$allocator@N@std@@@std@@@std@@@std@@@std@@QEAAXAEAV12@@Z 000000018003f67c     priorityqueue_api.obj
 0002:00002684       $unwind$??0?$priority_queue@U?$pair@HV?$vector@NV?$allocator@N@std@@@std@@@std@@V?$vector@U?$pair@HV?$vector@NV?$allocator@N@std@@@std@@@std@@V?$allocator@U?$pair@HV?$vector@NV?$allocator@N@std@@@std@@@std@@@2@@2@Ucomparator@PriorityQueueImpl@nav@@@std@@QEAA@XZ 000000018003f684     priorityqueue_api.obj
 0002:00002694       $cppxdata$??0?$priority_queue@U?$pair@HV?$vector@NV?$allocator@N@std@@@std@@@std@@V?$vector@U?$pair@HV?$vector@NV?$allocator@N@std@@@std@@@std@@V?$allocator@U?$pair@HV?$vector@NV?$allocator@N@std@@@std@@@std@@@2@@2@Ucomparator@PriorityQueueImpl@nav@@@std@@QEAA@XZ 000000018003f694     priorityqueue_api.obj
 0002:0000269d       $stateUnwindMap$??0?$priority_queue@U?$pair@HV?$vector@NV?$allocator@N@std@@@std@@@std@@V?$vector@U?$pair@HV?$vector@NV?$allocator@N@std@@@std@@@std@@V?$allocator@U?$pair@HV?$vector@NV?$allocator@N@std@@@std@@@std@@@2@@2@Ucomparator@PriorityQueueImpl@nav@@@std@@QEAA@XZ 000000018003f69d     priorityqueue_api.obj
 0002:000026a3       $ip2state$??0?$priority_queue@U?$pair@HV?$vector@NV?$allocator@N@std@@@std@@@std@@V?$vector@U?$pair@HV?$vector@NV?$allocator@N@std@@@std@@@std@@V?$allocator@U?$pair@HV?$vector@NV?$allocator@N@std@@@std@@@std@@@2@@2@Ucomparator@PriorityQueueImpl@nav@@@std@@QEAA@XZ 000000018003f6a3     priorityqueue_api.obj
 0002:000026ac       $unwind$?dtor$0@?0???0?$priority_queue@U?$pair@HV?$vector@NV?$allocator@N@std@@@std@@@std@@V?$vector@U?$pair@HV?$vector@NV?$allocator@N@std@@@std@@@std@@V?$allocator@U?$pair@HV?$vector@NV?$allocator@N@std@@@std@@@std@@@2@@2@Ucomparator@PriorityQueueImpl@nav@@@std@@QEAA@XZ@4HA 000000018003f6ac     priorityqueue_api.obj
 0002:000026b4       $unwind$??0?$priority_queue@U?$pair@HV?$vector@NV?$allocator@N@std@@@std@@@std@@V?$vector@U?$pair@HV?$vector@NV?$allocator@N@std@@@std@@@std@@V?$allocator@U?$pair@HV?$vector@NV?$allocator@N@std@@@std@@@std@@@2@@2@Ucomparator@PriorityQueueImpl@nav@@@std@@QEAA@AEBUcomparator@PriorityQueueImpl@nav@@@Z 000000018003f6b4     priorityqueue_api.obj
 0002:000026bc       $unwind$?empty@?$priority_queue@U?$pair@HV?$vector@NV?$allocator@N@std@@@std@@@std@@V?$vector@U?$pair@HV?$vector@NV?$allocator@N@std@@@std@@@std@@V?$allocator@U?$pair@HV?$vector@NV?$allocator@N@std@@@std@@@std@@@2@@2@Ucomparator@PriorityQueueImpl@nav@@@std@@QEBA_NXZ 000000018003f6bc     priorityqueue_api.obj
 0002:000026c4       $unwind$?size@?$priority_queue@U?$pair@HV?$vector@NV?$allocator@N@std@@@std@@@std@@V?$vector@U?$pair@HV?$vector@NV?$allocator@N@std@@@std@@@std@@V?$allocator@U?$pair@HV?$vector@NV?$allocator@N@std@@@std@@@std@@@2@@2@Ucomparator@PriorityQueueImpl@nav@@@std@@QEBA_KXZ 000000018003f6c4     priorityqueue_api.obj
 0002:000026cc       $unwind$?top@?$priority_queue@U?$pair@HV?$vector@NV?$allocator@N@std@@@std@@@std@@V?$vector@U?$pair@HV?$vector@NV?$allocator@N@std@@@std@@@std@@V?$allocator@U?$pair@HV?$vector@NV?$allocator@N@std@@@std@@@std@@@2@@2@Ucomparator@PriorityQueueImpl@nav@@@std@@QEBAAEBU?$pair@HV?$vector@NV?$allocator@N@std@@@std@@@2@XZ 000000018003f6cc     priorityqueue_api.obj
 0002:000026d4       $unwind$?pop@?$priority_queue@U?$pair@HV?$vector@NV?$allocator@N@std@@@std@@@std@@V?$vector@U?$pair@HV?$vector@NV?$allocator@N@std@@@std@@@std@@V?$allocator@U?$pair@HV?$vector@NV?$allocator@N@std@@@std@@@std@@@2@@2@Ucomparator@PriorityQueueImpl@nav@@@std@@QEAAXXZ 000000018003f6d4     priorityqueue_api.obj
 0002:000026dc       $unwind$??1?$priority_queue@U?$pair@HV?$vector@NV?$allocator@N@std@@@std@@@std@@V?$vector@U?$pair@HV?$vector@NV?$allocator@N@std@@@std@@@std@@V?$allocator@U?$pair@HV?$vector@NV?$allocator@N@std@@@std@@@std@@@2@@2@Ucomparator@PriorityQueueImpl@nav@@@std@@QEAA@XZ 000000018003f6dc     priorityqueue_api.obj
 0002:000026e4       $unwind$??4?$priority_queue@U?$pair@HV?$vector@NV?$allocator@N@std@@@std@@@std@@V?$vector@U?$pair@HV?$vector@NV?$allocator@N@std@@@std@@@std@@V?$allocator@U?$pair@HV?$vector@NV?$allocator@N@std@@@std@@@std@@@2@@2@Ucomparator@PriorityQueueImpl@nav@@@std@@QEAAAEAV01@$$QEAV01@@Z 000000018003f6e4     priorityqueue_api.obj
 0002:000026ec       $unwind$??0PriorityQueueImpl@nav@@QEAA@HH@Z 000000018003f6ec     priorityqueue_api.obj
 0002:000026fc       $cppxdata$??0PriorityQueueImpl@nav@@QEAA@HH@Z 000000018003f6fc     priorityqueue_api.obj
 0002:00002705       $stateUnwindMap$??0PriorityQueueImpl@nav@@QEAA@HH@Z 000000018003f705     priorityqueue_api.obj
 0002:0000270b       $ip2state$??0PriorityQueueImpl@nav@@QEAA@HH@Z 000000018003f70b     priorityqueue_api.obj
 0002:00002714       $unwind$?dtor$0@?0???0PriorityQueueImpl@nav@@QEAA@HH@Z@4HA 000000018003f714     priorityqueue_api.obj
 0002:0000271c       $unwind$?push@PriorityQueueImpl@nav@@QEAAHPEBN@Z 000000018003f71c     priorityqueue_api.obj
 0002:0000272c       $cppxdata$?push@PriorityQueueImpl@nav@@QEAAHPEBN@Z 000000018003f72c     priorityqueue_api.obj
 0002:00002735       $stateUnwindMap$?push@PriorityQueueImpl@nav@@QEAAHPEBN@Z 000000018003f735     priorityqueue_api.obj
 0002:0000273b       $ip2state$?push@PriorityQueueImpl@nav@@QEAAHPEBN@Z 000000018003f73b     priorityqueue_api.obj
 0002:00002744       $unwind$?dtor$0@?0??push@PriorityQueueImpl@nav@@QEAAHPEBN@Z@4HA 000000018003f744     priorityqueue_api.obj
 0002:0000274c       $unwind$?top@PriorityQueueImpl@nav@@QEAA?AU?$pair@HV?$vector@NV?$allocator@N@std@@@std@@@std@@XZ 000000018003f74c     priorityqueue_api.obj
 0002:00002754       $unwind$?pop@PriorityQueueImpl@nav@@QEAAXXZ 000000018003f754     priorityqueue_api.obj
 0002:0000275c       $unwind$?size@PriorityQueueImpl@nav@@QEAAHXZ 000000018003f75c     priorityqueue_api.obj
 0002:00002764       $unwind$?isEmpty@PriorityQueueImpl@nav@@QEAA_NXZ 000000018003f764     priorityqueue_api.obj
 0002:0000276c       $unwind$??1PriorityQueueImpl@nav@@QEAA@XZ 000000018003f76c     priorityqueue_api.obj
 0002:00002774       $unwind$??_GPriorityQueueImpl@nav@@QEAAPEAXI@Z 000000018003f774     priorityqueue_api.obj
 0002:0000277c       $unwind$??0?$pair@HV?$vector@NV?$allocator@N@std@@@std@@@std@@QEAA@AEBU01@@Z 000000018003f77c     priorityqueue_api.obj
 0002:00002784       $unwind$??0?$pair@HV?$vector@NV?$allocator@N@std@@@std@@@std@@QEAA@$$QEAU01@@Z 000000018003f784     priorityqueue_api.obj
 0002:0000278c       $unwind$??1?$pair@HV?$vector@NV?$allocator@N@std@@@std@@@std@@QEAA@XZ 000000018003f78c     priorityqueue_api.obj
 0002:00002794       $unwind$??_G?$pair@HV?$vector@NV?$allocator@N@std@@@std@@@std@@QEAAPEAXI@Z 000000018003f794     priorityqueue_api.obj
 0002:0000279c       $unwind$??$emplace@AEAHV?$vector@NV?$allocator@N@std@@@std@@@?$priority_queue@U?$pair@HV?$vector@NV?$allocator@N@std@@@std@@@std@@V?$vector@U?$pair@HV?$vector@NV?$allocator@N@std@@@std@@@std@@V?$allocator@U?$pair@HV?$vector@NV?$allocator@N@std@@@std@@@std@@@2@@2@Ucomparator@PriorityQueueImpl@nav@@@std@@QEAAXAEAH$$QEAV?$vector@NV?$allocator@N@std@@@1@@Z 000000018003f79c     priorityqueue_api.obj
 0002:000027a4       $unwind$??$make_pair@HV?$vector@NV?$allocator@N@std@@@std@@@std@@YA?AU?$pair@HV?$vector@NV?$allocator@N@std@@@std@@@0@$$QEAH$$QEAV?$vector@NV?$allocator@N@std@@@0@@Z 000000018003f7a4     priorityqueue_api.obj
 0002:000027ac       $unwind$priorityqueuecodegen_constructPQ 000000018003f7ac     priorityqueue_api.obj
 0002:000027bc       $cppxdata$priorityqueuecodegen_constructPQ 000000018003f7bc     priorityqueue_api.obj
 0002:000027c5       $stateUnwindMap$priorityqueuecodegen_constructPQ 000000018003f7c5     priorityqueue_api.obj
 0002:000027cb       $ip2state$priorityqueuecodegen_constructPQ 000000018003f7cb     priorityqueue_api.obj
 0002:000027d4       $unwind$priorityqueuecodegen_constructPQ$dtor$0 000000018003f7d4     priorityqueue_api.obj
 0002:000027dc       $unwind$priorityqueuecodegen_destructPQ 000000018003f7dc     priorityqueue_api.obj
 0002:000027e4       $unwind$priorityqueuecodegen_push 000000018003f7e4     priorityqueue_api.obj
 0002:000027ec       $unwind$priorityqueuecodegen_top 000000018003f7ec     priorityqueue_api.obj
 0002:000027f4       $unwind$priorityqueuecodegen_pop 000000018003f7f4     priorityqueue_api.obj
 0002:000027fc       $unwind$priorityqueuecodegen_size 000000018003f7fc     priorityqueue_api.obj
 0002:00002804       $unwind$priorityqueuecodegen_isEmpty 000000018003f804     priorityqueue_api.obj
 0002:0000280c       $unwind$priorityqueuecodegen_getDataDim 000000018003f80c     priorityqueue_api.obj
 0002:00002814       $unwind$priorityqueuecodegen_constructNodeMap 000000018003f814     priorityqueue_api.obj
 0002:00002824       $cppxdata$priorityqueuecodegen_constructNodeMap 000000018003f824     priorityqueue_api.obj
 0002:0000282d       $stateUnwindMap$priorityqueuecodegen_constructNodeMap 000000018003f82d     priorityqueue_api.obj
 0002:00002833       $ip2state$priorityqueuecodegen_constructNodeMap 000000018003f833     priorityqueue_api.obj
 0002:0000283c       $unwind$priorityqueuecodegen_constructNodeMap$dtor$0 000000018003f83c     priorityqueue_api.obj
 0002:00002844       $unwind$priorityqueuecodegen_destructNodeMap 000000018003f844     priorityqueue_api.obj
 0002:0000284c       $unwind$priorityqueuecodegen_nodemap_getDataDim 000000018003f84c     priorityqueue_api.obj
 0002:00002854       $unwind$priorityqueuecodegen_nodemap_getNumNodes 000000018003f854     priorityqueue_api.obj
 0002:0000285c       $unwind$priorityqueuecodegen_nodemap_traceBack 000000018003f85c     priorityqueue_api.obj
 0002:00002864       $unwind$priorityqueuecodegen_nodemap_insertNode 000000018003f864     priorityqueue_api.obj
 0002:0000286c       $unwind$priorityqueuecodegen_nodemap_getNodeData 000000018003f86c     priorityqueue_api.obj
 0002:00002874       $unwind$priorityqueuecodegen_constructSimpleMap 000000018003f874     priorityqueue_api.obj
 0002:00002884       $cppxdata$priorityqueuecodegen_constructSimpleMap 000000018003f884     priorityqueue_api.obj
 0002:0000288d       $stateUnwindMap$priorityqueuecodegen_constructSimpleMap 000000018003f88d     priorityqueue_api.obj
 0002:00002893       $ip2state$priorityqueuecodegen_constructSimpleMap 000000018003f893     priorityqueue_api.obj
 0002:0000289c       $unwind$priorityqueuecodegen_constructSimpleMap$dtor$0 000000018003f89c     priorityqueue_api.obj
 0002:000028a4       $unwind$priorityqueuecodegen_destructSimpleMap 000000018003f8a4     priorityqueue_api.obj
 0002:000028ac       $unwind$priorityqueuecodegen_simplemap_getDataDim 000000018003f8ac     priorityqueue_api.obj
 0002:000028b4       $unwind$priorityqueuecodegen_simplemap_getSize 000000018003f8b4     priorityqueue_api.obj
 0002:000028bc       $unwind$priorityqueuecodegen_simplemap_insertData 000000018003f8bc     priorityqueue_api.obj
 0002:000028c4       $unwind$priorityqueuecodegen_simplemap_getData 000000018003f8c4     priorityqueue_api.obj
 0002:000028cc       $unwind$??0?$_Vector_const_iterator@V?$_Vector_val@U?$_Simple_types@V?$vector@NV?$allocator@N@std@@@std@@@std@@@std@@@std@@QEAA@PEAV?$vector@NV?$allocator@N@std@@@1@PEBU_Container_base0@1@@Z 000000018003f8cc     priorityqueue_api.obj
 0002:000028d4       $unwind$??8?$_Vector_const_iterator@V?$_Vector_val@U?$_Simple_types@V?$vector@NV?$allocator@N@std@@@std@@@std@@@std@@@std@@QEBA_NAEBV01@@Z 000000018003f8d4     priorityqueue_api.obj
 0002:000028dc       $unwind$??9?$_Vector_const_iterator@V?$_Vector_val@U?$_Simple_types@V?$vector@NV?$allocator@N@std@@@std@@@std@@@std@@@std@@QEBA_NAEBV01@@Z 000000018003f8dc     priorityqueue_api.obj
 0002:000028e4       $unwind$??D?$_Vector_iterator@V?$_Vector_val@U?$_Simple_types@V?$vector@NV?$allocator@N@std@@@std@@@std@@@std@@@std@@QEBAAEAV?$vector@NV?$allocator@N@std@@@1@XZ 000000018003f8e4     priorityqueue_api.obj
 0002:000028ec       $unwind$??E?$_Vector_iterator@V?$_Vector_val@U?$_Simple_types@V?$vector@NV?$allocator@N@std@@@std@@@std@@@std@@@std@@QEAAAEAV01@XZ 000000018003f8ec     priorityqueue_api.obj
 0002:000028f4       $unwind$??0?$_Vector_iterator@V?$_Vector_val@U?$_Simple_types@V?$vector@NV?$allocator@N@std@@@std@@@std@@@std@@@std@@QEAA@PEAV?$vector@NV?$allocator@N@std@@@1@PEBU_Container_base0@1@@Z 000000018003f8f4     priorityqueue_api.obj
 0002:000028fc       $unwind$??0?$_Vector_const_iterator@V?$_Vector_val@U?$_Simple_types@U?$pair@HV?$vector@NV?$allocator@N@std@@@std@@@std@@@std@@@std@@@std@@QEAA@PEAU?$pair@HV?$vector@NV?$allocator@N@std@@@std@@@1@PEBU_Container_base0@1@@Z 000000018003f8fc     priorityqueue_api.obj
 0002:00002904       $unwind$?_Unwrapped@?$_Vector_iterator@V?$_Vector_val@U?$_Simple_types@U?$pair@HV?$vector@NV?$allocator@N@std@@@std@@@std@@@std@@@std@@@std@@QEBAPEAU?$pair@HV?$vector@NV?$allocator@N@std@@@std@@@2@XZ 000000018003f904     priorityqueue_api.obj
 0002:0000290c       $unwind$??0?$_Vector_iterator@V?$_Vector_val@U?$_Simple_types@U?$pair@HV?$vector@NV?$allocator@N@std@@@std@@@std@@@std@@@std@@@std@@QEAA@PEAU?$pair@HV?$vector@NV?$allocator@N@std@@@std@@@1@PEBU_Container_base0@1@@Z 000000018003f90c     priorityqueue_api.obj
 0002:00002914       $unwind$??$_Pass_fn@Ucomparator@PriorityQueueImpl@nav@@@std@@YA?A_PAEAUcomparator@PriorityQueueImpl@nav@@@Z 000000018003f914     priorityqueue_api.obj
 0002:0000291c       $unwind$??$pop_heap@V?$_Vector_iterator@V?$_Vector_val@U?$_Simple_types@U?$pair@HV?$vector@NV?$allocator@N@std@@@std@@@std@@@std@@@std@@@std@@Ucomparator@PriorityQueueImpl@nav@@@std@@YAXV?$_Vector_iterator@V?$_Vector_val@U?$_Simple_types@U?$pair@HV?$vector@NV?$allocator@N@std@@@std@@@std@@@std@@@std@@@0@0Ucomparator@PriorityQueueImpl@nav@@@Z 000000018003f91c     priorityqueue_api.obj
 0002:00002924       $unwind$??$_Pocma@V?$allocator@U?$pair@HV?$vector@NV?$allocator@N@std@@@std@@@std@@@std@@@std@@YAXAEAV?$allocator@U?$pair@HV?$vector@NV?$allocator@N@std@@@std@@@std@@@0@0@Z 000000018003f924     priorityqueue_api.obj
 0002:0000292c       $unwind$??$?0$$V@?$_Compressed_pair@V?$allocator@U?$pair@HV?$vector@NV?$allocator@N@std@@@std@@@std@@@std@@V?$_Vector_val@U?$_Simple_types@U?$pair@HV?$vector@NV?$allocator@N@std@@@std@@@std@@@std@@@2@$00@std@@QEAA@U_Zero_then_variadic_args_t@1@@Z 000000018003f92c     priorityqueue_api.obj
 0002:00002934       $unwind$??$_Emplace_one_at_back@AEBV?$vector@NV?$allocator@N@std@@@std@@@?$vector@V?$vector@NV?$allocator@N@std@@@std@@V?$allocator@V?$vector@NV?$allocator@N@std@@@std@@@2@@std@@AEAAAEAV?$vector@NV?$allocator@N@std@@@1@AEBV21@@Z 000000018003f934     priorityqueue_api.obj
 0002:0000293c       $unwind$??$exchange@PEAV?$vector@NV?$allocator@N@std@@@std@@$$T@std@@YAPEAV?$vector@NV?$allocator@N@std@@@0@AEAPEAV10@$$QEA$$T@Z 000000018003f93c     priorityqueue_api.obj
 0002:00002944       $unwind$??$?0V?$allocator@V?$vector@NV?$allocator@N@std@@@std@@@std@@PEAV?$vector@NV?$allocator@N@std@@@1@PEAV21@PEAV21@@?$_Compressed_pair@V?$allocator@V?$vector@NV?$allocator@N@std@@@std@@@std@@V?$_Vector_val@U?$_Simple_types@V?$vector@NV?$allocator@N@std@@@std@@@std@@@2@$00@std@@QEAA@U_One_then_variadic_args_t@1@$$QEAV?$allocator@V?$vector@NV?$allocator@N@std@@@std@@@1@$$QEAPEAV?$vector@NV?$allocator@N@std@@@1@22@Z 000000018003f944     priorityqueue_api.obj
 0002:0000294c       $unwind$??$?0$$V@?$_Compressed_pair@V?$allocator@V?$vector@NV?$allocator@N@std@@@std@@@std@@V?$_Vector_val@U?$_Simple_types@V?$vector@NV?$allocator@N@std@@@std@@@std@@@2@$00@std@@QEAA@U_Zero_then_variadic_args_t@1@@Z 000000018003f94c     priorityqueue_api.obj
 0002:00002954       $unwind$??$_Try_emplace@AEBH$$V@?$_Hash@V?$_Umap_traits@HHV?$_Uhash_compare@HU?$hash@H@std@@U?$equal_to@H@2@@std@@V?$allocator@U?$pair@$$CBHH@std@@@2@$0A@@std@@@std@@IEAA?AU?$pair@PEAU?$_List_node@U?$pair@$$CBHH@std@@PEAX@std@@_N@1@AEBH@Z 000000018003f954     priorityqueue_api.obj
 0002:00002968       $cppxdata$??$_Try_emplace@AEBH$$V@?$_Hash@V?$_Umap_traits@HHV?$_Uhash_compare@HU?$hash@H@std@@U?$equal_to@H@2@@std@@V?$allocator@U?$pair@$$CBHH@std@@@2@$0A@@std@@@std@@IEAA?AU?$pair@PEAU?$_List_node@U?$pair@$$CBHH@std@@PEAX@std@@_N@1@AEBH@Z 000000018003f968     priorityqueue_api.obj
 0002:00002971       $stateUnwindMap$??$_Try_emplace@AEBH$$V@?$_Hash@V?$_Umap_traits@HHV?$_Uhash_compare@HU?$hash@H@std@@U?$equal_to@H@2@@std@@V?$allocator@U?$pair@$$CBHH@std@@@2@$0A@@std@@@std@@IEAA?AU?$pair@PEAU?$_List_node@U?$pair@$$CBHH@std@@PEAX@std@@_N@1@AEBH@Z 000000018003f971     priorityqueue_api.obj
 0002:00002977       $ip2state$??$_Try_emplace@AEBH$$V@?$_Hash@V?$_Umap_traits@HHV?$_Uhash_compare@HU?$hash@H@std@@U?$equal_to@H@2@@std@@V?$allocator@U?$pair@$$CBHH@std@@@2@$0A@@std@@@std@@IEAA?AU?$pair@PEAU?$_List_node@U?$pair@$$CBHH@std@@PEAX@std@@_N@1@AEBH@Z 000000018003f977     priorityqueue_api.obj
 0002:00002980       $unwind$?dtor$0@?0???$_Try_emplace@AEBH$$V@?$_Hash@V?$_Umap_traits@HHV?$_Uhash_compare@HU?$hash@H@std@@U?$equal_to@H@2@@std@@V?$allocator@U?$pair@$$CBHH@std@@@2@$0A@@std@@@std@@IEAA?AU?$pair@PEAU?$_List_node@U?$pair@$$CBHH@std@@PEAX@std@@_N@1@AEBH@Z@4HA 000000018003f980     priorityqueue_api.obj
 0002:00002988       $unwind$??$_Pocma@V?$allocator@N@std@@@std@@YAXAEAV?$allocator@N@0@0@Z 000000018003f988     priorityqueue_api.obj
 0002:00002990       $unwind$??$exchange@PEAN$$T@std@@YAPEANAEAPEAN$$QEA$$T@Z 000000018003f990     priorityqueue_api.obj
 0002:00002998       $unwind$??$?0V?$allocator@N@std@@PEANPEANPEAN@?$_Compressed_pair@V?$allocator@N@std@@V?$_Vector_val@U?$_Simple_types@N@std@@@2@$00@std@@QEAA@U_One_then_variadic_args_t@1@$$QEAV?$allocator@N@1@$$QEAPEAN22@Z 000000018003f998     priorityqueue_api.obj
 0002:000029a0       $unwind$??$?0V?$allocator@N@std@@$$V@?$_Compressed_pair@V?$allocator@N@std@@V?$_Vector_val@U?$_Simple_types@N@std@@@2@$00@std@@QEAA@U_One_then_variadic_args_t@1@$$QEAV?$allocator@N@1@@Z 000000018003f9a0     priorityqueue_api.obj
 0002:000029a8       $unwind$??$_Construct_n@AEBQEANAEBQEAN@?$vector@NV?$allocator@N@std@@@std@@AEAAX_KAEBQEAN1@Z 000000018003f9a8     priorityqueue_api.obj
 0002:000029b8       $cppxdata$??$_Construct_n@AEBQEANAEBQEAN@?$vector@NV?$allocator@N@std@@@std@@AEAAX_KAEBQEAN1@Z 000000018003f9b8     priorityqueue_api.obj
 0002:000029c1       $stateUnwindMap$??$_Construct_n@AEBQEANAEBQEAN@?$vector@NV?$allocator@N@std@@@std@@AEAAX_KAEBQEAN1@Z 000000018003f9c1     priorityqueue_api.obj
 0002:000029c7       $ip2state$??$_Construct_n@AEBQEANAEBQEAN@?$vector@NV?$allocator@N@std@@@std@@AEAAX_KAEBQEAN1@Z 000000018003f9c7     priorityqueue_api.obj
 0002:000029d0       $unwind$?dtor$0@?0???$_Construct_n@AEBQEANAEBQEAN@?$vector@NV?$allocator@N@std@@@std@@AEAAX_KAEBQEAN1@Z@4HA 000000018003f9d0     priorityqueue_api.obj
 0002:000029d8       $unwind$??$?0AEBV?$allocator@N@std@@$$V@?$_Compressed_pair@V?$allocator@N@std@@V?$_Vector_val@U?$_Simple_types@N@std@@@2@$00@std@@QEAA@U_One_then_variadic_args_t@1@AEBV?$allocator@N@1@@Z 000000018003f9d8     priorityqueue_api.obj
 0002:000029e0       $unwind$??$_Construct_n@AEBN@?$vector@NV?$allocator@N@std@@@std@@AEAAX_KAEBN@Z 000000018003f9e0     priorityqueue_api.obj
 0002:000029f0       $cppxdata$??$_Construct_n@AEBN@?$vector@NV?$allocator@N@std@@@std@@AEAAX_KAEBN@Z 000000018003f9f0     priorityqueue_api.obj
 0002:000029f9       $stateUnwindMap$??$_Construct_n@AEBN@?$vector@NV?$allocator@N@std@@@std@@AEAAX_KAEBN@Z 000000018003f9f9     priorityqueue_api.obj
 0002:000029ff       $ip2state$??$_Construct_n@AEBN@?$vector@NV?$allocator@N@std@@@std@@AEAAX_KAEBN@Z 000000018003f9ff     priorityqueue_api.obj
 0002:00002a08       $unwind$?dtor$0@?0???$_Construct_n@AEBN@?$vector@NV?$allocator@N@std@@@std@@AEAAX_KAEBN@Z@4HA 000000018003fa08     priorityqueue_api.obj
 0002:00002a10       $unwind$??$_Try_emplace@AEBH$$V@?$_Hash@V?$_Umap_traits@HV?$vector@NV?$allocator@N@std@@@std@@V?$_Uhash_compare@HU?$hash@H@std@@U?$equal_to@H@2@@2@V?$allocator@U?$pair@$$CBHV?$vector@NV?$allocator@N@std@@@std@@@std@@@2@$0A@@std@@@std@@IEAA?AU?$pair@PEAU?$_List_node@U?$pair@$$CBHV?$vector@NV?$allocator@N@std@@@std@@@std@@PEAX@std@@_N@1@AEBH@Z 000000018003fa10     priorityqueue_api.obj
 0002:00002a24       $cppxdata$??$_Try_emplace@AEBH$$V@?$_Hash@V?$_Umap_traits@HV?$vector@NV?$allocator@N@std@@@std@@V?$_Uhash_compare@HU?$hash@H@std@@U?$equal_to@H@2@@2@V?$allocator@U?$pair@$$CBHV?$vector@NV?$allocator@N@std@@@std@@@std@@@2@$0A@@std@@@std@@IEAA?AU?$pair@PEAU?$_List_node@U?$pair@$$CBHV?$vector@NV?$allocator@N@std@@@std@@@std@@PEAX@std@@_N@1@AEBH@Z 000000018003fa24     priorityqueue_api.obj
 0002:00002a2d       $stateUnwindMap$??$_Try_emplace@AEBH$$V@?$_Hash@V?$_Umap_traits@HV?$vector@NV?$allocator@N@std@@@std@@V?$_Uhash_compare@HU?$hash@H@std@@U?$equal_to@H@2@@2@V?$allocator@U?$pair@$$CBHV?$vector@NV?$allocator@N@std@@@std@@@std@@@2@$0A@@std@@@std@@IEAA?AU?$pair@PEAU?$_List_node@U?$pair@$$CBHV?$vector@NV?$allocator@N@std@@@std@@@std@@PEAX@std@@_N@1@AEBH@Z 000000018003fa2d     priorityqueue_api.obj
 0002:00002a33       $ip2state$??$_Try_emplace@AEBH$$V@?$_Hash@V?$_Umap_traits@HV?$vector@NV?$allocator@N@std@@@std@@V?$_Uhash_compare@HU?$hash@H@std@@U?$equal_to@H@2@@2@V?$allocator@U?$pair@$$CBHV?$vector@NV?$allocator@N@std@@@std@@@std@@@2@$0A@@std@@@std@@IEAA?AU?$pair@PEAU?$_List_node@U?$pair@$$CBHV?$vector@NV?$allocator@N@std@@@std@@@std@@PEAX@std@@_N@1@AEBH@Z 000000018003fa33     priorityqueue_api.obj
 0002:00002a3c       $unwind$?dtor$0@?0???$_Try_emplace@AEBH$$V@?$_Hash@V?$_Umap_traits@HV?$vector@NV?$allocator@N@std@@@std@@V?$_Uhash_compare@HU?$hash@H@std@@U?$equal_to@H@2@@2@V?$allocator@U?$pair@$$CBHV?$vector@NV?$allocator@N@std@@@std@@@std@@@2@$0A@@std@@@std@@IEAA?AU?$pair@PEAU?$_List_node@U?$pair@$$CBHV?$vector@NV?$allocator@N@std@@@std@@@std@@PEAX@std@@_N@1@AEBH@Z@4HA 000000018003fa3c     priorityqueue_api.obj
 0002:00002a44       $unwind$??$_Destroy_range@V?$allocator@U?$pair@HV?$vector@NV?$allocator@N@std@@@std@@@std@@@std@@@std@@YAXPEAU?$pair@HV?$vector@NV?$allocator@N@std@@@std@@@0@QEAU10@AEAV?$allocator@U?$pair@HV?$vector@NV?$allocator@N@std@@@std@@@std@@@0@@Z 000000018003fa44     priorityqueue_api.obj
 0002:00002a54       $cppxdata$??$_Destroy_range@V?$allocator@U?$pair@HV?$vector@NV?$allocator@N@std@@@std@@@std@@@std@@@std@@YAXPEAU?$pair@HV?$vector@NV?$allocator@N@std@@@std@@@0@QEAU10@AEAV?$allocator@U?$pair@HV?$vector@NV?$allocator@N@std@@@std@@@std@@@0@@Z 000000018003fa54     priorityqueue_api.obj
 0002:00002a59       $ip2state$??$_Destroy_range@V?$allocator@U?$pair@HV?$vector@NV?$allocator@N@std@@@std@@@std@@@std@@@std@@YAXPEAU?$pair@HV?$vector@NV?$allocator@N@std@@@std@@@0@QEAU10@AEAV?$allocator@U?$pair@HV?$vector@NV?$allocator@N@std@@@std@@@std@@@0@@Z 000000018003fa59     priorityqueue_api.obj
 0002:00002a5c       $unwind$??$destroy@U?$pair@HV?$vector@NV?$allocator@N@std@@@std@@@std@@@?$_Default_allocator_traits@V?$allocator@U?$pair@HV?$vector@NV?$allocator@N@std@@@std@@@std@@@std@@@std@@SAXAEAV?$allocator@U?$pair@HV?$vector@NV?$allocator@N@std@@@std@@@std@@@1@QEAU?$pair@HV?$vector@NV?$allocator@N@std@@@std@@@1@@Z 000000018003fa5c     priorityqueue_api.obj
 0002:00002a64       $unwind$??$_Destroy_range@V?$allocator@V?$vector@NV?$allocator@N@std@@@std@@@std@@@std@@YAXPEAV?$vector@NV?$allocator@N@std@@@0@QEAV10@AEAV?$allocator@V?$vector@NV?$allocator@N@std@@@std@@@0@@Z 000000018003fa64     priorityqueue_api.obj
 0002:00002a74       $cppxdata$??$_Destroy_range@V?$allocator@V?$vector@NV?$allocator@N@std@@@std@@@std@@@std@@YAXPEAV?$vector@NV?$allocator@N@std@@@0@QEAV10@AEAV?$allocator@V?$vector@NV?$allocator@N@std@@@std@@@0@@Z 000000018003fa74     priorityqueue_api.obj
 0002:00002a79       $ip2state$??$_Destroy_range@V?$allocator@V?$vector@NV?$allocator@N@std@@@std@@@std@@@std@@YAXPEAV?$vector@NV?$allocator@N@std@@@0@QEAV10@AEAV?$allocator@V?$vector@NV?$allocator@N@std@@@std@@@0@@Z 000000018003fa79     priorityqueue_api.obj
 0002:00002a7c       $unwind$??D?$_List_unchecked_iterator@V?$_List_val@U?$_List_simple_types@U?$pair@$$CBHH@std@@@std@@@std@@@std@@QEBAAEAU?$pair@$$CBHH@1@XZ 000000018003fa7c     priorityqueue_api.obj
 0002:00002a84       $unwind$??E?$_List_unchecked_iterator@V?$_List_val@U?$_List_simple_types@U?$pair@$$CBHH@std@@@std@@@std@@@std@@QEAAAEAV01@XZ 000000018003fa84     priorityqueue_api.obj
 0002:00002a8c       $unwind$??0?$_List_unchecked_iterator@V?$_List_val@U?$_List_simple_types@U?$pair@$$CBHH@std@@@std@@@std@@@std@@QEAA@PEAU?$_List_node@U?$pair@$$CBHH@std@@PEAX@1@PEBV?$_List_val@U?$_List_simple_types@U?$pair@$$CBHH@std@@@std@@@1@@Z 000000018003fa8c     priorityqueue_api.obj
 0002:00002a94       $unwind$??$?0AEBV?$allocator@U?$pair@$$CBHH@std@@@std@@$0A@@?$_Hash_vec@V?$allocator@V?$_List_unchecked_iterator@V?$_List_val@U?$_List_simple_types@U?$pair@$$CBHH@std@@@std@@@std@@@std@@@std@@@std@@QEAA@AEBV?$allocator@U?$pair@$$CBHH@std@@@1@@Z 000000018003fa94     priorityqueue_api.obj
 0002:00002a9c       $unwind$??$_Free_non_head@V?$allocator@U?$_List_node@U?$pair@$$CBHH@std@@PEAX@std@@@std@@@?$_List_node@U?$pair@$$CBHH@std@@PEAX@std@@SAXAEAV?$allocator@U?$_List_node@U?$pair@$$CBHH@std@@PEAX@std@@@1@PEAU01@@Z 000000018003fa9c     priorityqueue_api.obj
 0002:00002aa4       $unwind$??$_Freenode0@V?$allocator@U?$_List_node@U?$pair@$$CBHH@std@@PEAX@std@@@std@@@?$_List_node@U?$pair@$$CBHH@std@@PEAX@std@@SAXAEAV?$allocator@U?$_List_node@U?$pair@$$CBHH@std@@PEAX@std@@@1@PEAU01@@Z 000000018003faa4     priorityqueue_api.obj
 0002:00002ab4       $cppxdata$??$_Freenode0@V?$allocator@U?$_List_node@U?$pair@$$CBHH@std@@PEAX@std@@@std@@@?$_List_node@U?$pair@$$CBHH@std@@PEAX@std@@SAXAEAV?$allocator@U?$_List_node@U?$pair@$$CBHH@std@@PEAX@std@@@1@PEAU01@@Z 000000018003fab4     priorityqueue_api.obj
 0002:00002ab9       $ip2state$??$_Freenode0@V?$allocator@U?$_List_node@U?$pair@$$CBHH@std@@PEAX@std@@@std@@@?$_List_node@U?$pair@$$CBHH@std@@PEAX@std@@SAXAEAV?$allocator@U?$_List_node@U?$pair@$$CBHH@std@@PEAX@std@@@1@PEAU01@@Z 000000018003fab9     priorityqueue_api.obj
 0002:00002abc       $unwind$??D?$_List_unchecked_iterator@V?$_List_val@U?$_List_simple_types@U?$pair@$$CBHV?$vector@NV?$allocator@N@std@@@std@@@std@@@std@@@std@@@std@@QEBAAEAU?$pair@$$CBHV?$vector@NV?$allocator@N@std@@@std@@@1@XZ 000000018003fabc     priorityqueue_api.obj
 0002:00002ac4       $unwind$??E?$_List_unchecked_iterator@V?$_List_val@U?$_List_simple_types@U?$pair@$$CBHV?$vector@NV?$allocator@N@std@@@std@@@std@@@std@@@std@@@std@@QEAAAEAV01@XZ 000000018003fac4     priorityqueue_api.obj
 0002:00002acc       $unwind$??0?$_List_unchecked_iterator@V?$_List_val@U?$_List_simple_types@U?$pair@$$CBHV?$vector@NV?$allocator@N@std@@@std@@@std@@@std@@@std@@@std@@QEAA@PEAU?$_List_node@U?$pair@$$CBHV?$vector@NV?$allocator@N@std@@@std@@@std@@PEAX@1@PEBV?$_List_val@U?$_List_simple_types@U?$pair@$$CBHV?$vector@NV?$allocator@N@std@@@std@@@std@@@std@@@1@@Z 000000018003facc     priorityqueue_api.obj
 0002:00002ad4       $unwind$??$?0AEBV?$allocator@U?$pair@$$CBHV?$vector@NV?$allocator@N@std@@@std@@@std@@@std@@$0A@@?$_Hash_vec@V?$allocator@V?$_List_unchecked_iterator@V?$_List_val@U?$_List_simple_types@U?$pair@$$CBHV?$vector@NV?$allocator@N@std@@@std@@@std@@@std@@@std@@@std@@@std@@@std@@QEAA@AEBV?$allocator@U?$pair@$$CBHV?$vector@NV?$allocator@N@std@@@std@@@std@@@1@@Z 000000018003fad4     priorityqueue_api.obj
 0002:00002adc       $unwind$??$_Free_non_head@V?$allocator@U?$_List_node@U?$pair@$$CBHV?$vector@NV?$allocator@N@std@@@std@@@std@@PEAX@std@@@std@@@?$_List_node@U?$pair@$$CBHV?$vector@NV?$allocator@N@std@@@std@@@std@@PEAX@std@@SAXAEAV?$allocator@U?$_List_node@U?$pair@$$CBHV?$vector@NV?$allocator@N@std@@@std@@@std@@PEAX@std@@@1@PEAU01@@Z 000000018003fadc     priorityqueue_api.obj
 0002:00002ae4       $unwind$??$_Freenode0@V?$allocator@U?$_List_node@U?$pair@$$CBHV?$vector@NV?$allocator@N@std@@@std@@@std@@PEAX@std@@@std@@@?$_List_node@U?$pair@$$CBHV?$vector@NV?$allocator@N@std@@@std@@@std@@PEAX@std@@SAXAEAV?$allocator@U?$_List_node@U?$pair@$$CBHV?$vector@NV?$allocator@N@std@@@std@@@std@@PEAX@std@@@1@PEAU01@@Z 000000018003fae4     priorityqueue_api.obj
 0002:00002af4       $cppxdata$??$_Freenode0@V?$allocator@U?$_List_node@U?$pair@$$CBHV?$vector@NV?$allocator@N@std@@@std@@@std@@PEAX@std@@@std@@@?$_List_node@U?$pair@$$CBHV?$vector@NV?$allocator@N@std@@@std@@@std@@PEAX@std@@SAXAEAV?$allocator@U?$_List_node@U?$pair@$$CBHV?$vector@NV?$allocator@N@std@@@std@@@std@@PEAX@std@@@1@PEAU01@@Z 000000018003faf4     priorityqueue_api.obj
 0002:00002af9       $ip2state$??$_Freenode0@V?$allocator@U?$_List_node@U?$pair@$$CBHV?$vector@NV?$allocator@N@std@@@std@@@std@@PEAX@std@@@std@@@?$_List_node@U?$pair@$$CBHV?$vector@NV?$allocator@N@std@@@std@@@std@@PEAX@std@@SAXAEAV?$allocator@U?$_List_node@U?$pair@$$CBHV?$vector@NV?$allocator@N@std@@@std@@@std@@PEAX@std@@@1@PEAU01@@Z 000000018003faf9     priorityqueue_api.obj
 0002:00002afc       $unwind$??$?0U_Zero_then_variadic_args_t@std@@M@?$_Compressed_pair@U?$hash@H@std@@V?$_Compressed_pair@U?$equal_to@H@std@@M$00@2@$00@std@@QEAA@U_Zero_then_variadic_args_t@1@$$QEAU21@$$QEAM@Z 000000018003fafc     priorityqueue_api.obj
 0002:00002b04       $unwind$??$?0M@?$_Compressed_pair@U?$equal_to@H@std@@M$00@std@@QEAA@U_Zero_then_variadic_args_t@1@$$QEAM@Z 000000018003fb04     priorityqueue_api.obj
 0002:00002b0c       $unwind$??$max@_K@std@@YAAEB_KAEB_K0@Z 000000018003fb0c     priorityqueue_api.obj
 0002:00002b14       $unwind$??$_Deallocate@$0BA@$0A@@std@@YAXPEAX_K@Z 000000018003fb14     priorityqueue_api.obj
 0002:00002b24       $cppxdata$??$_Deallocate@$0BA@$0A@@std@@YAXPEAX_K@Z 000000018003fb24     priorityqueue_api.obj
 0002:00002b29       $ip2state$??$_Deallocate@$0BA@$0A@@std@@YAXPEAX_K@Z 000000018003fb29     priorityqueue_api.obj
 0002:00002b2c       $unwind$??$uninitialized_fill@PEAV?$_List_unchecked_iterator@V?$_List_val@U?$_List_simple_types@U?$pair@$$CBHH@std@@@std@@@std@@@std@@V12@@std@@YAXQEAV?$_List_unchecked_iterator@V?$_List_val@U?$_List_simple_types@U?$pair@$$CBHH@std@@@std@@@std@@@0@0AEBV10@@Z 000000018003fb2c     priorityqueue_api.obj
 0002:00002b3c       $cppxdata$??$uninitialized_fill@PEAV?$_List_unchecked_iterator@V?$_List_val@U?$_List_simple_types@U?$pair@$$CBHH@std@@@std@@@std@@@std@@V12@@std@@YAXQEAV?$_List_unchecked_iterator@V?$_List_val@U?$_List_simple_types@U?$pair@$$CBHH@std@@@std@@@std@@@0@0AEBV10@@Z 000000018003fb3c     priorityqueue_api.obj
 0002:00002b45       $stateUnwindMap$??$uninitialized_fill@PEAV?$_List_unchecked_iterator@V?$_List_val@U?$_List_simple_types@U?$pair@$$CBHH@std@@@std@@@std@@@std@@V12@@std@@YAXQEAV?$_List_unchecked_iterator@V?$_List_val@U?$_List_simple_types@U?$pair@$$CBHH@std@@@std@@@std@@@0@0AEBV10@@Z 000000018003fb45     priorityqueue_api.obj
 0002:00002b4b       $ip2state$??$uninitialized_fill@PEAV?$_List_unchecked_iterator@V?$_List_val@U?$_List_simple_types@U?$pair@$$CBHH@std@@@std@@@std@@@std@@V12@@std@@YAXQEAV?$_List_unchecked_iterator@V?$_List_val@U?$_List_simple_types@U?$pair@$$CBHH@std@@@std@@@std@@@0@0AEBV10@@Z 000000018003fb4b     priorityqueue_api.obj
 0002:00002b54       $unwind$?dtor$0@?0???$uninitialized_fill@PEAV?$_List_unchecked_iterator@V?$_List_val@U?$_List_simple_types@U?$pair@$$CBHH@std@@@std@@@std@@@std@@V12@@std@@YAXQEAV?$_List_unchecked_iterator@V?$_List_val@U?$_List_simple_types@U?$pair@$$CBHH@std@@@std@@@std@@@0@0AEBV10@@Z@4HA 000000018003fb54     priorityqueue_api.obj
 0002:00002b5c       $unwind$??$fill@PEAV?$_List_unchecked_iterator@V?$_List_val@U?$_List_simple_types@U?$pair@$$CBHH@std@@@std@@@std@@@std@@V12@@std@@YAXQEAV?$_List_unchecked_iterator@V?$_List_val@U?$_List_simple_types@U?$pair@$$CBHH@std@@@std@@@std@@@0@0AEBV10@@Z 000000018003fb5c     priorityqueue_api.obj
 0002:00002b64       $unwind$??$?RH@?$_Uhash_compare@HU?$hash@H@std@@U?$equal_to@H@2@@std@@QEBA_KAEBH@Z 000000018003fb64     priorityqueue_api.obj
 0002:00002b6c       $unwind$??$_Pocma@V?$allocator@U?$_List_node@U?$pair@$$CBHH@std@@PEAX@std@@@std@@@std@@YAXAEAV?$allocator@U?$_List_node@U?$pair@$$CBHH@std@@PEAX@std@@@0@0@Z 000000018003fb6c     priorityqueue_api.obj
 0002:00002b74       $unwind$??$_Pocma@V?$allocator@V?$_List_unchecked_iterator@V?$_List_val@U?$_List_simple_types@U?$pair@$$CBHH@std@@@std@@@std@@@std@@@std@@@std@@YAXAEAV?$allocator@V?$_List_unchecked_iterator@V?$_List_val@U?$_List_simple_types@U?$pair@$$CBHH@std@@@std@@@std@@@std@@@0@0@Z 000000018003fb74     priorityqueue_api.obj
 0002:00002b7c       $unwind$??$swap@_K$0A@@std@@YAXAEA_K0@Z 000000018003fb7c     priorityqueue_api.obj
 0002:00002b84       $unwind$??$?0AEBV?$allocator@U?$pair@$$CBHH@std@@@std@@$$V@?$_Compressed_pair@V?$allocator@U?$_List_node@U?$pair@$$CBHH@std@@PEAX@std@@@std@@V?$_List_val@U?$_List_simple_types@U?$pair@$$CBHH@std@@@std@@@2@$00@std@@QEAA@U_One_then_variadic_args_t@1@AEBV?$allocator@U?$pair@$$CBHH@std@@@1@@Z 000000018003fb84     priorityqueue_api.obj
 0002:00002b8c       $unwind$??$uninitialized_fill@PEAV?$_List_unchecked_iterator@V?$_List_val@U?$_List_simple_types@U?$pair@$$CBHV?$vector@NV?$allocator@N@std@@@std@@@std@@@std@@@std@@@std@@V12@@std@@YAXQEAV?$_List_unchecked_iterator@V?$_List_val@U?$_List_simple_types@U?$pair@$$CBHV?$vector@NV?$allocator@N@std@@@std@@@std@@@std@@@std@@@0@0AEBV10@@Z 000000018003fb8c     priorityqueue_api.obj
 0002:00002b9c       $cppxdata$??$uninitialized_fill@PEAV?$_List_unchecked_iterator@V?$_List_val@U?$_List_simple_types@U?$pair@$$CBHV?$vector@NV?$allocator@N@std@@@std@@@std@@@std@@@std@@@std@@V12@@std@@YAXQEAV?$_List_unchecked_iterator@V?$_List_val@U?$_List_simple_types@U?$pair@$$CBHV?$vector@NV?$allocator@N@std@@@std@@@std@@@std@@@std@@@0@0AEBV10@@Z 000000018003fb9c     priorityqueue_api.obj
 0002:00002ba5       $stateUnwindMap$??$uninitialized_fill@PEAV?$_List_unchecked_iterator@V?$_List_val@U?$_List_simple_types@U?$pair@$$CBHV?$vector@NV?$allocator@N@std@@@std@@@std@@@std@@@std@@@std@@V12@@std@@YAXQEAV?$_List_unchecked_iterator@V?$_List_val@U?$_List_simple_types@U?$pair@$$CBHV?$vector@NV?$allocator@N@std@@@std@@@std@@@std@@@std@@@0@0AEBV10@@Z 000000018003fba5     priorityqueue_api.obj
 0002:00002bab       $ip2state$??$uninitialized_fill@PEAV?$_List_unchecked_iterator@V?$_List_val@U?$_List_simple_types@U?$pair@$$CBHV?$vector@NV?$allocator@N@std@@@std@@@std@@@std@@@std@@@std@@V12@@std@@YAXQEAV?$_List_unchecked_iterator@V?$_List_val@U?$_List_simple_types@U?$pair@$$CBHV?$vector@NV?$allocator@N@std@@@std@@@std@@@std@@@std@@@0@0AEBV10@@Z 000000018003fbab     priorityqueue_api.obj
 0002:00002bb4       $unwind$?dtor$0@?0???$uninitialized_fill@PEAV?$_List_unchecked_iterator@V?$_List_val@U?$_List_simple_types@U?$pair@$$CBHV?$vector@NV?$allocator@N@std@@@std@@@std@@@std@@@std@@@std@@V12@@std@@YAXQEAV?$_List_unchecked_iterator@V?$_List_val@U?$_List_simple_types@U?$pair@$$CBHV?$vector@NV?$allocator@N@std@@@std@@@std@@@std@@@std@@@0@0AEBV10@@Z@4HA 000000018003fbb4     priorityqueue_api.obj
 0002:00002bbc       $unwind$??$fill@PEAV?$_List_unchecked_iterator@V?$_List_val@U?$_List_simple_types@U?$pair@$$CBHV?$vector@NV?$allocator@N@std@@@std@@@std@@@std@@@std@@@std@@V12@@std@@YAXQEAV?$_List_unchecked_iterator@V?$_List_val@U?$_List_simple_types@U?$pair@$$CBHV?$vector@NV?$allocator@N@std@@@std@@@std@@@std@@@std@@@0@0AEBV10@@Z 000000018003fbbc     priorityqueue_api.obj
 0002:00002bc4       $unwind$??$_Pocma@V?$allocator@U?$_List_node@U?$pair@$$CBHV?$vector@NV?$allocator@N@std@@@std@@@std@@PEAX@std@@@std@@@std@@YAXAEAV?$allocator@U?$_List_node@U?$pair@$$CBHV?$vector@NV?$allocator@N@std@@@std@@@std@@PEAX@std@@@0@0@Z 000000018003fbc4     priorityqueue_api.obj
 0002:00002bcc       $unwind$??$_Pocma@V?$allocator@V?$_List_unchecked_iterator@V?$_List_val@U?$_List_simple_types@U?$pair@$$CBHV?$vector@NV?$allocator@N@std@@@std@@@std@@@std@@@std@@@std@@@std@@@std@@YAXAEAV?$allocator@V?$_List_unchecked_iterator@V?$_List_val@U?$_List_simple_types@U?$pair@$$CBHV?$vector@NV?$allocator@N@std@@@std@@@std@@@std@@@std@@@std@@@0@0@Z 000000018003fbcc     priorityqueue_api.obj
 0002:00002bd4       $unwind$??$?0AEBV?$allocator@U?$pair@$$CBHV?$vector@NV?$allocator@N@std@@@std@@@std@@@std@@$$V@?$_Compressed_pair@V?$allocator@U?$_List_node@U?$pair@$$CBHV?$vector@NV?$allocator@N@std@@@std@@@std@@PEAX@std@@@std@@V?$_List_val@U?$_List_simple_types@U?$pair@$$CBHV?$vector@NV?$allocator@N@std@@@std@@@std@@@std@@@2@$00@std@@QEAA@U_One_then_variadic_args_t@1@AEBV?$allocator@U?$pair@$$CBHV?$vector@NV?$allocator@N@std@@@std@@@std@@@1@@Z 000000018003fbd4     priorityqueue_api.obj
 0002:00002bdc       $unwind$??$swap@PEAV?$_List_unchecked_iterator@V?$_List_val@U?$_List_simple_types@U?$pair@$$CBHH@std@@@std@@@std@@@std@@$0A@@std@@YAXAEAPEAV?$_List_unchecked_iterator@V?$_List_val@U?$_List_simple_types@U?$pair@$$CBHH@std@@@std@@@std@@@0@0@Z 000000018003fbdc     priorityqueue_api.obj
 0002:00002be4       $unwind$??$_Get_size_of_n@$07@std@@YA_K_K@Z 000000018003fbe4     priorityqueue_api.obj
 0002:00002bec       $unwind$??$_Allocate@$0BA@U_Default_allocate_traits@std@@$0A@@std@@YAPEAX_K@Z 000000018003fbec     priorityqueue_api.obj
 0002:00002bf4       $unwind$?_Bump_erased@_Range_eraser@?$_Hash@V?$_Umap_traits@HHV?$_Uhash_compare@HU?$hash@H@std@@U?$equal_to@H@2@@std@@V?$allocator@U?$pair@$$CBHH@std@@@2@$0A@@std@@@std@@QEAAXXZ 000000018003fbf4     priorityqueue_api.obj
 0002:00002bfc       $unwind$??$_Construct_in_place@PEAU?$_List_node@U?$pair@$$CBHH@std@@PEAX@std@@AEAPEAU12@@std@@YAXAEAPEAU?$_List_node@U?$pair@$$CBHH@std@@PEAX@0@0@Z 000000018003fbfc     priorityqueue_api.obj
 0002:00002c04       $unwind$??$swap@PEAU?$_List_node@U?$pair@$$CBHH@std@@PEAX@std@@$0A@@std@@YAXAEAPEAU?$_List_node@U?$pair@$$CBHH@std@@PEAX@0@0@Z 000000018003fc04     priorityqueue_api.obj
 0002:00002c0c       $unwind$??$swap@PEAV?$_List_unchecked_iterator@V?$_List_val@U?$_List_simple_types@U?$pair@$$CBHV?$vector@NV?$allocator@N@std@@@std@@@std@@@std@@@std@@@std@@$0A@@std@@YAXAEAPEAV?$_List_unchecked_iterator@V?$_List_val@U?$_List_simple_types@U?$pair@$$CBHV?$vector@NV?$allocator@N@std@@@std@@@std@@@std@@@std@@@0@0@Z 000000018003fc0c     priorityqueue_api.obj
 0002:00002c14       $unwind$?_Bump_erased@_Range_eraser@?$_Hash@V?$_Umap_traits@HV?$vector@NV?$allocator@N@std@@@std@@V?$_Uhash_compare@HU?$hash@H@std@@U?$equal_to@H@2@@2@V?$allocator@U?$pair@$$CBHV?$vector@NV?$allocator@N@std@@@std@@@std@@@2@$0A@@std@@@std@@QEAAXXZ 000000018003fc14     priorityqueue_api.obj
 0002:00002c1c       $unwind$??$_Construct_in_place@PEAU?$_List_node@U?$pair@$$CBHV?$vector@NV?$allocator@N@std@@@std@@@std@@PEAX@std@@AEAPEAU12@@std@@YAXAEAPEAU?$_List_node@U?$pair@$$CBHV?$vector@NV?$allocator@N@std@@@std@@@std@@PEAX@0@0@Z 000000018003fc1c     priorityqueue_api.obj
 0002:00002c24       $unwind$??$swap@PEAU?$_List_node@U?$pair@$$CBHV?$vector@NV?$allocator@N@std@@@std@@@std@@PEAX@std@@$0A@@std@@YAXAEAPEAU?$_List_node@U?$pair@$$CBHV?$vector@NV?$allocator@N@std@@@std@@@std@@PEAX@0@0@Z 000000018003fc24     priorityqueue_api.obj
 0002:00002c2c       $unwind$??$_Freenode@V?$allocator@U?$_List_node@U?$pair@$$CBHV?$vector@NV?$allocator@N@std@@@std@@@std@@PEAX@std@@@std@@@?$_List_node@U?$pair@$$CBHV?$vector@NV?$allocator@N@std@@@std@@@std@@PEAX@std@@SAXAEAV?$allocator@U?$_List_node@U?$pair@$$CBHV?$vector@NV?$allocator@N@std@@@std@@@std@@PEAX@std@@@1@PEAU01@@Z 000000018003fc2c     priorityqueue_api.obj
 0002:00002c3c       $cppxdata$??$_Freenode@V?$allocator@U?$_List_node@U?$pair@$$CBHV?$vector@NV?$allocator@N@std@@@std@@@std@@PEAX@std@@@std@@@?$_List_node@U?$pair@$$CBHV?$vector@NV?$allocator@N@std@@@std@@@std@@PEAX@std@@SAXAEAV?$allocator@U?$_List_node@U?$pair@$$CBHV?$vector@NV?$allocator@N@std@@@std@@@std@@PEAX@std@@@1@PEAU01@@Z 000000018003fc3c     priorityqueue_api.obj
 0002:00002c41       $ip2state$??$_Freenode@V?$allocator@U?$_List_node@U?$pair@$$CBHV?$vector@NV?$allocator@N@std@@@std@@@std@@PEAX@std@@@std@@@?$_List_node@U?$pair@$$CBHV?$vector@NV?$allocator@N@std@@@std@@@std@@PEAX@std@@SAXAEAV?$allocator@U?$_List_node@U?$pair@$$CBHV?$vector@NV?$allocator@N@std@@@std@@@std@@PEAX@std@@@1@PEAU01@@Z 000000018003fc41     priorityqueue_api.obj
 0002:00002c44       $unwind$??$_Freenode@V?$allocator@U?$_List_node@U?$pair@$$CBHH@std@@PEAX@std@@@std@@@?$_List_node@U?$pair@$$CBHH@std@@PEAX@std@@SAXAEAV?$allocator@U?$_List_node@U?$pair@$$CBHH@std@@PEAX@std@@@1@PEAU01@@Z 000000018003fc44     priorityqueue_api.obj
 0002:00002c54       $cppxdata$??$_Freenode@V?$allocator@U?$_List_node@U?$pair@$$CBHH@std@@PEAX@std@@@std@@@?$_List_node@U?$pair@$$CBHH@std@@PEAX@std@@SAXAEAV?$allocator@U?$_List_node@U?$pair@$$CBHH@std@@PEAX@std@@@1@PEAU01@@Z 000000018003fc54     priorityqueue_api.obj
 0002:00002c59       $ip2state$??$_Freenode@V?$allocator@U?$_List_node@U?$pair@$$CBHH@std@@PEAX@std@@@std@@@?$_List_node@U?$pair@$$CBHH@std@@PEAX@std@@SAXAEAV?$allocator@U?$_List_node@U?$pair@$$CBHH@std@@PEAX@std@@@1@PEAU01@@Z 000000018003fc59     priorityqueue_api.obj
 0002:00002c5c       $unwind$??$_Get_size_of_n@$0BI@@std@@YA_K_K@Z 000000018003fc5c     priorityqueue_api.obj
 0002:00002c64       $unwind$??$_Get_size_of_n@$0DA@@std@@YA_K_K@Z 000000018003fc64     priorityqueue_api.obj
 0002:00002c6c       $unwind$??$_Construct_n@PEBNPEBN@?$vector@NV?$allocator@N@std@@@std@@AEAAX_K$$QEAPEBN1@Z 000000018003fc6c     priorityqueue_api.obj
 0002:00002c7c       $cppxdata$??$_Construct_n@PEBNPEBN@?$vector@NV?$allocator@N@std@@@std@@AEAAX_K$$QEAPEBN1@Z 000000018003fc7c     priorityqueue_api.obj
 0002:00002c85       $stateUnwindMap$??$_Construct_n@PEBNPEBN@?$vector@NV?$allocator@N@std@@@std@@AEAAX_K$$QEAPEBN1@Z 000000018003fc85     priorityqueue_api.obj
 0002:00002c8b       $ip2state$??$_Construct_n@PEBNPEBN@?$vector@NV?$allocator@N@std@@@std@@AEAAX_K$$QEAPEBN1@Z 000000018003fc8b     priorityqueue_api.obj
 0002:00002c94       $unwind$?dtor$0@?0???$_Construct_n@PEBNPEBN@?$vector@NV?$allocator@N@std@@@std@@AEAAX_K$$QEAPEBN1@Z@4HA 000000018003fc94     priorityqueue_api.obj
 0002:00002c9c       $unwind$??$_Find@H@?$_Hash@V?$_Umap_traits@HV?$vector@NV?$allocator@N@std@@@std@@V?$_Uhash_compare@HU?$hash@H@std@@U?$equal_to@H@2@@2@V?$allocator@U?$pair@$$CBHV?$vector@NV?$allocator@N@std@@@std@@@std@@@2@$0A@@std@@@std@@AEBAPEAU?$_List_node@U?$pair@$$CBHV?$vector@NV?$allocator@N@std@@@std@@@std@@PEAX@1@AEBH_K@Z 000000018003fc9c     priorityqueue_api.obj
 0002:00002ca4       $unwind$??$_Find@H@?$_Hash@V?$_Umap_traits@HHV?$_Uhash_compare@HU?$hash@H@std@@U?$equal_to@H@2@@std@@V?$allocator@U?$pair@$$CBHH@std@@@2@$0A@@std@@@std@@AEBAPEAU?$_List_node@U?$pair@$$CBHH@std@@PEAX@1@AEBH_K@Z 000000018003fca4     priorityqueue_api.obj
 0002:00002cac       $unwind$??$_Emplace_back_with_unused_capacity@AEBHN@?$vector@V?$vector@NV?$allocator@N@std@@@std@@V?$allocator@V?$vector@NV?$allocator@N@std@@@std@@@2@@std@@AEAAAEAV?$vector@NV?$allocator@N@std@@@1@AEBH$$QEAN@Z 000000018003fcac     priorityqueue_api.obj
 0002:00002cb4       $unwind$??$_Emplace_reallocate@AEBHN@?$vector@V?$vector@NV?$allocator@N@std@@@std@@V?$allocator@V?$vector@NV?$allocator@N@std@@@std@@@2@@std@@AEAAPEAV?$vector@NV?$allocator@N@std@@@1@QEAV21@AEBH$$QEAN@Z 000000018003fcb4     priorityqueue_api.obj
 0002:00002cc4       $cppxdata$??$_Emplace_reallocate@AEBHN@?$vector@V?$vector@NV?$allocator@N@std@@@std@@V?$allocator@V?$vector@NV?$allocator@N@std@@@std@@@2@@std@@AEAAPEAV?$vector@NV?$allocator@N@std@@@1@QEAV21@AEBH$$QEAN@Z 000000018003fcc4     priorityqueue_api.obj
 0002:00002cd1       $stateUnwindMap$??$_Emplace_reallocate@AEBHN@?$vector@V?$vector@NV?$allocator@N@std@@@std@@V?$allocator@V?$vector@NV?$allocator@N@std@@@std@@@2@@std@@AEAAPEAV?$vector@NV?$allocator@N@std@@@1@QEAV21@AEBH$$QEAN@Z 000000018003fcd1     priorityqueue_api.obj
 0002:00002cd4       $tryMap$??$_Emplace_reallocate@AEBHN@?$vector@V?$vector@NV?$allocator@N@std@@@std@@V?$allocator@V?$vector@NV?$allocator@N@std@@@std@@@2@@std@@AEAAPEAV?$vector@NV?$allocator@N@std@@@1@QEAV21@AEBH$$QEAN@Z 000000018003fcd4     priorityqueue_api.obj
 0002:00002cdc       $handlerMap$??$_Emplace_reallocate@AEBHN@?$vector@V?$vector@NV?$allocator@N@std@@@std@@V?$allocator@V?$vector@NV?$allocator@N@std@@@std@@@2@@std@@AEAAPEAV?$vector@NV?$allocator@N@std@@@1@QEAV21@AEBH$$QEAN@Z 000000018003fcdc     priorityqueue_api.obj
 0002:00002ce3       $ip2state$??$_Emplace_reallocate@AEBHN@?$vector@V?$vector@NV?$allocator@N@std@@@std@@V?$allocator@V?$vector@NV?$allocator@N@std@@@std@@@2@@std@@AEAAPEAV?$vector@NV?$allocator@N@std@@@1@QEAV21@AEBH$$QEAN@Z 000000018003fce3     priorityqueue_api.obj
 0002:00002cec       $unwind$?catch$0@?0???$_Emplace_reallocate@AEBHN@?$vector@V?$vector@NV?$allocator@N@std@@@std@@V?$allocator@V?$vector@NV?$allocator@N@std@@@std@@@2@@std@@AEAAPEAV?$vector@NV?$allocator@N@std@@@1@QEAV21@AEBH$$QEAN@Z@4HA 000000018003fcec     priorityqueue_api.obj
 0002:00002cf4       $unwind$??$emplace_back@AEAHV?$vector@NV?$allocator@N@std@@@std@@@?$vector@U?$pair@HV?$vector@NV?$allocator@N@std@@@std@@@std@@V?$allocator@U?$pair@HV?$vector@NV?$allocator@N@std@@@std@@@std@@@2@@std@@QEAA?A_TAEAH$$QEAV?$vector@NV?$allocator@N@std@@@1@@Z 000000018003fcf4     priorityqueue_api.obj
 0002:00002cfc       $unwind$??$_Emplace_one_at_back@AEAHV?$vector@NV?$allocator@N@std@@@std@@@?$vector@U?$pair@HV?$vector@NV?$allocator@N@std@@@std@@@std@@V?$allocator@U?$pair@HV?$vector@NV?$allocator@N@std@@@std@@@std@@@2@@std@@AEAAAEAU?$pair@HV?$vector@NV?$allocator@N@std@@@std@@@1@AEAH$$QEAV?$vector@NV?$allocator@N@std@@@1@@Z 000000018003fcfc     priorityqueue_api.obj
 0002:00002d04       $unwind$??$push_heap@V?$_Vector_iterator@V?$_Vector_val@U?$_Simple_types@U?$pair@HV?$vector@NV?$allocator@N@std@@@std@@@std@@@std@@@std@@@std@@Ucomparator@PriorityQueueImpl@nav@@@std@@YAXV?$_Vector_iterator@V?$_Vector_val@U?$_Simple_types@U?$pair@HV?$vector@NV?$allocator@N@std@@@std@@@std@@@std@@@std@@@0@0Ucomparator@PriorityQueueImpl@nav@@@Z 000000018003fd04     priorityqueue_api.obj
 0002:00002d14       $cppxdata$??$push_heap@V?$_Vector_iterator@V?$_Vector_val@U?$_Simple_types@U?$pair@HV?$vector@NV?$allocator@N@std@@@std@@@std@@@std@@@std@@@std@@Ucomparator@PriorityQueueImpl@nav@@@std@@YAXV?$_Vector_iterator@V?$_Vector_val@U?$_Simple_types@U?$pair@HV?$vector@NV?$allocator@N@std@@@std@@@std@@@std@@@std@@@0@0Ucomparator@PriorityQueueImpl@nav@@@Z 000000018003fd14     priorityqueue_api.obj
 0002:00002d1d       $stateUnwindMap$??$push_heap@V?$_Vector_iterator@V?$_Vector_val@U?$_Simple_types@U?$pair@HV?$vector@NV?$allocator@N@std@@@std@@@std@@@std@@@std@@@std@@Ucomparator@PriorityQueueImpl@nav@@@std@@YAXV?$_Vector_iterator@V?$_Vector_val@U?$_Simple_types@U?$pair@HV?$vector@NV?$allocator@N@std@@@std@@@std@@@std@@@std@@@0@0Ucomparator@PriorityQueueImpl@nav@@@Z 000000018003fd1d     priorityqueue_api.obj
 0002:00002d23       $ip2state$??$push_heap@V?$_Vector_iterator@V?$_Vector_val@U?$_Simple_types@U?$pair@HV?$vector@NV?$allocator@N@std@@@std@@@std@@@std@@@std@@@std@@Ucomparator@PriorityQueueImpl@nav@@@std@@YAXV?$_Vector_iterator@V?$_Vector_val@U?$_Simple_types@U?$pair@HV?$vector@NV?$allocator@N@std@@@std@@@std@@@std@@@std@@@0@0Ucomparator@PriorityQueueImpl@nav@@@Z 000000018003fd23     priorityqueue_api.obj
 0002:00002d2c       $unwind$?dtor$0@?0???$push_heap@V?$_Vector_iterator@V?$_Vector_val@U?$_Simple_types@U?$pair@HV?$vector@NV?$allocator@N@std@@@std@@@std@@@std@@@std@@@std@@Ucomparator@PriorityQueueImpl@nav@@@std@@YAXV?$_Vector_iterator@V?$_Vector_val@U?$_Simple_types@U?$pair@HV?$vector@NV?$allocator@N@std@@@std@@@std@@@std@@@std@@@0@0Ucomparator@PriorityQueueImpl@nav@@@Z@4HA 000000018003fd2c     priorityqueue_api.obj
 0002:00002d34       $unwind$??$?0HV?$vector@NV?$allocator@N@std@@@std@@$0A@@?$pair@HV?$vector@NV?$allocator@N@std@@@std@@@std@@QEAA@$$QEAH$$QEAV?$vector@NV?$allocator@N@std@@@1@@Z 000000018003fd34     priorityqueue_api.obj
 0002:00002d3c       $unwind$??$_Get_unwrapped@AEAV?$_Vector_iterator@V?$_Vector_val@U?$_Simple_types@U?$pair@HV?$vector@NV?$allocator@N@std@@@std@@@std@@@std@@@std@@@std@@@std@@YA?A_TAEAV?$_Vector_iterator@V?$_Vector_val@U?$_Simple_types@U?$pair@HV?$vector@NV?$allocator@N@std@@@std@@@std@@@std@@@std@@@0@@Z 000000018003fd3c     priorityqueue_api.obj
 0002:00002d44       $unwind$??$_Pop_heap_unchecked@PEAU?$pair@HV?$vector@NV?$allocator@N@std@@@std@@@std@@Ucomparator@PriorityQueueImpl@nav@@@std@@YAXPEAU?$pair@HV?$vector@NV?$allocator@N@std@@@std@@@0@0Ucomparator@PriorityQueueImpl@nav@@@Z 000000018003fd44     priorityqueue_api.obj
 0002:00002d54       $cppxdata$??$_Pop_heap_unchecked@PEAU?$pair@HV?$vector@NV?$allocator@N@std@@@std@@@std@@Ucomparator@PriorityQueueImpl@nav@@@std@@YAXPEAU?$pair@HV?$vector@NV?$allocator@N@std@@@std@@@0@0Ucomparator@PriorityQueueImpl@nav@@@Z 000000018003fd54     priorityqueue_api.obj
 0002:00002d5d       $stateUnwindMap$??$_Pop_heap_unchecked@PEAU?$pair@HV?$vector@NV?$allocator@N@std@@@std@@@std@@Ucomparator@PriorityQueueImpl@nav@@@std@@YAXPEAU?$pair@HV?$vector@NV?$allocator@N@std@@@std@@@0@0Ucomparator@PriorityQueueImpl@nav@@@Z 000000018003fd5d     priorityqueue_api.obj
 0002:00002d63       $ip2state$??$_Pop_heap_unchecked@PEAU?$pair@HV?$vector@NV?$allocator@N@std@@@std@@@std@@Ucomparator@PriorityQueueImpl@nav@@@std@@YAXPEAU?$pair@HV?$vector@NV?$allocator@N@std@@@std@@@0@0Ucomparator@PriorityQueueImpl@nav@@@Z 000000018003fd63     priorityqueue_api.obj
 0002:00002d6c       $unwind$?dtor$0@?0???$_Pop_heap_unchecked@PEAU?$pair@HV?$vector@NV?$allocator@N@std@@@std@@@std@@Ucomparator@PriorityQueueImpl@nav@@@std@@YAXPEAU?$pair@HV?$vector@NV?$allocator@N@std@@@std@@@0@0Ucomparator@PriorityQueueImpl@nav@@@Z@4HA 000000018003fd6c     priorityqueue_api.obj
 0002:00002d74       $unwind$??$_Emplace_back_with_unused_capacity@AEBV?$vector@NV?$allocator@N@std@@@std@@@?$vector@V?$vector@NV?$allocator@N@std@@@std@@V?$allocator@V?$vector@NV?$allocator@N@std@@@std@@@2@@std@@AEAAAEAV?$vector@NV?$allocator@N@std@@@1@AEBV21@@Z 000000018003fd74     priorityqueue_api.obj
 0002:00002d7c       $unwind$??$_Emplace_reallocate@AEBV?$vector@NV?$allocator@N@std@@@std@@@?$vector@V?$vector@NV?$allocator@N@std@@@std@@V?$allocator@V?$vector@NV?$allocator@N@std@@@std@@@2@@std@@AEAAPEAV?$vector@NV?$allocator@N@std@@@1@QEAV21@AEBV21@@Z 000000018003fd7c     priorityqueue_api.obj
 0002:00002d8c       $cppxdata$??$_Emplace_reallocate@AEBV?$vector@NV?$allocator@N@std@@@std@@@?$vector@V?$vector@NV?$allocator@N@std@@@std@@V?$allocator@V?$vector@NV?$allocator@N@std@@@std@@@2@@std@@AEAAPEAV?$vector@NV?$allocator@N@std@@@1@QEAV21@AEBV21@@Z 000000018003fd8c     priorityqueue_api.obj
 0002:00002d99       $stateUnwindMap$??$_Emplace_reallocate@AEBV?$vector@NV?$allocator@N@std@@@std@@@?$vector@V?$vector@NV?$allocator@N@std@@@std@@V?$allocator@V?$vector@NV?$allocator@N@std@@@std@@@2@@std@@AEAAPEAV?$vector@NV?$allocator@N@std@@@1@QEAV21@AEBV21@@Z 000000018003fd99     priorityqueue_api.obj
 0002:00002d9c       $tryMap$??$_Emplace_reallocate@AEBV?$vector@NV?$allocator@N@std@@@std@@@?$vector@V?$vector@NV?$allocator@N@std@@@std@@V?$allocator@V?$vector@NV?$allocator@N@std@@@std@@@2@@std@@AEAAPEAV?$vector@NV?$allocator@N@std@@@1@QEAV21@AEBV21@@Z 000000018003fd9c     priorityqueue_api.obj
 0002:00002da4       $handlerMap$??$_Emplace_reallocate@AEBV?$vector@NV?$allocator@N@std@@@std@@@?$vector@V?$vector@NV?$allocator@N@std@@@std@@V?$allocator@V?$vector@NV?$allocator@N@std@@@std@@@2@@std@@AEAAPEAV?$vector@NV?$allocator@N@std@@@1@QEAV21@AEBV21@@Z 000000018003fda4     priorityqueue_api.obj
 0002:00002dab       $ip2state$??$_Emplace_reallocate@AEBV?$vector@NV?$allocator@N@std@@@std@@@?$vector@V?$vector@NV?$allocator@N@std@@@std@@V?$allocator@V?$vector@NV?$allocator@N@std@@@std@@@2@@std@@AEAAPEAV?$vector@NV?$allocator@N@std@@@1@QEAV21@AEBV21@@Z 000000018003fdab     priorityqueue_api.obj
 0002:00002db4       $unwind$?catch$0@?0???$_Emplace_reallocate@AEBV?$vector@NV?$allocator@N@std@@@std@@@?$vector@V?$vector@NV?$allocator@N@std@@@std@@V?$allocator@V?$vector@NV?$allocator@N@std@@@std@@@2@@std@@AEAAPEAV?$vector@NV?$allocator@N@std@@@1@QEAV21@AEBV21@@Z@4HA 000000018003fdb4     priorityqueue_api.obj
 0002:00002dbc       $unwind$??$_Find_last@H@?$_Hash@V?$_Umap_traits@HHV?$_Uhash_compare@HU?$hash@H@std@@U?$equal_to@H@2@@std@@V?$allocator@U?$pair@$$CBHH@std@@@2@$0A@@std@@@std@@IEBA?AU?$_Hash_find_last_result@PEAU?$_List_node@U?$pair@$$CBHH@std@@PEAX@std@@@1@AEBH_K@Z 000000018003fdbc     priorityqueue_api.obj
 0002:00002dc4       $unwind$??$?0AEAPEAU?$_List_node@U?$pair@$$CBHH@std@@PEAX@std@@_N$0A@@?$pair@PEAU?$_List_node@U?$pair@$$CBHH@std@@PEAX@std@@_N@std@@QEAA@AEAPEAU?$_List_node@U?$pair@$$CBHH@std@@PEAX@1@$$QEA_N@Z 000000018003fdc4     priorityqueue_api.obj
 0002:00002dcc       $unwind$??$forward_as_tuple@AEBH@std@@YA?AV?$tuple@AEBH@0@AEBH@Z 000000018003fdcc     priorityqueue_api.obj
 0002:00002dd4       $unwind$??0?$tuple@AEBH@std@@QEAA@$$QEAV01@@Z 000000018003fdd4     priorityqueue_api.obj
 0002:00002ddc       $unwind$?_Release@?$_Alloc_construct_ptr@V?$allocator@U?$_List_node@U?$pair@$$CBHH@std@@PEAX@std@@@std@@@std@@QEAAPEAU?$_List_node@U?$pair@$$CBHH@std@@PEAX@2@XZ 000000018003fddc     priorityqueue_api.obj
 0002:00002de4       $unwind$?_Allocate@?$_Alloc_construct_ptr@V?$allocator@U?$_List_node@U?$pair@$$CBHH@std@@PEAX@std@@@std@@@std@@QEAAXXZ 000000018003fde4     priorityqueue_api.obj
 0002:00002dec       $unwind$??1?$_Alloc_construct_ptr@V?$allocator@U?$_List_node@U?$pair@$$CBHH@std@@PEAX@std@@@std@@@std@@QEAA@XZ 000000018003fdec     priorityqueue_api.obj
 0002:00002dfc       $cppxdata$??1?$_Alloc_construct_ptr@V?$allocator@U?$_List_node@U?$pair@$$CBHH@std@@PEAX@std@@@std@@@std@@QEAA@XZ 000000018003fdfc     priorityqueue_api.obj
 0002:00002e01       $ip2state$??1?$_Alloc_construct_ptr@V?$allocator@U?$_List_node@U?$pair@$$CBHH@std@@PEAX@std@@@std@@@std@@QEAA@XZ 000000018003fe01     priorityqueue_api.obj
 0002:00002e04       $unwind$??1?$_List_node_emplace_op2@V?$allocator@U?$_List_node@U?$pair@$$CBHH@std@@PEAX@std@@@std@@@std@@QEAA@XZ 000000018003fe04     priorityqueue_api.obj
 0002:00002e14       $cppxdata$??1?$_List_node_emplace_op2@V?$allocator@U?$_List_node@U?$pair@$$CBHH@std@@PEAX@std@@@std@@@std@@QEAA@XZ 000000018003fe14     priorityqueue_api.obj
 0002:00002e19       $ip2state$??1?$_List_node_emplace_op2@V?$allocator@U?$_List_node@U?$pair@$$CBHH@std@@PEAX@std@@@std@@@std@@QEAA@XZ 000000018003fe19     priorityqueue_api.obj
 0002:00002e1c       $unwind$??$?0AEBUpiecewise_construct_t@std@@V?$tuple@AEBH@1@V?$tuple@$$V@1@@?$_List_node_emplace_op2@V?$allocator@U?$_List_node@U?$pair@$$CBHH@std@@PEAX@std@@@std@@@std@@QEAA@AEAV?$allocator@U?$_List_node@U?$pair@$$CBHH@std@@PEAX@std@@@1@AEBUpiecewise_construct_t@1@$$QEAV?$tuple@AEBH@1@$$QEAV?$tuple@$$V@1@@Z 000000018003fe1c     priorityqueue_api.obj
 0002:00002e2c       $cppxdata$??$?0AEBUpiecewise_construct_t@std@@V?$tuple@AEBH@1@V?$tuple@$$V@1@@?$_List_node_emplace_op2@V?$allocator@U?$_List_node@U?$pair@$$CBHH@std@@PEAX@std@@@std@@@std@@QEAA@AEAV?$allocator@U?$_List_node@U?$pair@$$CBHH@std@@PEAX@std@@@1@AEBUpiecewise_construct_t@1@$$QEAV?$tuple@AEBH@1@$$QEAV?$tuple@$$V@1@@Z 000000018003fe2c     priorityqueue_api.obj
 0002:00002e35       $stateUnwindMap$??$?0AEBUpiecewise_construct_t@std@@V?$tuple@AEBH@1@V?$tuple@$$V@1@@?$_List_node_emplace_op2@V?$allocator@U?$_List_node@U?$pair@$$CBHH@std@@PEAX@std@@@std@@@std@@QEAA@AEAV?$allocator@U?$_List_node@U?$pair@$$CBHH@std@@PEAX@std@@@1@AEBUpiecewise_construct_t@1@$$QEAV?$tuple@AEBH@1@$$QEAV?$tuple@$$V@1@@Z 000000018003fe35     priorityqueue_api.obj
 0002:00002e3b       $ip2state$??$?0AEBUpiecewise_construct_t@std@@V?$tuple@AEBH@1@V?$tuple@$$V@1@@?$_List_node_emplace_op2@V?$allocator@U?$_List_node@U?$pair@$$CBHH@std@@PEAX@std@@@std@@@std@@QEAA@AEAV?$allocator@U?$_List_node@U?$pair@$$CBHH@std@@PEAX@std@@@1@AEBUpiecewise_construct_t@1@$$QEAV?$tuple@AEBH@1@$$QEAV?$tuple@$$V@1@@Z 000000018003fe3b     priorityqueue_api.obj
 0002:00002e44       $unwind$?dtor$0@?0???$?0AEBUpiecewise_construct_t@std@@V?$tuple@AEBH@1@V?$tuple@$$V@1@@?$_List_node_emplace_op2@V?$allocator@U?$_List_node@U?$pair@$$CBHH@std@@PEAX@std@@@std@@@std@@QEAA@AEAV?$allocator@U?$_List_node@U?$pair@$$CBHH@std@@PEAX@std@@@1@AEBUpiecewise_construct_t@1@$$QEAV?$tuple@AEBH@1@$$QEAV?$tuple@$$V@1@@Z@4HA 000000018003fe44     priorityqueue_api.obj
 0002:00002e4c       $unwind$??$?0PEAU?$_List_node@U?$pair@$$CBHH@std@@PEAX@std@@_N$0A@@?$pair@PEAU?$_List_node@U?$pair@$$CBHH@std@@PEAX@std@@_N@std@@QEAA@$$QEAPEAU?$_List_node@U?$pair@$$CBHH@std@@PEAX@1@$$QEA_N@Z 000000018003fe4c     priorityqueue_api.obj
 0002:00002e54       $unwind$??1?$_Tidy_guard@V?$vector@NV?$allocator@N@std@@@std@@@std@@QEAA@XZ 000000018003fe54     priorityqueue_api.obj
 0002:00002e5c       $unwind$??$_Uninitialized_copy@PEANPEANV?$allocator@N@std@@@std@@YAPEANPEAN00AEAV?$allocator@N@0@@Z 000000018003fe5c     priorityqueue_api.obj
 0002:00002e6c       $cppxdata$??$_Uninitialized_copy@PEANPEANV?$allocator@N@std@@@std@@YAPEANPEAN00AEAV?$allocator@N@0@@Z 000000018003fe6c     priorityqueue_api.obj
 0002:00002e75       $stateUnwindMap$??$_Uninitialized_copy@PEANPEANV?$allocator@N@std@@@std@@YAPEANPEAN00AEAV?$allocator@N@0@@Z 000000018003fe75     priorityqueue_api.obj
 0002:00002e7b       $ip2state$??$_Uninitialized_copy@PEANPEANV?$allocator@N@std@@@std@@YAPEANPEAN00AEAV?$allocator@N@0@@Z 000000018003fe7b     priorityqueue_api.obj
 0002:00002e80       $unwind$?dtor$0@?0???$_Uninitialized_copy@PEANPEANV?$allocator@N@std@@@std@@YAPEANPEAN00AEAV?$allocator@N@0@@Z@4HA 000000018003fe80     priorityqueue_api.obj
 0002:00002e88       $unwind$??$_Uninitialized_fill_n@V?$allocator@N@std@@@std@@YAPEANPEAN_KAEBNAEAV?$allocator@N@0@@Z 000000018003fe88     priorityqueue_api.obj
 0002:00002e98       $cppxdata$??$_Uninitialized_fill_n@V?$allocator@N@std@@@std@@YAPEANPEAN_KAEBNAEAV?$allocator@N@0@@Z 000000018003fe98     priorityqueue_api.obj
 0002:00002ea1       $stateUnwindMap$??$_Uninitialized_fill_n@V?$allocator@N@std@@@std@@YAPEANPEAN_KAEBNAEAV?$allocator@N@0@@Z 000000018003fea1     priorityqueue_api.obj
 0002:00002ea7       $ip2state$??$_Uninitialized_fill_n@V?$allocator@N@std@@@std@@YAPEANPEAN_KAEBNAEAV?$allocator@N@0@@Z 000000018003fea7     priorityqueue_api.obj
 0002:00002eb0       $unwind$?dtor$0@?0???$_Uninitialized_fill_n@V?$allocator@N@std@@@std@@YAPEANPEAN_KAEBNAEAV?$allocator@N@0@@Z@4HA 000000018003feb0     priorityqueue_api.obj
 0002:00002eb8       $unwind$??$_Find_last@H@?$_Hash@V?$_Umap_traits@HV?$vector@NV?$allocator@N@std@@@std@@V?$_Uhash_compare@HU?$hash@H@std@@U?$equal_to@H@2@@2@V?$allocator@U?$pair@$$CBHV?$vector@NV?$allocator@N@std@@@std@@@std@@@2@$0A@@std@@@std@@IEBA?AU?$_Hash_find_last_result@PEAU?$_List_node@U?$pair@$$CBHV?$vector@NV?$allocator@N@std@@@std@@@std@@PEAX@std@@@1@AEBH_K@Z 000000018003feb8     priorityqueue_api.obj
 0002:00002ec0       $unwind$??$?0AEAPEAU?$_List_node@U?$pair@$$CBHV?$vector@NV?$allocator@N@std@@@std@@@std@@PEAX@std@@_N$0A@@?$pair@PEAU?$_List_node@U?$pair@$$CBHV?$vector@NV?$allocator@N@std@@@std@@@std@@PEAX@std@@_N@std@@QEAA@AEAPEAU?$_List_node@U?$pair@$$CBHV?$vector@NV?$allocator@N@std@@@std@@@std@@PEAX@1@$$QEA_N@Z 000000018003fec0     priorityqueue_api.obj
 0002:00002ec8       $unwind$?_Release@?$_Alloc_construct_ptr@V?$allocator@U?$_List_node@U?$pair@$$CBHV?$vector@NV?$allocator@N@std@@@std@@@std@@PEAX@std@@@std@@@std@@QEAAPEAU?$_List_node@U?$pair@$$CBHV?$vector@NV?$allocator@N@std@@@std@@@std@@PEAX@2@XZ 000000018003fec8     priorityqueue_api.obj
 0002:00002ed0       $unwind$?_Allocate@?$_Alloc_construct_ptr@V?$allocator@U?$_List_node@U?$pair@$$CBHV?$vector@NV?$allocator@N@std@@@std@@@std@@PEAX@std@@@std@@@std@@QEAAXXZ 000000018003fed0     priorityqueue_api.obj
 0002:00002ed8       $unwind$??1?$_Alloc_construct_ptr@V?$allocator@U?$_List_node@U?$pair@$$CBHV?$vector@NV?$allocator@N@std@@@std@@@std@@PEAX@std@@@std@@@std@@QEAA@XZ 000000018003fed8     priorityqueue_api.obj
 0002:00002ee8       $cppxdata$??1?$_Alloc_construct_ptr@V?$allocator@U?$_List_node@U?$pair@$$CBHV?$vector@NV?$allocator@N@std@@@std@@@std@@PEAX@std@@@std@@@std@@QEAA@XZ 000000018003fee8     priorityqueue_api.obj
 0002:00002eed       $ip2state$??1?$_Alloc_construct_ptr@V?$allocator@U?$_List_node@U?$pair@$$CBHV?$vector@NV?$allocator@N@std@@@std@@@std@@PEAX@std@@@std@@@std@@QEAA@XZ 000000018003feed     priorityqueue_api.obj
 0002:00002ef0       $unwind$??1?$_List_node_emplace_op2@V?$allocator@U?$_List_node@U?$pair@$$CBHV?$vector@NV?$allocator@N@std@@@std@@@std@@PEAX@std@@@std@@@std@@QEAA@XZ 000000018003fef0     priorityqueue_api.obj
 0002:00002f00       $cppxdata$??1?$_List_node_emplace_op2@V?$allocator@U?$_List_node@U?$pair@$$CBHV?$vector@NV?$allocator@N@std@@@std@@@std@@PEAX@std@@@std@@@std@@QEAA@XZ 000000018003ff00     priorityqueue_api.obj
 0002:00002f05       $ip2state$??1?$_List_node_emplace_op2@V?$allocator@U?$_List_node@U?$pair@$$CBHV?$vector@NV?$allocator@N@std@@@std@@@std@@PEAX@std@@@std@@@std@@QEAA@XZ 000000018003ff05     priorityqueue_api.obj
 0002:00002f08       $unwind$??$?0AEBUpiecewise_construct_t@std@@V?$tuple@AEBH@1@V?$tuple@$$V@1@@?$_List_node_emplace_op2@V?$allocator@U?$_List_node@U?$pair@$$CBHV?$vector@NV?$allocator@N@std@@@std@@@std@@PEAX@std@@@std@@@std@@QEAA@AEAV?$allocator@U?$_List_node@U?$pair@$$CBHV?$vector@NV?$allocator@N@std@@@std@@@std@@PEAX@std@@@1@AEBUpiecewise_construct_t@1@$$QEAV?$tuple@AEBH@1@$$QEAV?$tuple@$$V@1@@Z 000000018003ff08     priorityqueue_api.obj
 0002:00002f18       $cppxdata$??$?0AEBUpiecewise_construct_t@std@@V?$tuple@AEBH@1@V?$tuple@$$V@1@@?$_List_node_emplace_op2@V?$allocator@U?$_List_node@U?$pair@$$CBHV?$vector@NV?$allocator@N@std@@@std@@@std@@PEAX@std@@@std@@@std@@QEAA@AEAV?$allocator@U?$_List_node@U?$pair@$$CBHV?$vector@NV?$allocator@N@std@@@std@@@std@@PEAX@std@@@1@AEBUpiecewise_construct_t@1@$$QEAV?$tuple@AEBH@1@$$QEAV?$tuple@$$V@1@@Z 000000018003ff18     priorityqueue_api.obj
 0002:00002f21       $stateUnwindMap$??$?0AEBUpiecewise_construct_t@std@@V?$tuple@AEBH@1@V?$tuple@$$V@1@@?$_List_node_emplace_op2@V?$allocator@U?$_List_node@U?$pair@$$CBHV?$vector@NV?$allocator@N@std@@@std@@@std@@PEAX@std@@@std@@@std@@QEAA@AEAV?$allocator@U?$_List_node@U?$pair@$$CBHV?$vector@NV?$allocator@N@std@@@std@@@std@@PEAX@std@@@1@AEBUpiecewise_construct_t@1@$$QEAV?$tuple@AEBH@1@$$QEAV?$tuple@$$V@1@@Z 000000018003ff21     priorityqueue_api.obj
 0002:00002f27       $ip2state$??$?0AEBUpiecewise_construct_t@std@@V?$tuple@AEBH@1@V?$tuple@$$V@1@@?$_List_node_emplace_op2@V?$allocator@U?$_List_node@U?$pair@$$CBHV?$vector@NV?$allocator@N@std@@@std@@@std@@PEAX@std@@@std@@@std@@QEAA@AEAV?$allocator@U?$_List_node@U?$pair@$$CBHV?$vector@NV?$allocator@N@std@@@std@@@std@@PEAX@std@@@1@AEBUpiecewise_construct_t@1@$$QEAV?$tuple@AEBH@1@$$QEAV?$tuple@$$V@1@@Z 000000018003ff27     priorityqueue_api.obj
 0002:00002f30       $unwind$?dtor$0@?0???$?0AEBUpiecewise_construct_t@std@@V?$tuple@AEBH@1@V?$tuple@$$V@1@@?$_List_node_emplace_op2@V?$allocator@U?$_List_node@U?$pair@$$CBHV?$vector@NV?$allocator@N@std@@@std@@@std@@PEAX@std@@@std@@@std@@QEAA@AEAV?$allocator@U?$_List_node@U?$pair@$$CBHV?$vector@NV?$allocator@N@std@@@std@@@std@@PEAX@std@@@1@AEBUpiecewise_construct_t@1@$$QEAV?$tuple@AEBH@1@$$QEAV?$tuple@$$V@1@@Z@4HA 000000018003ff30     priorityqueue_api.obj
 0002:00002f38       $unwind$??$?0PEAU?$_List_node@U?$pair@$$CBHV?$vector@NV?$allocator@N@std@@@std@@@std@@PEAX@std@@_N$0A@@?$pair@PEAU?$_List_node@U?$pair@$$CBHV?$vector@NV?$allocator@N@std@@@std@@@std@@PEAX@std@@_N@std@@QEAA@$$QEAPEAU?$_List_node@U?$pair@$$CBHV?$vector@NV?$allocator@N@std@@@std@@@std@@PEAX@1@$$QEA_N@Z 000000018003ff38     priorityqueue_api.obj
 0002:00002f40       $unwind$??$destroy@V?$vector@NV?$allocator@N@std@@@std@@@?$_Default_allocator_traits@V?$allocator@V?$vector@NV?$allocator@N@std@@@std@@@std@@@std@@SAXAEAV?$allocator@V?$vector@NV?$allocator@N@std@@@std@@@1@QEAV?$vector@NV?$allocator@N@std@@@1@@Z 000000018003ff40     priorityqueue_api.obj
 0002:00002f48       $unwind$??$?0AEBV?$allocator@U?$pair@$$CBHH@std@@@std@@$$V@?$_Compressed_pair@V?$allocator@V?$_List_unchecked_iterator@V?$_List_val@U?$_List_simple_types@U?$pair@$$CBHH@std@@@std@@@std@@@std@@@std@@V?$_Vector_val@U?$_Simple_types@V?$_List_unchecked_iterator@V?$_List_val@U?$_List_simple_types@U?$pair@$$CBHH@std@@@std@@@std@@@std@@@std@@@2@$00@std@@QEAA@U_One_then_variadic_args_t@1@AEBV?$allocator@U?$pair@$$CBHH@std@@@1@@Z 000000018003ff48     priorityqueue_api.obj
 0002:00002f50       $unwind$??$?0AEBV?$allocator@U?$pair@$$CBHV?$vector@NV?$allocator@N@std@@@std@@@std@@@std@@$$V@?$_Compressed_pair@V?$allocator@V?$_List_unchecked_iterator@V?$_List_val@U?$_List_simple_types@U?$pair@$$CBHV?$vector@NV?$allocator@N@std@@@std@@@std@@@std@@@std@@@std@@@std@@V?$_Vector_val@U?$_Simple_types@V?$_List_unchecked_iterator@V?$_List_val@U?$_List_simple_types@U?$pair@$$CBHV?$vector@NV?$allocator@N@std@@@std@@@std@@@std@@@std@@@std@@@std@@@2@$00@std@@QEAA@U_One_then_variadic_args_t@1@AEBV?$allocator@U?$pair@$$CBHV?$vector@NV?$allocator@N@std@@@std@@@std@@@1@@Z 000000018003ff50     priorityqueue_api.obj
 0002:00002f58       $unwind$??1?$_Uninitialized_backout@PEAV?$_List_unchecked_iterator@V?$_List_val@U?$_List_simple_types@U?$pair@$$CBHH@std@@@std@@@std@@@std@@@std@@QEAA@XZ 000000018003ff58     priorityqueue_api.obj
 0002:00002f60       $unwind$??$_Emplace_back@AEBV?$_List_unchecked_iterator@V?$_List_val@U?$_List_simple_types@U?$pair@$$CBHH@std@@@std@@@std@@@std@@@?$_Uninitialized_backout@PEAV?$_List_unchecked_iterator@V?$_List_val@U?$_List_simple_types@U?$pair@$$CBHH@std@@@std@@@std@@@std@@@std@@QEAAXAEBV?$_List_unchecked_iterator@V?$_List_val@U?$_List_simple_types@U?$pair@$$CBHH@std@@@std@@@std@@@1@@Z 000000018003ff60     priorityqueue_api.obj
 0002:00002f68       $unwind$??1?$_Uninitialized_backout@PEAV?$_List_unchecked_iterator@V?$_List_val@U?$_List_simple_types@U?$pair@$$CBHV?$vector@NV?$allocator@N@std@@@std@@@std@@@std@@@std@@@std@@@std@@QEAA@XZ 000000018003ff68     priorityqueue_api.obj
 0002:00002f70       $unwind$??$_Emplace_back@AEBV?$_List_unchecked_iterator@V?$_List_val@U?$_List_simple_types@U?$pair@$$CBHV?$vector@NV?$allocator@N@std@@@std@@@std@@@std@@@std@@@std@@@?$_Uninitialized_backout@PEAV?$_List_unchecked_iterator@V?$_List_val@U?$_List_simple_types@U?$pair@$$CBHV?$vector@NV?$allocator@N@std@@@std@@@std@@@std@@@std@@@std@@@std@@QEAAXAEBV?$_List_unchecked_iterator@V?$_List_val@U?$_List_simple_types@U?$pair@$$CBHV?$vector@NV?$allocator@N@std@@@std@@@std@@@std@@@std@@@1@@Z 000000018003ff70     priorityqueue_api.obj
 0002:00002f78       $unwind$??$_Allocate_manually_vector_aligned@U_Default_allocate_traits@std@@@std@@YAPEAX_K@Z 000000018003ff78     priorityqueue_api.obj
 0002:00002f80       $unwind$??$destroy@U?$pair@$$CBHV?$vector@NV?$allocator@N@std@@@std@@@std@@@?$_Default_allocator_traits@V?$allocator@U?$_List_node@U?$pair@$$CBHV?$vector@NV?$allocator@N@std@@@std@@@std@@PEAX@std@@@std@@@std@@SAXAEAV?$allocator@U?$_List_node@U?$pair@$$CBHV?$vector@NV?$allocator@N@std@@@std@@@std@@PEAX@std@@@1@QEAU?$pair@$$CBHV?$vector@NV?$allocator@N@std@@@std@@@1@@Z 000000018003ff80     priorityqueue_api.obj
 0002:00002f88       $unwind$??$exchange@PEAU?$_List_node@U?$pair@$$CBHV?$vector@NV?$allocator@N@std@@@std@@@std@@PEAX@std@@$$T@std@@YAPEAU?$_List_node@U?$pair@$$CBHV?$vector@NV?$allocator@N@std@@@std@@@std@@PEAX@0@AEAPEAU10@$$QEA$$T@Z 000000018003ff88     priorityqueue_api.obj
 0002:00002f90       $unwind$??$exchange@PEAU?$_List_node@U?$pair@$$CBHH@std@@PEAX@std@@$$T@std@@YAPEAU?$_List_node@U?$pair@$$CBHH@std@@PEAX@0@AEAPEAU10@$$QEA$$T@Z 000000018003ff90     priorityqueue_api.obj
 0002:00002f98       $unwind$??$_Construct_in_place@PEAU?$_List_node@U?$pair@$$CBHH@std@@PEAX@std@@AEBQEAU12@@std@@YAXAEAPEAU?$_List_node@U?$pair@$$CBHH@std@@PEAX@0@AEBQEAU10@@Z 000000018003ff98     priorityqueue_api.obj
 0002:00002fa0       $unwind$??$_Construct_in_place@PEAU?$_List_node@U?$pair@$$CBHV?$vector@NV?$allocator@N@std@@@std@@@std@@PEAX@std@@AEBQEAU12@@std@@YAXAEAPEAU?$_List_node@U?$pair@$$CBHV?$vector@NV?$allocator@N@std@@@std@@@std@@PEAX@0@AEBQEAU10@@Z 000000018003ffa0     priorityqueue_api.obj
 0002:00002fa8       $unwind$??1_Clear_guard@?$_Hash@V?$_Umap_traits@HHV?$_Uhash_compare@HU?$hash@H@std@@U?$equal_to@H@2@@std@@V?$allocator@U?$pair@$$CBHH@std@@@2@$0A@@std@@@std@@QEAA@XZ 000000018003ffa8     priorityqueue_api.obj
 0002:00002fb0       $unwind$??$?RHH@?$_Uhash_compare@HU?$hash@H@std@@U?$equal_to@H@2@@std@@QEBA_NAEBH0@Z 000000018003ffb0     priorityqueue_api.obj
 0002:00002fb8       $unwind$??$min@_K@std@@YAAEB_KAEB_K0@Z 000000018003ffb8     priorityqueue_api.obj
 0002:00002fc0       $unwind$??$_Allocate_at_least_helper@V?$allocator@N@std@@@std@@YAPEANAEAV?$allocator@N@0@AEA_K@Z 000000018003ffc0     priorityqueue_api.obj
 0002:00002fc8       $unwind$??1_Clear_guard@?$_Hash@V?$_Umap_traits@HV?$vector@NV?$allocator@N@std@@@std@@V?$_Uhash_compare@HU?$hash@H@std@@U?$equal_to@H@2@@2@V?$allocator@U?$pair@$$CBHV?$vector@NV?$allocator@N@std@@@std@@@std@@@2@$0A@@std@@@std@@QEAA@XZ 000000018003ffc8     priorityqueue_api.obj
 0002:00002fd0       $unwind$??$_Hash_representation@H@std@@YA_KAEBH@Z 000000018003ffd0     priorityqueue_api.obj
 0002:00002fd8       $unwind$??$_Uninitialized_copy@PEBNPEBNV?$allocator@N@std@@@std@@YAPEANPEBN0PEANAEAV?$allocator@N@0@@Z 000000018003ffd8     priorityqueue_api.obj
 0002:00002fe8       $cppxdata$??$_Uninitialized_copy@PEBNPEBNV?$allocator@N@std@@@std@@YAPEANPEBN0PEANAEAV?$allocator@N@0@@Z 000000018003ffe8     priorityqueue_api.obj
 0002:00002ff1       $stateUnwindMap$??$_Uninitialized_copy@PEBNPEBNV?$allocator@N@std@@@std@@YAPEANPEBN0PEANAEAV?$allocator@N@0@@Z 000000018003fff1     priorityqueue_api.obj
 0002:00002ff7       $ip2state$??$_Uninitialized_copy@PEBNPEBNV?$allocator@N@std@@@std@@YAPEANPEBN0PEANAEAV?$allocator@N@0@@Z 000000018003fff7     priorityqueue_api.obj
 0002:00002ffc       $unwind$?dtor$0@?0???$_Uninitialized_copy@PEBNPEBNV?$allocator@N@std@@@std@@YAPEANPEBN0PEANAEAV?$allocator@N@0@@Z@4HA 000000018003fffc     priorityqueue_api.obj
 0002:00003004       $unwind$??$construct@V?$vector@NV?$allocator@N@std@@@std@@AEBHN@?$_Default_allocator_traits@V?$allocator@V?$vector@NV?$allocator@N@std@@@std@@@std@@@std@@SAXAEAV?$allocator@V?$vector@NV?$allocator@N@std@@@std@@@1@QEAV?$vector@NV?$allocator@N@std@@@1@AEBH$$QEAN@Z 0000000180040004     priorityqueue_api.obj
 0002:0000300c       $unwind$??$_Allocate_at_least_helper@V?$allocator@V?$vector@NV?$allocator@N@std@@@std@@@std@@@std@@YAPEAV?$vector@NV?$allocator@N@std@@@0@AEAV?$allocator@V?$vector@NV?$allocator@N@std@@@std@@@0@AEA_K@Z 000000018004000c     priorityqueue_api.obj
 0002:00003014       $unwind$??$_Uninitialized_move@PEAV?$vector@NV?$allocator@N@std@@@std@@V?$allocator@V?$vector@NV?$allocator@N@std@@@std@@@2@@std@@YAPEAV?$vector@NV?$allocator@N@std@@@0@QEAV10@0PEAV10@AEAV?$allocator@V?$vector@NV?$allocator@N@std@@@std@@@0@@Z 0000000180040014     priorityqueue_api.obj
 0002:00003024       $cppxdata$??$_Uninitialized_move@PEAV?$vector@NV?$allocator@N@std@@@std@@V?$allocator@V?$vector@NV?$allocator@N@std@@@std@@@2@@std@@YAPEAV?$vector@NV?$allocator@N@std@@@0@QEAV10@0PEAV10@AEAV?$allocator@V?$vector@NV?$allocator@N@std@@@std@@@0@@Z 0000000180040024     priorityqueue_api.obj
 0002:0000302d       $stateUnwindMap$??$_Uninitialized_move@PEAV?$vector@NV?$allocator@N@std@@@std@@V?$allocator@V?$vector@NV?$allocator@N@std@@@std@@@2@@std@@YAPEAV?$vector@NV?$allocator@N@std@@@0@QEAV10@0PEAV10@AEAV?$allocator@V?$vector@NV?$allocator@N@std@@@std@@@0@@Z 000000018004002d     priorityqueue_api.obj
 0002:00003033       $ip2state$??$_Uninitialized_move@PEAV?$vector@NV?$allocator@N@std@@@std@@V?$allocator@V?$vector@NV?$allocator@N@std@@@std@@@2@@std@@YAPEAV?$vector@NV?$allocator@N@std@@@0@QEAV10@0PEAV10@AEAV?$allocator@V?$vector@NV?$allocator@N@std@@@std@@@0@@Z 0000000180040033     priorityqueue_api.obj
 0002:0000303c       $unwind$?dtor$0@?0???$_Uninitialized_move@PEAV?$vector@NV?$allocator@N@std@@@std@@V?$allocator@V?$vector@NV?$allocator@N@std@@@std@@@2@@std@@YAPEAV?$vector@NV?$allocator@N@std@@@0@QEAV10@0PEAV10@AEAV?$allocator@V?$vector@NV?$allocator@N@std@@@std@@@0@@Z@4HA 000000018004003c     priorityqueue_api.obj
 0002:00003044       $unwind$??$_Emplace_back_with_unused_capacity@AEAHV?$vector@NV?$allocator@N@std@@@std@@@?$vector@U?$pair@HV?$vector@NV?$allocator@N@std@@@std@@@std@@V?$allocator@U?$pair@HV?$vector@NV?$allocator@N@std@@@std@@@std@@@2@@std@@AEAAAEAU?$pair@HV?$vector@NV?$allocator@N@std@@@std@@@1@AEAH$$QEAV?$vector@NV?$allocator@N@std@@@1@@Z 0000000180040044     priorityqueue_api.obj
 0002:0000304c       $unwind$??$_Emplace_reallocate@AEAHV?$vector@NV?$allocator@N@std@@@std@@@?$vector@U?$pair@HV?$vector@NV?$allocator@N@std@@@std@@@std@@V?$allocator@U?$pair@HV?$vector@NV?$allocator@N@std@@@std@@@std@@@2@@std@@AEAAPEAU?$pair@HV?$vector@NV?$allocator@N@std@@@std@@@1@QEAU21@AEAH$$QEAV?$vector@NV?$allocator@N@std@@@1@@Z 000000018004004c     priorityqueue_api.obj
 0002:0000305c       $cppxdata$??$_Emplace_reallocate@AEAHV?$vector@NV?$allocator@N@std@@@std@@@?$vector@U?$pair@HV?$vector@NV?$allocator@N@std@@@std@@@std@@V?$allocator@U?$pair@HV?$vector@NV?$allocator@N@std@@@std@@@std@@@2@@std@@AEAAPEAU?$pair@HV?$vector@NV?$allocator@N@std@@@std@@@1@QEAU21@AEAH$$QEAV?$vector@NV?$allocator@N@std@@@1@@Z 000000018004005c     priorityqueue_api.obj
 0002:00003069       $stateUnwindMap$??$_Emplace_reallocate@AEAHV?$vector@NV?$allocator@N@std@@@std@@@?$vector@U?$pair@HV?$vector@NV?$allocator@N@std@@@std@@@std@@V?$allocator@U?$pair@HV?$vector@NV?$allocator@N@std@@@std@@@std@@@2@@std@@AEAAPEAU?$pair@HV?$vector@NV?$allocator@N@std@@@std@@@1@QEAU21@AEAH$$QEAV?$vector@NV?$allocator@N@std@@@1@@Z 0000000180040069     priorityqueue_api.obj
 0002:0000306c       $tryMap$??$_Emplace_reallocate@AEAHV?$vector@NV?$allocator@N@std@@@std@@@?$vector@U?$pair@HV?$vector@NV?$allocator@N@std@@@std@@@std@@V?$allocator@U?$pair@HV?$vector@NV?$allocator@N@std@@@std@@@std@@@2@@std@@AEAAPEAU?$pair@HV?$vector@NV?$allocator@N@std@@@std@@@1@QEAU21@AEAH$$QEAV?$vector@NV?$allocator@N@std@@@1@@Z 000000018004006c     priorityqueue_api.obj
 0002:00003074       $handlerMap$??$_Emplace_reallocate@AEAHV?$vector@NV?$allocator@N@std@@@std@@@?$vector@U?$pair@HV?$vector@NV?$allocator@N@std@@@std@@@std@@V?$allocator@U?$pair@HV?$vector@NV?$allocator@N@std@@@std@@@std@@@2@@std@@AEAAPEAU?$pair@HV?$vector@NV?$allocator@N@std@@@std@@@1@QEAU21@AEAH$$QEAV?$vector@NV?$allocator@N@std@@@1@@Z 0000000180040074     priorityqueue_api.obj
 0002:0000307b       $ip2state$??$_Emplace_reallocate@AEAHV?$vector@NV?$allocator@N@std@@@std@@@?$vector@U?$pair@HV?$vector@NV?$allocator@N@std@@@std@@@std@@V?$allocator@U?$pair@HV?$vector@NV?$allocator@N@std@@@std@@@std@@@2@@std@@AEAAPEAU?$pair@HV?$vector@NV?$allocator@N@std@@@std@@@1@QEAU21@AEAH$$QEAV?$vector@NV?$allocator@N@std@@@1@@Z 000000018004007b     priorityqueue_api.obj
 0002:00003084       $unwind$?catch$0@?0???$_Emplace_reallocate@AEAHV?$vector@NV?$allocator@N@std@@@std@@@?$vector@U?$pair@HV?$vector@NV?$allocator@N@std@@@std@@@std@@V?$allocator@U?$pair@HV?$vector@NV?$allocator@N@std@@@std@@@std@@@2@@std@@AEAAPEAU?$pair@HV?$vector@NV?$allocator@N@std@@@std@@@1@QEAU21@AEAH$$QEAV?$vector@NV?$allocator@N@std@@@1@@Z@4HA 0000000180040084     priorityqueue_api.obj
 0002:0000308c       $unwind$??$_Push_heap_by_index@PEAU?$pair@HV?$vector@NV?$allocator@N@std@@@std@@@std@@U12@Ucomparator@PriorityQueueImpl@nav@@@std@@YAXPEAU?$pair@HV?$vector@NV?$allocator@N@std@@@std@@@0@_J1$$QEAU10@Ucomparator@PriorityQueueImpl@nav@@@Z 000000018004008c     priorityqueue_api.obj
 0002:00003094       $unwind$??$_Pop_heap_hole_unchecked@PEAU?$pair@HV?$vector@NV?$allocator@N@std@@@std@@@std@@U12@Ucomparator@PriorityQueueImpl@nav@@@std@@YAXPEAU?$pair@HV?$vector@NV?$allocator@N@std@@@std@@@0@00$$QEAU10@Ucomparator@PriorityQueueImpl@nav@@@Z 0000000180040094     priorityqueue_api.obj
 0002:0000309c       $unwind$??$construct@V?$vector@NV?$allocator@N@std@@@std@@AEBV12@@?$_Default_allocator_traits@V?$allocator@V?$vector@NV?$allocator@N@std@@@std@@@std@@@std@@SAXAEAV?$allocator@V?$vector@NV?$allocator@N@std@@@std@@@1@QEAV?$vector@NV?$allocator@N@std@@@1@AEBV31@@Z 000000018004009c     priorityqueue_api.obj
 0002:000030a4       $unwind$??$?0AEBH$0A@@?$tuple@AEBH@std@@QEAA@AEBH@Z 00000001800400a4     priorityqueue_api.obj
 0002:000030b4       $cppxdata$??$?0AEBH$0A@@?$tuple@AEBH@std@@QEAA@AEBH@Z 00000001800400b4     priorityqueue_api.obj
 0002:000030b9       $ip2state$??$?0AEBH$0A@@?$tuple@AEBH@std@@QEAA@AEBH@Z 00000001800400b9     priorityqueue_api.obj
 0002:000030bc       $unwind$??$construct@U?$pair@$$CBHH@std@@AEBUpiecewise_construct_t@2@V?$tuple@AEBH@2@V?$tuple@$$V@2@@?$_Default_allocator_traits@V?$allocator@U?$_List_node@U?$pair@$$CBHH@std@@PEAX@std@@@std@@@std@@SAXAEAV?$allocator@U?$_List_node@U?$pair@$$CBHH@std@@PEAX@std@@@1@QEAU?$pair@$$CBHH@1@AEBUpiecewise_construct_t@1@$$QEAV?$tuple@AEBH@1@$$QEAV?$tuple@$$V@1@@Z 00000001800400bc     priorityqueue_api.obj
 0002:000030c4       $unwind$??$_Copy_memmove@PEANPEAN@std@@YAPEANPEAN00@Z 00000001800400c4     priorityqueue_api.obj
 0002:000030cc       $unwind$??1?$_Uninitialized_backout_al@V?$allocator@N@std@@@std@@QEAA@XZ 00000001800400cc     priorityqueue_api.obj
 0002:000030d4       $unwind$??$_Emplace_back@AEAN@?$_Uninitialized_backout_al@V?$allocator@N@std@@@std@@QEAAXAEAN@Z 00000001800400d4     priorityqueue_api.obj
 0002:000030dc       $unwind$??$_Is_all_bits_zero@N@std@@YA_NAEBN@Z 00000001800400dc     priorityqueue_api.obj
 0002:000030e4       $unwind$??$_Fill_zero_memset@PEAN@std@@YAXPEAN_K@Z 00000001800400e4     priorityqueue_api.obj
 0002:000030ec       $unwind$??$_Emplace_back@AEBN@?$_Uninitialized_backout_al@V?$allocator@N@std@@@std@@QEAAXAEBN@Z 00000001800400ec     priorityqueue_api.obj
 0002:000030f4       $unwind$??$construct@U?$pair@$$CBHV?$vector@NV?$allocator@N@std@@@std@@@std@@AEBUpiecewise_construct_t@2@V?$tuple@AEBH@2@V?$tuple@$$V@2@@?$_Default_allocator_traits@V?$allocator@U?$_List_node@U?$pair@$$CBHV?$vector@NV?$allocator@N@std@@@std@@@std@@PEAX@std@@@std@@@std@@SAXAEAV?$allocator@U?$_List_node@U?$pair@$$CBHV?$vector@NV?$allocator@N@std@@@std@@@std@@PEAX@std@@@1@QEAU?$pair@$$CBHV?$vector@NV?$allocator@N@std@@@std@@@1@AEBUpiecewise_construct_t@1@$$QEAV?$tuple@AEBH@1@$$QEAV?$tuple@$$V@1@@Z 00000001800400f4     priorityqueue_api.obj
 0002:000030fc       $unwind$??$_Construct_in_place@V?$_List_unchecked_iterator@V?$_List_val@U?$_List_simple_types@U?$pair@$$CBHH@std@@@std@@@std@@@std@@AEBV12@@std@@YAXAEAV?$_List_unchecked_iterator@V?$_List_val@U?$_List_simple_types@U?$pair@$$CBHH@std@@@std@@@std@@@0@AEBV10@@Z 00000001800400fc     priorityqueue_api.obj
 0002:00003104       $unwind$??$_Construct_in_place@V?$_List_unchecked_iterator@V?$_List_val@U?$_List_simple_types@U?$pair@$$CBHV?$vector@NV?$allocator@N@std@@@std@@@std@@@std@@@std@@@std@@AEBV12@@std@@YAXAEAV?$_List_unchecked_iterator@V?$_List_val@U?$_List_simple_types@U?$pair@$$CBHV?$vector@NV?$allocator@N@std@@@std@@@std@@@std@@@std@@@0@AEBV10@@Z 0000000180040104     priorityqueue_api.obj
 0002:0000310c       $unwind$??$_Fnv1a_append_value@H@std@@YA_K_KAEBH@Z 000000018004010c     priorityqueue_api.obj
 0002:00003114       $unwind$??$_Copy_memmove@PEBNPEAN@std@@YAPEANPEBN0PEAN@Z 0000000180040114     priorityqueue_api.obj
 0002:0000311c       $unwind$??1?$_Uninitialized_backout_al@V?$allocator@V?$vector@NV?$allocator@N@std@@@std@@@std@@@std@@QEAA@XZ 000000018004011c     priorityqueue_api.obj
 0002:00003124       $unwind$??$_Emplace_back@V?$vector@NV?$allocator@N@std@@@std@@@?$_Uninitialized_backout_al@V?$allocator@V?$vector@NV?$allocator@N@std@@@std@@@std@@@std@@QEAAX$$QEAV?$vector@NV?$allocator@N@std@@@1@@Z 0000000180040124     priorityqueue_api.obj
 0002:0000312c       $unwind$??$?0AEAHV?$vector@NV?$allocator@N@std@@@std@@$0A@@?$pair@HV?$vector@NV?$allocator@N@std@@@std@@@std@@QEAA@AEAH$$QEAV?$vector@NV?$allocator@N@std@@@1@@Z 000000018004012c     priorityqueue_api.obj
 0002:00003134       $unwind$??$_Construct_in_place@U?$pair@HV?$vector@NV?$allocator@N@std@@@std@@@std@@AEAHV?$vector@NV?$allocator@N@std@@@2@@std@@YAXAEAU?$pair@HV?$vector@NV?$allocator@N@std@@@std@@@0@AEAH$$QEAV?$vector@NV?$allocator@N@std@@@0@@Z 0000000180040134     priorityqueue_api.obj
 0002:0000313c       $unwind$??$_Allocate_at_least_helper@V?$allocator@U?$pair@HV?$vector@NV?$allocator@N@std@@@std@@@std@@@std@@@std@@YAPEAU?$pair@HV?$vector@NV?$allocator@N@std@@@std@@@0@AEAV?$allocator@U?$pair@HV?$vector@NV?$allocator@N@std@@@std@@@std@@@0@AEA_K@Z 000000018004013c     priorityqueue_api.obj
 0002:00003144       $unwind$??$construct@U?$pair@HV?$vector@NV?$allocator@N@std@@@std@@@std@@AEAHV?$vector@NV?$allocator@N@std@@@2@@?$_Default_allocator_traits@V?$allocator@U?$pair@HV?$vector@NV?$allocator@N@std@@@std@@@std@@@std@@@std@@SAXAEAV?$allocator@U?$pair@HV?$vector@NV?$allocator@N@std@@@std@@@std@@@1@QEAU?$pair@HV?$vector@NV?$allocator@N@std@@@std@@@1@AEAH$$QEAV?$vector@NV?$allocator@N@std@@@1@@Z 0000000180040144     priorityqueue_api.obj
 0002:0000314c       $unwind$??$_Uninitialized_move@PEAU?$pair@HV?$vector@NV?$allocator@N@std@@@std@@@std@@V?$allocator@U?$pair@HV?$vector@NV?$allocator@N@std@@@std@@@std@@@2@@std@@YAPEAU?$pair@HV?$vector@NV?$allocator@N@std@@@std@@@0@QEAU10@0PEAU10@AEAV?$allocator@U?$pair@HV?$vector@NV?$allocator@N@std@@@std@@@std@@@0@@Z 000000018004014c     priorityqueue_api.obj
 0002:0000315c       $cppxdata$??$_Uninitialized_move@PEAU?$pair@HV?$vector@NV?$allocator@N@std@@@std@@@std@@V?$allocator@U?$pair@HV?$vector@NV?$allocator@N@std@@@std@@@std@@@2@@std@@YAPEAU?$pair@HV?$vector@NV?$allocator@N@std@@@std@@@0@QEAU10@0PEAU10@AEAV?$allocator@U?$pair@HV?$vector@NV?$allocator@N@std@@@std@@@std@@@0@@Z 000000018004015c     priorityqueue_api.obj
 0002:00003165       $stateUnwindMap$??$_Uninitialized_move@PEAU?$pair@HV?$vector@NV?$allocator@N@std@@@std@@@std@@V?$allocator@U?$pair@HV?$vector@NV?$allocator@N@std@@@std@@@std@@@2@@std@@YAPEAU?$pair@HV?$vector@NV?$allocator@N@std@@@std@@@0@QEAU10@0PEAU10@AEAV?$allocator@U?$pair@HV?$vector@NV?$allocator@N@std@@@std@@@std@@@0@@Z 0000000180040165     priorityqueue_api.obj
 0002:0000316b       $ip2state$??$_Uninitialized_move@PEAU?$pair@HV?$vector@NV?$allocator@N@std@@@std@@@std@@V?$allocator@U?$pair@HV?$vector@NV?$allocator@N@std@@@std@@@std@@@2@@std@@YAPEAU?$pair@HV?$vector@NV?$allocator@N@std@@@std@@@0@QEAU10@0PEAU10@AEAV?$allocator@U?$pair@HV?$vector@NV?$allocator@N@std@@@std@@@std@@@0@@Z 000000018004016b     priorityqueue_api.obj
 0002:00003174       $unwind$?dtor$0@?0???$_Uninitialized_move@PEAU?$pair@HV?$vector@NV?$allocator@N@std@@@std@@@std@@V?$allocator@U?$pair@HV?$vector@NV?$allocator@N@std@@@std@@@std@@@2@@std@@YAPEAU?$pair@HV?$vector@NV?$allocator@N@std@@@std@@@0@QEAU10@0PEAU10@AEAV?$allocator@U?$pair@HV?$vector@NV?$allocator@N@std@@@std@@@std@@@0@@Z@4HA 0000000180040174     priorityqueue_api.obj
 0002:0000317c       $unwind$??$?4U?$pair@HV?$vector@NV?$allocator@N@std@@@std@@@std@@$0A@@?$pair@HV?$vector@NV?$allocator@N@std@@@std@@@std@@QEAAAEAU01@$$QEAU01@@Z 000000018004017c     priorityqueue_api.obj
 0002:00003184       $unwind$??$_Pop_heap_hole_by_index@PEAU?$pair@HV?$vector@NV?$allocator@N@std@@@std@@@std@@U12@Ucomparator@PriorityQueueImpl@nav@@@std@@YAXPEAU?$pair@HV?$vector@NV?$allocator@N@std@@@std@@@0@_J1$$QEAU10@Ucomparator@PriorityQueueImpl@nav@@@Z 0000000180040184     priorityqueue_api.obj
 0002:0000318c       $unwind$??$?0U_Exact_args_t@std@@AEBH$$V$0A@@?$tuple@AEBH@std@@QEAA@U_Exact_args_t@1@AEBH@Z 000000018004018c     priorityqueue_api.obj
 0002:00003194       $unwind$??$?0AEBH$$Z$$V@?$pair@$$CBHH@std@@QEAA@Upiecewise_construct_t@1@V?$tuple@AEBH@1@V?$tuple@$$V@1@@Z 0000000180040194     priorityqueue_api.obj
 0002:0000319c       $unwind$??$construct@NAEAN@?$_Default_allocator_traits@V?$allocator@N@std@@@std@@SAXAEAV?$allocator@N@1@QEANAEAN@Z 000000018004019c     priorityqueue_api.obj
 0002:000031a4       $unwind$??$construct@NAEBN@?$_Default_allocator_traits@V?$allocator@N@std@@@std@@SAXAEAV?$allocator@N@1@QEANAEBN@Z 00000001800401a4     priorityqueue_api.obj
 0002:000031ac       $unwind$??$?0AEBH$$Z$$V@?$pair@$$CBHV?$vector@NV?$allocator@N@std@@@std@@@std@@QEAA@Upiecewise_construct_t@1@V?$tuple@AEBH@1@V?$tuple@$$V@1@@Z 00000001800401ac     priorityqueue_api.obj
 0002:000031b4       $unwind$??$construct@V?$vector@NV?$allocator@N@std@@@std@@V12@@?$_Default_allocator_traits@V?$allocator@V?$vector@NV?$allocator@N@std@@@std@@@std@@@std@@SAXAEAV?$allocator@V?$vector@NV?$allocator@N@std@@@std@@@1@QEAV?$vector@NV?$allocator@N@std@@@1@$$QEAV31@@Z 00000001800401b4     priorityqueue_api.obj
 0002:000031bc       $unwind$??1?$_Uninitialized_backout_al@V?$allocator@U?$pair@HV?$vector@NV?$allocator@N@std@@@std@@@std@@@std@@@std@@QEAA@XZ 00000001800401bc     priorityqueue_api.obj
 0002:000031c4       $unwind$??$_Emplace_back@U?$pair@HV?$vector@NV?$allocator@N@std@@@std@@@std@@@?$_Uninitialized_backout_al@V?$allocator@U?$pair@HV?$vector@NV?$allocator@N@std@@@std@@@std@@@std@@@std@@QEAAX$$QEAU?$pair@HV?$vector@NV?$allocator@N@std@@@std@@@1@@Z 00000001800401c4     priorityqueue_api.obj
 0002:000031cc       $unwind$??$?0AEBH@?$_Tuple_val@AEBH@std@@QEAA@AEBH@Z 00000001800401cc     priorityqueue_api.obj
 0002:000031d4       $unwind$??$?0V?$tuple@AEBH@std@@V?$tuple@$$V@1@$0A@$$Z$S@?$pair@$$CBHH@std@@QEAA@AEAV?$tuple@AEBH@1@AEAV?$tuple@$$V@1@U?$integer_sequence@_K$0A@@1@U?$integer_sequence@_K$S@1@@Z 00000001800401d4     priorityqueue_api.obj
 0002:000031dc       $unwind$??$?0V?$tuple@AEBH@std@@V?$tuple@$$V@1@$0A@$$Z$S@?$pair@$$CBHV?$vector@NV?$allocator@N@std@@@std@@@std@@QEAA@AEAV?$tuple@AEBH@1@AEAV?$tuple@$$V@1@U?$integer_sequence@_K$0A@@1@U?$integer_sequence@_K$S@1@@Z 00000001800401dc     priorityqueue_api.obj
 0002:000031e4       $unwind$??$_Get_size_of_n@$0CA@@std@@YA_K_K@Z 00000001800401e4     priorityqueue_api.obj
 0002:000031ec       $unwind$??$construct@U?$pair@HV?$vector@NV?$allocator@N@std@@@std@@@std@@U12@@?$_Default_allocator_traits@V?$allocator@U?$pair@HV?$vector@NV?$allocator@N@std@@@std@@@std@@@std@@@std@@SAXAEAV?$allocator@U?$pair@HV?$vector@NV?$allocator@N@std@@@std@@@std@@@1@QEAU?$pair@HV?$vector@NV?$allocator@N@std@@@std@@@1@$$QEAU31@@Z 00000001800401ec     priorityqueue_api.obj
 0002:000031f4       $unwind$??$?0$$V@?$_Compressed_pair@V?$allocator@N@std@@V?$_Vector_val@U?$_Simple_types@N@std@@@2@$00@std@@QEAA@U_Zero_then_variadic_args_t@1@@Z 00000001800401f4     priorityqueue_api.obj
 0002:000031fc       $unwind$getBitfieldFromFloat 00000001800401fc     half_type.obj
 0002:00003204       $unwind$getFloatFromBitfield 0000000180040204     half_type.obj
 0002:0000320c       $unwind$getHalfFromBitfield 000000018004020c     half_type.obj
 0002:00003214       $unwind$halfToFloat        0000000180040214     half_type.obj
 0002:0000321c       $unwind$halfToDouble       000000018004021c     half_type.obj
 0002:00003224       $unwind$floatToHalf        0000000180040224     half_type.obj
 0002:0000322c       $unwind$doubleToHalf       000000018004022c     half_type.obj
 0002:00003234       $unwind$__report_securityfailure 0000000180040234     MSVCRT:gs_report.obj
 0002:0000323c       $unwind$__report_securityfailureEx 000000018004023c     MSVCRT:gs_report.obj
 0002:00003244       $unwind$__report_rangecheckfailure 0000000180040244     MSVCRT:gs_report.obj
 0002:0000324c       $unwind$__report_gsfailure 000000018004024c     MSVCRT:gs_report.obj
 0002:00003254       $unwind$capture_current_context 0000000180040254     MSVCRT:gs_report.obj
 0002:00003260       $unwind$capture_previous_context 0000000180040260     MSVCRT:gs_report.obj
 0002:0000326c       $unwind$__raise_securityfailure 000000018004026c     MSVCRT:gs_report.obj
 0002:00003274       $unwind$__GSHandlerCheckCommon 0000000180040274     MSVCRT:gshandler.obj
 0002:0000327c       $unwind$__GSHandlerCheck   000000018004027c     MSVCRT:gshandler.obj
 0002:00003288       $xdatasym                  0000000180040288     MSVCRT:amdsecgs.obj
 0002:00003290       $xdatasym                  0000000180040290     MSVCRT:chkstk.obj
 0002:00003298       $unwind$??2@YAPEAX_K@Z     0000000180040298     MSVCRT:new_scalar.obj
 0002:000032a0       $unwind$??_Gtype_info@@UEAAPEAXI@Z 00000001800402a0     MSVCRT:std_type_info_static.obj
 0002:000032a8       $unwind$?dllmain_crt_process_attach@@YAHQEAUHINSTANCE__@@QEAX@Z 00000001800402a8     MSVCRT:dll_dllmain.obj
 0002:000032e4       $unwind$?fin$0@?0??dllmain_crt_process_attach@@YAHQEAUHINSTANCE__@@QEAX@Z@4HA 00000001800402e4     MSVCRT:dll_dllmain.obj
 0002:000032ec       $unwind$?dllmain_crt_process_detach@@YAH_N@Z 00000001800402ec     MSVCRT:dll_dllmain.obj
 0002:00003340       $unwind$?fin$0@?0??dllmain_crt_process_detach@@YAH_N@Z@4HA 0000000180040340     MSVCRT:dll_dllmain.obj
 0002:00003348       $unwind$?fin$1@?0??dllmain_crt_process_detach@@YAH_N@Z@4HA 0000000180040348     MSVCRT:dll_dllmain.obj
 0002:00003350       $unwind$?dllmain_crt_dispatch@@YAHQEAUHINSTANCE__@@KQEAX@Z 0000000180040350     MSVCRT:dll_dllmain.obj
 0002:00003358       $unwind$?dllmain_dispatch@@YAHQEAUHINSTANCE__@@KQEAX@Z 0000000180040358     MSVCRT:dll_dllmain.obj
 0002:00003380       $unwind$?filt$0@?0??dllmain_dispatch@@YAHQEAUHINSTANCE__@@KQEAX@Z@4HA 0000000180040380     MSVCRT:dll_dllmain.obj
 0002:00003388       $unwind$_DllMainCRTStartup 0000000180040388     MSVCRT:dll_dllmain.obj
 0002:00003398       $unwind$?__scrt_throw_std_bad_alloc@@YAXXZ 0000000180040398     MSVCRT:throw_bad_alloc.obj
 0002:000033a0       $unwind$?__scrt_throw_std_bad_array_new_length@@YAXXZ 00000001800403a0     MSVCRT:throw_bad_alloc.obj
 0002:000033a8       $unwind$__security_init_cookie 00000001800403a8     MSVCRT:gs_support.obj
 0002:000033b4       $unwind$__get_entropy      00000001800403b4     MSVCRT:gs_support.obj
 0002:000033bc       $unwind$DllMain            00000001800403bc     MSVCRT:dll_dllmain_stub.obj
 0002:000033c4       $unwind$__scrt_initialize_default_local_stdio_options 00000001800403c4     MSVCRT:default_local_stdio_options.obj
 0002:000033cc       $unwind$atexit             00000001800403cc     MSVCRT:utility.obj
 0002:000033d4       $unwind$_onexit            00000001800403d4     MSVCRT:utility.obj
 0002:000033dc       $unwind$__scrt_is_nonwritable_in_current_image 00000001800403dc     MSVCRT:utility.obj
 0002:000033fc       $unwind$__scrt_is_nonwritable_in_current_image$filt$0 00000001800403fc     MSVCRT:utility.obj
 0002:00003404       $unwind$__scrt_acquire_startup_lock 0000000180040404     MSVCRT:utility.obj
 0002:0000340c       $unwind$__scrt_release_startup_lock 000000018004040c     MSVCRT:utility.obj
 0002:00003414       $unwind$__scrt_initialize_crt 0000000180040414     MSVCRT:utility.obj
 0002:0000341c       $unwind$__scrt_uninitialize_crt 000000018004041c     MSVCRT:utility.obj
 0002:00003424       $unwind$__scrt_initialize_onexit_tables 0000000180040424     MSVCRT:utility.obj
 0002:0000342c       $unwind$__scrt_dllmain_exception_filter 000000018004042c     MSVCRT:utility.obj
 0002:00003440       $unwind$__scrt_dllmain_before_initialize_c 0000000180040440     MSVCRT:utility.obj
 0002:00003448       $unwind$__scrt_dllmain_after_initialize_c 0000000180040448     MSVCRT:utility.obj
 0002:00003450       $unwind$__scrt_dllmain_uninitialize_c 0000000180040450     MSVCRT:utility.obj
 0002:00003458       $unwind$__scrt_dllmain_uninitialize_critical 0000000180040458     MSVCRT:utility.obj
 0002:00003460       $unwind$__scrt_dllmain_crt_thread_attach 0000000180040460     MSVCRT:utility.obj
 0002:00003468       $unwind$__scrt_dllmain_crt_thread_detach 0000000180040468     MSVCRT:utility.obj
 0002:00003470       $unwind$?configure_argv@__scrt_narrow_argv_policy@@SAHXZ 0000000180040470     MSVCRT:utility.obj
 0002:00003478       $unwind$__scrt_get_show_window_mode 0000000180040478     MSVCRT:utility_desktop.obj
 0002:00003480       $unwind$__scrt_is_managed_app 0000000180040480     MSVCRT:utility_desktop.obj
 0002:00003488       $unwind$__scrt_fastfail    0000000180040488     MSVCRT:utility_desktop.obj
 0002:00003498       $unwind$__scrt_unhandled_exception_filter 0000000180040498     MSVCRT:utility_desktop.obj
 0002:000034a4       $unwind$_RTC_Initialize    00000001800404a4     MSVCRT:initsect.obj
 0002:000034b0       $unwind$_RTC_Terminate     00000001800404b0     MSVCRT:initsect.obj
 0002:000034bc       $unwind$__castguard_check_failure_os_handled_wrapper 00000001800404bc     MSVCRT:guard_support.obj
 0002:000034c4       $unwind$__castguard_check_failure_user_handled_wrapper 00000001800404c4     MSVCRT:guard_support.obj
 0002:000034cc       $unwind$__castguard_check_failure_os_handled 00000001800404cc     MSVCRT:guard_support.obj
 0002:000034d4       $unwind$__castguard_check_failure_user_handled 00000001800404d4     MSVCRT:guard_support.obj
 0002:000034dc       $unwind$__castguard_slow_path_check_os_handled 00000001800404dc     MSVCRT:guard_support.obj
 0002:000034e4       $unwind$__castguard_slow_path_check_user_handled 00000001800404e4     MSVCRT:guard_support.obj
 0002:000034ec       $unwind$__isa_available_init 00000001800404ec     MSVCRT:cpu_disp.obj
 0002:00003500       $xdatasym                  0000000180040500     MSVCRT:guard_dispatch.obj
 0002:00003508       $xdatasym                  0000000180040508     MSVCRT:guard_xfg_dispatch.obj
 0002:00003600       .edata                     0000000180040600     sl_groundvehicleDynamics_sfun.exp
 0002:00003628       rgpv                       0000000180040628     sl_groundvehicleDynamics_sfun.exp
 0002:00003630       rgszName                   0000000180040630     sl_groundvehicleDynamics_sfun.exp
 0002:00003638       rgwOrd                     0000000180040638     sl_groundvehicleDynamics_sfun.exp
 0002:0000363c       szName                     000000018004063c     sl_groundvehicleDynamics_sfun.exp
 0002:00003661       $N00001                    0000000180040661     sl_groundvehicleDynamics_sfun.exp
 0002:0000366d       $N00002                    000000018004066d     sl_groundvehicleDynamics_sfun.exp
 0002:0000421e       .idata$6                   000000018004121e     sf_runtime:sf_runtime.dll
 0002:000043d8       .idata$6                   00000001800413d8     libmx:libmx.dll
 0002:0000446c       .idata$6                   000000018004146c     libmex:libmex.dll
 0002:0000448e       .idata$6                   000000018004148e     libut:libut.dll
 0002:0000456e       .idata$6                   000000018004156e     libmwmathutil:libmwmathutil.dll
 0002:00004740       .idata$6                   0000000180041740     libemlrt:libemlrt.dll
 0002:000048be       .idata$6                   00000001800418be     libcovrt:libcovrt.dll
 0002:000048ee       .idata$6                   00000001800418ee     msvcprt:MSVCP140.dll
 0002:00004a88       .idata$6                   0000000180041a88     kernel32:KERNEL32.dll
 0002:00004b88       .idata$6                   0000000180041b88     vcruntime:VCRUNTIME140.dll
 0002:00004b9a       .idata$6                   0000000180041b9a     vcruntime:VCRUNTIME140_1.dll
 0002:00004d40       .idata$6                   0000000180041d40     ucrt:api-ms-win-crt-string-l1-1-0.dll
 0002:00004d62       .idata$6                   0000000180041d62     ucrt:api-ms-win-crt-math-l1-1-0.dll
 0002:00004d82       .idata$6                   0000000180041d82     ucrt:api-ms-win-crt-stdio-l1-1-0.dll
 0002:00004da2       .idata$6                   0000000180041da2     ucrt:api-ms-win-crt-heap-l1-1-0.dll
 0002:00004dc2       .idata$6                   0000000180041dc2     ucrt:api-ms-win-crt-runtime-l1-1-0.dll
 0003:00000000       $SG21368                   0000000180042000     sl_groundvehicleDynamics_sfun.obj
 0003:00000018       $SG21373                   0000000180042018     sl_groundvehicleDynamics_sfun.obj
 0003:00000020       $SG21376                   0000000180042020     sl_groundvehicleDynamics_sfun.obj
 0003:00000028       $SG21381                   0000000180042028     sl_groundvehicleDynamics_sfun.obj
 0003:00000030       $SG21407                   0000000180042030     sl_groundvehicleDynamics_sfun.obj
 0003:00000050       $SG21410                   0000000180042050     sl_groundvehicleDynamics_sfun.obj
 0003:00000068       $SG21435                   0000000180042068     sl_groundvehicleDynamics_sfun.obj
 0003:00000088       $SG21438                   0000000180042088     sl_groundvehicleDynamics_sfun.obj
 0003:000000a0       $SG21463                   00000001800420a0     sl_groundvehicleDynamics_sfun.obj
 0003:000000b8       $SG21466                   00000001800420b8     sl_groundvehicleDynamics_sfun.obj
 0003:000000d0       $SG21492                   00000001800420d0     sl_groundvehicleDynamics_sfun.obj
 0003:000000e8       $SG21495                   00000001800420e8     sl_groundvehicleDynamics_sfun.obj
 0003:00000100       $SG21520                   0000000180042100     sl_groundvehicleDynamics_sfun.obj
 0003:00000120       $SG21523                   0000000180042120     sl_groundvehicleDynamics_sfun.obj
 0003:00000138       $SG21542                   0000000180042138     sl_groundvehicleDynamics_sfun.obj
 0003:00000158       $SG21543                   0000000180042158     sl_groundvehicleDynamics_sfun.obj
 0003:00000180       $SG21308                   0000000180042180     c5_sl_groundvehicleDynamics.obj
 0003:000001a0       $SG21309                   00000001800421a0     c5_sl_groundvehicleDynamics.obj
 0003:00000200       $SG21311                   0000000180042200     c5_sl_groundvehicleDynamics.obj
 0003:00000210       $SG21312                   0000000180042210     c5_sl_groundvehicleDynamics.obj
 0003:00000258       $SG21314                   0000000180042258     c5_sl_groundvehicleDynamics.obj
 0003:00000260       $SG21315                   0000000180042260     c5_sl_groundvehicleDynamics.obj
 0003:000002a8       $SG21317                   00000001800422a8     c5_sl_groundvehicleDynamics.obj
 0003:000002b0       $SG21318                   00000001800422b0     c5_sl_groundvehicleDynamics.obj
 0003:00000300       $SG21320                   0000000180042300     c5_sl_groundvehicleDynamics.obj
 0003:00000308       $SG21383                   0000000180042308     c5_sl_groundvehicleDynamics.obj
 0003:00000310       $SG21321                   0000000180042310     c5_sl_groundvehicleDynamics.obj
 0003:00000360       $SG21323                   0000000180042360     c5_sl_groundvehicleDynamics.obj
 0003:00000368       $SG21911                   0000000180042368     c5_sl_groundvehicleDynamics.obj
 0003:00000370       $SG21324                   0000000180042370     c5_sl_groundvehicleDynamics.obj
 0003:000003c0       $SG21326                   00000001800423c0     c5_sl_groundvehicleDynamics.obj
 0003:000003e0       $SG21327                   00000001800423e0     c5_sl_groundvehicleDynamics.obj
 0003:00000428       $SG21329                   0000000180042428     c5_sl_groundvehicleDynamics.obj
 0003:00000440       $SG21330                   0000000180042440     c5_sl_groundvehicleDynamics.obj
 0003:00000488       $SG21332                   0000000180042488     c5_sl_groundvehicleDynamics.obj
 0003:000004a0       $SG21333                   00000001800424a0     c5_sl_groundvehicleDynamics.obj
 0003:000004e8       $SG21335                   00000001800424e8     c5_sl_groundvehicleDynamics.obj
 0003:00000500       $SG21336                   0000000180042500     c5_sl_groundvehicleDynamics.obj
 0003:00000560       $SG21338                   0000000180042560     c5_sl_groundvehicleDynamics.obj
 0003:00000570       $SG21339                   0000000180042570     c5_sl_groundvehicleDynamics.obj
 0003:000005d0       $SG21341                   00000001800425d0     c5_sl_groundvehicleDynamics.obj
 0003:000005e0       $SG21342                   00000001800425e0     c5_sl_groundvehicleDynamics.obj
 0003:00000638       $SG21344                   0000000180042638     c5_sl_groundvehicleDynamics.obj
 0003:00000650       $SG21345                   0000000180042650     c5_sl_groundvehicleDynamics.obj
 0003:00000698       $SG21347                   0000000180042698     c5_sl_groundvehicleDynamics.obj
 0003:000006b0       $SG21348                   00000001800426b0     c5_sl_groundvehicleDynamics.obj
 0003:000006f8       $SG21350                   00000001800426f8     c5_sl_groundvehicleDynamics.obj
 0003:00000710       $SG21351                   0000000180042710     c5_sl_groundvehicleDynamics.obj
 0003:00000758       $SG21353                   0000000180042758     c5_sl_groundvehicleDynamics.obj
 0003:00000770       $SG21354                   0000000180042770     c5_sl_groundvehicleDynamics.obj
 0003:000007d0       $SG21356                   00000001800427d0     c5_sl_groundvehicleDynamics.obj
 0003:000007f0       $SG21357                   00000001800427f0     c5_sl_groundvehicleDynamics.obj
 0003:00000858       $SG21359                   0000000180042858     c5_sl_groundvehicleDynamics.obj
 0003:00000860       $SG21360                   0000000180042860     c5_sl_groundvehicleDynamics.obj
 0003:000008a8       $SG21362                   00000001800428a8     c5_sl_groundvehicleDynamics.obj
 0003:000008c0       $SG21363                   00000001800428c0     c5_sl_groundvehicleDynamics.obj
 0003:00000928       $SG21365                   0000000180042928     c5_sl_groundvehicleDynamics.obj
 0003:00000940       $SG21366                   0000000180042940     c5_sl_groundvehicleDynamics.obj
 0003:000009a8       $SG21368                   00000001800429a8     c5_sl_groundvehicleDynamics.obj
 0003:000009c0       $SG21369                   00000001800429c0     c5_sl_groundvehicleDynamics.obj
 0003:00000a28       $SG21371                   0000000180042a28     c5_sl_groundvehicleDynamics.obj
 0003:00000a40       $SG21372                   0000000180042a40     c5_sl_groundvehicleDynamics.obj
 0003:00000a98       $SG21374                   0000000180042a98     c5_sl_groundvehicleDynamics.obj
 0003:00000ab0       $SG21375                   0000000180042ab0     c5_sl_groundvehicleDynamics.obj
 0003:00000af8       $SG21377                   0000000180042af8     c5_sl_groundvehicleDynamics.obj
 0003:00000b10       $SG21378                   0000000180042b10     c5_sl_groundvehicleDynamics.obj
 0003:00000b58       $SG21380                   0000000180042b58     c5_sl_groundvehicleDynamics.obj
 0003:00000b70       $SG21381                   0000000180042b70     c5_sl_groundvehicleDynamics.obj
 0003:00000bd0       $SG21384                   0000000180042bd0     c5_sl_groundvehicleDynamics.obj
 0003:00000c18       $SG21386                   0000000180042c18     c5_sl_groundvehicleDynamics.obj
 0003:00000c30       $SG21387                   0000000180042c30     c5_sl_groundvehicleDynamics.obj
 0003:00000c90       $SG21389                   0000000180042c90     c5_sl_groundvehicleDynamics.obj
 0003:00000cb8       $SG21390                   0000000180042cb8     c5_sl_groundvehicleDynamics.obj
 0003:00000cd8       $SG21392                   0000000180042cd8     c5_sl_groundvehicleDynamics.obj
 0003:00000d00       $SG21393                   0000000180042d00     c5_sl_groundvehicleDynamics.obj
 0003:00000d20       $SG21395                   0000000180042d20     c5_sl_groundvehicleDynamics.obj
 0003:00000d48       $SG21396                   0000000180042d48     c5_sl_groundvehicleDynamics.obj
 0003:00000d68       $SG21398                   0000000180042d68     c5_sl_groundvehicleDynamics.obj
 0003:00000d90       $SG21399                   0000000180042d90     c5_sl_groundvehicleDynamics.obj
 0003:00000db0       $SG21401                   0000000180042db0     c5_sl_groundvehicleDynamics.obj
 0003:00000dd8       $SG21402                   0000000180042dd8     c5_sl_groundvehicleDynamics.obj
 0003:00000df8       $SG21404                   0000000180042df8     c5_sl_groundvehicleDynamics.obj
 0003:00000e20       $SG21405                   0000000180042e20     c5_sl_groundvehicleDynamics.obj
 0003:00000e40       $SG21407                   0000000180042e40     c5_sl_groundvehicleDynamics.obj
 0003:00000e68       $SG21408                   0000000180042e68     c5_sl_groundvehicleDynamics.obj
 0003:00000e88       $SG21410                   0000000180042e88     c5_sl_groundvehicleDynamics.obj
 0003:00000eb0       $SG21411                   0000000180042eb0     c5_sl_groundvehicleDynamics.obj
 0003:00000ed0       $SG21413                   0000000180042ed0     c5_sl_groundvehicleDynamics.obj
 0003:00000ef8       $SG21414                   0000000180042ef8     c5_sl_groundvehicleDynamics.obj
 0003:00000f18       $SG21416                   0000000180042f18     c5_sl_groundvehicleDynamics.obj
 0003:00000f40       $SG21417                   0000000180042f40     c5_sl_groundvehicleDynamics.obj
 0003:00000f60       $SG21419                   0000000180042f60     c5_sl_groundvehicleDynamics.obj
 0003:00000f70       $SG21420                   0000000180042f70     c5_sl_groundvehicleDynamics.obj
 0003:00000ff0       $SG21422                   0000000180042ff0     c5_sl_groundvehicleDynamics.obj
 0003:00001000       $SG21423                   0000000180043000     c5_sl_groundvehicleDynamics.obj
 0003:00001088       $SG21425                   0000000180043088     c5_sl_groundvehicleDynamics.obj
 0003:000010a0       $SG21426                   00000001800430a0     c5_sl_groundvehicleDynamics.obj
 0003:00001108       $SG21428                   0000000180043108     c5_sl_groundvehicleDynamics.obj
 0003:00001120       $SG21429                   0000000180043120     c5_sl_groundvehicleDynamics.obj
 0003:00001188       $SG21431                   0000000180043188     c5_sl_groundvehicleDynamics.obj
 0003:000011a0       $SG21432                   00000001800431a0     c5_sl_groundvehicleDynamics.obj
 0003:00001208       $SG21434                   0000000180043208     c5_sl_groundvehicleDynamics.obj
 0003:00001220       $SG21435                   0000000180043220     c5_sl_groundvehicleDynamics.obj
 0003:00001288       $SG21437                   0000000180043288     c5_sl_groundvehicleDynamics.obj
 0003:000012a0       $SG21438                   00000001800432a0     c5_sl_groundvehicleDynamics.obj
 0003:00001308       $SG21440                   0000000180043308     c5_sl_groundvehicleDynamics.obj
 0003:00001320       $SG21441                   0000000180043320     c5_sl_groundvehicleDynamics.obj
 0003:00001388       $SG21443                   0000000180043388     c5_sl_groundvehicleDynamics.obj
 0003:000013a0       $SG21444                   00000001800433a0     c5_sl_groundvehicleDynamics.obj
 0003:00001408       $SG21446                   0000000180043408     c5_sl_groundvehicleDynamics.obj
 0003:00001420       $SG21447                   0000000180043420     c5_sl_groundvehicleDynamics.obj
 0003:00001478       $SG21449                   0000000180043478     c5_sl_groundvehicleDynamics.obj
 0003:00001490       $SG21450                   0000000180043490     c5_sl_groundvehicleDynamics.obj
 0003:00001508       $SG21452                   0000000180043508     c5_sl_groundvehicleDynamics.obj
 0003:00001520       $SG21453                   0000000180043520     c5_sl_groundvehicleDynamics.obj
 0003:00001598       $SG21455                   0000000180043598     c5_sl_groundvehicleDynamics.obj
 0003:000015b0       $SG21456                   00000001800435b0     c5_sl_groundvehicleDynamics.obj
 0003:00001628       $SG21458                   0000000180043628     c5_sl_groundvehicleDynamics.obj
 0003:00001640       $SG21459                   0000000180043640     c5_sl_groundvehicleDynamics.obj
 0003:000016b8       $SG21461                   00000001800436b8     c5_sl_groundvehicleDynamics.obj
 0003:000016d0       $SG21462                   00000001800436d0     c5_sl_groundvehicleDynamics.obj
 0003:00001748       $SG21464                   0000000180043748     c5_sl_groundvehicleDynamics.obj
 0003:00001760       $SG21465                   0000000180043760     c5_sl_groundvehicleDynamics.obj
 0003:000017d8       $SG21467                   00000001800437d8     c5_sl_groundvehicleDynamics.obj
 0003:000017f0       $SG21468                   00000001800437f0     c5_sl_groundvehicleDynamics.obj
 0003:00001868       $SG21470                   0000000180043868     c5_sl_groundvehicleDynamics.obj
 0003:00001880       $SG21471                   0000000180043880     c5_sl_groundvehicleDynamics.obj
 0003:00001908       $SG21473                   0000000180043908     c5_sl_groundvehicleDynamics.obj
 0003:00001920       $SG21474                   0000000180043920     c5_sl_groundvehicleDynamics.obj
 0003:000019a0       $SG21476                   00000001800439a0     c5_sl_groundvehicleDynamics.obj
 0003:000019b0       $SG21477                   00000001800439b0     c5_sl_groundvehicleDynamics.obj
 0003:00001a30       $SG21479                   0000000180043a30     c5_sl_groundvehicleDynamics.obj
 0003:00001a50       $SG21480                   0000000180043a50     c5_sl_groundvehicleDynamics.obj
 0003:00001ad8       $SG21482                   0000000180043ad8     c5_sl_groundvehicleDynamics.obj
 0003:00001af0       $SG21483                   0000000180043af0     c5_sl_groundvehicleDynamics.obj
 0003:00001b70       $SG21485                   0000000180043b70     c5_sl_groundvehicleDynamics.obj
 0003:00001b90       $SG21486                   0000000180043b90     c5_sl_groundvehicleDynamics.obj
 0003:00001be8       $SG21488                   0000000180043be8     c5_sl_groundvehicleDynamics.obj
 0003:00001c00       $SG21489                   0000000180043c00     c5_sl_groundvehicleDynamics.obj
 0003:00001c58       $SG21491                   0000000180043c58     c5_sl_groundvehicleDynamics.obj
 0003:00001c70       $SG21492                   0000000180043c70     c5_sl_groundvehicleDynamics.obj
 0003:00001cc8       $SG21494                   0000000180043cc8     c5_sl_groundvehicleDynamics.obj
 0003:00001ce0       $SG21495                   0000000180043ce0     c5_sl_groundvehicleDynamics.obj
 0003:00001d58       $SG21497                   0000000180043d58     c5_sl_groundvehicleDynamics.obj
 0003:00001d70       $SG21498                   0000000180043d70     c5_sl_groundvehicleDynamics.obj
 0003:00001de8       $SG21500                   0000000180043de8     c5_sl_groundvehicleDynamics.obj
 0003:00001e00       $SG21501                   0000000180043e00     c5_sl_groundvehicleDynamics.obj
 0003:00001e58       $SG21503                   0000000180043e58     c5_sl_groundvehicleDynamics.obj
 0003:00001e70       $SG21504                   0000000180043e70     c5_sl_groundvehicleDynamics.obj
 0003:00001ec8       $SG21506                   0000000180043ec8     c5_sl_groundvehicleDynamics.obj
 0003:00001ee0       $SG21507                   0000000180043ee0     c5_sl_groundvehicleDynamics.obj
 0003:00001f38       $SG21509                   0000000180043f38     c5_sl_groundvehicleDynamics.obj
 0003:00001f50       $SG21510                   0000000180043f50     c5_sl_groundvehicleDynamics.obj
 0003:00001fc8       $SG21512                   0000000180043fc8     c5_sl_groundvehicleDynamics.obj
 0003:00001fe0       $SG21513                   0000000180043fe0     c5_sl_groundvehicleDynamics.obj
 0003:00002058       $SG21515                   0000000180044058     c5_sl_groundvehicleDynamics.obj
 0003:00002070       $SG21516                   0000000180044070     c5_sl_groundvehicleDynamics.obj
 0003:000020e8       $SG21518                   00000001800440e8     c5_sl_groundvehicleDynamics.obj
 0003:000020f0       $SG21519                   00000001800440f0     c5_sl_groundvehicleDynamics.obj
 0003:00002140       $SG21521                   0000000180044140     c5_sl_groundvehicleDynamics.obj
 0003:00002150       $SG21522                   0000000180044150     c5_sl_groundvehicleDynamics.obj
 0003:000021ac       $SG21524                   00000001800441ac     c5_sl_groundvehicleDynamics.obj
 0003:000021c0       $SG21525                   00000001800441c0     c5_sl_groundvehicleDynamics.obj
 0003:00002208       $SG21527                   0000000180044208     c5_sl_groundvehicleDynamics.obj
 0003:00002210       $SG21528                   0000000180044210     c5_sl_groundvehicleDynamics.obj
 0003:00002258       $SG21530                   0000000180044258     c5_sl_groundvehicleDynamics.obj
 0003:00002270       $SG21531                   0000000180044270     c5_sl_groundvehicleDynamics.obj
 0003:000022d8       $SG21533                   00000001800442d8     c5_sl_groundvehicleDynamics.obj
 0003:000022e0       $SG21534                   00000001800442e0     c5_sl_groundvehicleDynamics.obj
 0003:00002348       $SG21536                   0000000180044348     c5_sl_groundvehicleDynamics.obj
 0003:00002350       $SG21537                   0000000180044350     c5_sl_groundvehicleDynamics.obj
 0003:000023b8       $SG21539                   00000001800443b8     c5_sl_groundvehicleDynamics.obj
 0003:000023c0       $SG21540                   00000001800443c0     c5_sl_groundvehicleDynamics.obj
 0003:00002408       $SG21542                   0000000180044408     c5_sl_groundvehicleDynamics.obj
 0003:00002420       $SG21543                   0000000180044420     c5_sl_groundvehicleDynamics.obj
 0003:000024a0       $SG21545                   00000001800444a0     c5_sl_groundvehicleDynamics.obj
 0003:000024b0       $SG21546                   00000001800444b0     c5_sl_groundvehicleDynamics.obj
 0003:00002530       $SG21548                   0000000180044530     c5_sl_groundvehicleDynamics.obj
 0003:00002540       $SG21549                   0000000180044540     c5_sl_groundvehicleDynamics.obj
 0003:000025c0       $SG21551                   00000001800445c0     c5_sl_groundvehicleDynamics.obj
 0003:000025e0       $SG21552                   00000001800445e0     c5_sl_groundvehicleDynamics.obj
 0003:00002628       $SG21554                   0000000180044628     c5_sl_groundvehicleDynamics.obj
 0003:00002640       $SG21555                   0000000180044640     c5_sl_groundvehicleDynamics.obj
 0003:00002688       $SG21557                   0000000180044688     c5_sl_groundvehicleDynamics.obj
 0003:000026a0       $SG21558                   00000001800446a0     c5_sl_groundvehicleDynamics.obj
 0003:000026e8       $SG21560                   00000001800446e8     c5_sl_groundvehicleDynamics.obj
 0003:00002700       $SG21561                   0000000180044700     c5_sl_groundvehicleDynamics.obj
 0003:00002748       $SG21563                   0000000180044748     c5_sl_groundvehicleDynamics.obj
 0003:00002760       $SG21564                   0000000180044760     c5_sl_groundvehicleDynamics.obj
 0003:000027a8       $SG21566                   00000001800447a8     c5_sl_groundvehicleDynamics.obj
 0003:000027c0       $SG21567                   00000001800447c0     c5_sl_groundvehicleDynamics.obj
 0003:00002808       $SG21569                   0000000180044808     c5_sl_groundvehicleDynamics.obj
 0003:00002820       $SG21570                   0000000180044820     c5_sl_groundvehicleDynamics.obj
 0003:00002868       $SG21572                   0000000180044868     c5_sl_groundvehicleDynamics.obj
 0003:00002880       $SG21573                   0000000180044880     c5_sl_groundvehicleDynamics.obj
 0003:000028c8       $SG21575                   00000001800448c8     c5_sl_groundvehicleDynamics.obj
 0003:000028e0       $SG21576                   00000001800448e0     c5_sl_groundvehicleDynamics.obj
 0003:00002928       $SG21578                   0000000180044928     c5_sl_groundvehicleDynamics.obj
 0003:00002940       $SG21579                   0000000180044940     c5_sl_groundvehicleDynamics.obj
 0003:000029a8       $SG21581                   00000001800449a8     c5_sl_groundvehicleDynamics.obj
 0003:000029c0       $SG21582                   00000001800449c0     c5_sl_groundvehicleDynamics.obj
 0003:00002a08       $SG21584                   0000000180044a08     c5_sl_groundvehicleDynamics.obj
 0003:00002a20       $SG21585                   0000000180044a20     c5_sl_groundvehicleDynamics.obj
 0003:00002a68       $SG21587                   0000000180044a68     c5_sl_groundvehicleDynamics.obj
 0003:00002a80       $SG21588                   0000000180044a80     c5_sl_groundvehicleDynamics.obj
 0003:00002ac8       $SG21590                   0000000180044ac8     c5_sl_groundvehicleDynamics.obj
 0003:00002ad0       $SG21591                   0000000180044ad0     c5_sl_groundvehicleDynamics.obj
 0003:00002b18       $SG21593                   0000000180044b18     c5_sl_groundvehicleDynamics.obj
 0003:00002b30       $SG21594                   0000000180044b30     c5_sl_groundvehicleDynamics.obj
 0003:00002b78       $SG21596                   0000000180044b78     c5_sl_groundvehicleDynamics.obj
 0003:00002b90       $SG21597                   0000000180044b90     c5_sl_groundvehicleDynamics.obj
 0003:00002bd8       $SG21599                   0000000180044bd8     c5_sl_groundvehicleDynamics.obj
 0003:00002bf0       $SG21600                   0000000180044bf0     c5_sl_groundvehicleDynamics.obj
 0003:00002c38       $SG21602                   0000000180044c38     c5_sl_groundvehicleDynamics.obj
 0003:00002c50       $SG21603                   0000000180044c50     c5_sl_groundvehicleDynamics.obj
 0003:00002c98       $SG21605                   0000000180044c98     c5_sl_groundvehicleDynamics.obj
 0003:00002cb0       $SG21606                   0000000180044cb0     c5_sl_groundvehicleDynamics.obj
 0003:00002cf8       $SG21608                   0000000180044cf8     c5_sl_groundvehicleDynamics.obj
 0003:00002d10       $SG21609                   0000000180044d10     c5_sl_groundvehicleDynamics.obj
 0003:00002d58       $SG21611                   0000000180044d58     c5_sl_groundvehicleDynamics.obj
 0003:00002d70       $SG21612                   0000000180044d70     c5_sl_groundvehicleDynamics.obj
 0003:00002db8       $SG21614                   0000000180044db8     c5_sl_groundvehicleDynamics.obj
 0003:00002dd0       $SG21615                   0000000180044dd0     c5_sl_groundvehicleDynamics.obj
 0003:00002e18       $SG21617                   0000000180044e18     c5_sl_groundvehicleDynamics.obj
 0003:00002e30       $SG21618                   0000000180044e30     c5_sl_groundvehicleDynamics.obj
 0003:00002e78       $SG21620                   0000000180044e78     c5_sl_groundvehicleDynamics.obj
 0003:00002e90       $SG21621                   0000000180044e90     c5_sl_groundvehicleDynamics.obj
 0003:00002ed8       $SG21623                   0000000180044ed8     c5_sl_groundvehicleDynamics.obj
 0003:00002ef0       $SG21624                   0000000180044ef0     c5_sl_groundvehicleDynamics.obj
 0003:00002f38       $SG21626                   0000000180044f38     c5_sl_groundvehicleDynamics.obj
 0003:00002f50       $SG21627                   0000000180044f50     c5_sl_groundvehicleDynamics.obj
 0003:00002f98       $SG21629                   0000000180044f98     c5_sl_groundvehicleDynamics.obj
 0003:00002fb0       $SG21630                   0000000180044fb0     c5_sl_groundvehicleDynamics.obj
 0003:00002ff8       $SG21632                   0000000180044ff8     c5_sl_groundvehicleDynamics.obj
 0003:00003010       $SG21633                   0000000180045010     c5_sl_groundvehicleDynamics.obj
 0003:00003058       $SG21635                   0000000180045058     c5_sl_groundvehicleDynamics.obj
 0003:00003070       $SG21636                   0000000180045070     c5_sl_groundvehicleDynamics.obj
 0003:000030b8       $SG21638                   00000001800450b8     c5_sl_groundvehicleDynamics.obj
 0003:000030d0       $SG21639                   00000001800450d0     c5_sl_groundvehicleDynamics.obj
 0003:00003118       $SG21641                   0000000180045118     c5_sl_groundvehicleDynamics.obj
 0003:00003130       $SG21642                   0000000180045130     c5_sl_groundvehicleDynamics.obj
 0003:00003178       $SG21644                   0000000180045178     c5_sl_groundvehicleDynamics.obj
 0003:00003190       $SG21645                   0000000180045190     c5_sl_groundvehicleDynamics.obj
 0003:000031d8       $SG21647                   00000001800451d8     c5_sl_groundvehicleDynamics.obj
 0003:000031f0       $SG21648                   00000001800451f0     c5_sl_groundvehicleDynamics.obj
 0003:00003238       $SG21650                   0000000180045238     c5_sl_groundvehicleDynamics.obj
 0003:00003250       $SG21651                   0000000180045250     c5_sl_groundvehicleDynamics.obj
 0003:00003298       $SG21653                   0000000180045298     c5_sl_groundvehicleDynamics.obj
 0003:000032b0       $SG21654                   00000001800452b0     c5_sl_groundvehicleDynamics.obj
 0003:000032f8       $SG21656                   00000001800452f8     c5_sl_groundvehicleDynamics.obj
 0003:00003310       $SG21657                   0000000180045310     c5_sl_groundvehicleDynamics.obj
 0003:00003360       $SG21659                   0000000180045360     c5_sl_groundvehicleDynamics.obj
 0003:00003380       $SG21660                   0000000180045380     c5_sl_groundvehicleDynamics.obj
 0003:000033c8       $SG21662                   00000001800453c8     c5_sl_groundvehicleDynamics.obj
 0003:000033e0       $SG21663                   00000001800453e0     c5_sl_groundvehicleDynamics.obj
 0003:00003428       $SG21665                   0000000180045428     c5_sl_groundvehicleDynamics.obj
 0003:00003440       $SG21666                   0000000180045440     c5_sl_groundvehicleDynamics.obj
 0003:00003488       $SG21668                   0000000180045488     c5_sl_groundvehicleDynamics.obj
 0003:000034a0       $SG21669                   00000001800454a0     c5_sl_groundvehicleDynamics.obj
 0003:000034e8       $SG21671                   00000001800454e8     c5_sl_groundvehicleDynamics.obj
 0003:00003500       $SG21672                   0000000180045500     c5_sl_groundvehicleDynamics.obj
 0003:00003548       $SG21674                   0000000180045548     c5_sl_groundvehicleDynamics.obj
 0003:00003560       $SG21675                   0000000180045560     c5_sl_groundvehicleDynamics.obj
 0003:000035a8       $SG21677                   00000001800455a8     c5_sl_groundvehicleDynamics.obj
 0003:000035c0       $SG21678                   00000001800455c0     c5_sl_groundvehicleDynamics.obj
 0003:00003608       $SG21680                   0000000180045608     c5_sl_groundvehicleDynamics.obj
 0003:00003620       $SG21681                   0000000180045620     c5_sl_groundvehicleDynamics.obj
 0003:00003668       $SG21683                   0000000180045668     c5_sl_groundvehicleDynamics.obj
 0003:00003680       $SG21684                   0000000180045680     c5_sl_groundvehicleDynamics.obj
 0003:00003700       $SG21686                   0000000180045700     c5_sl_groundvehicleDynamics.obj
 0003:00003710       $SG21687                   0000000180045710     c5_sl_groundvehicleDynamics.obj
 0003:00003790       $SG21689                   0000000180045790     c5_sl_groundvehicleDynamics.obj
 0003:000037a0       $SG21690                   00000001800457a0     c5_sl_groundvehicleDynamics.obj
 0003:00003820       $SG21692                   0000000180045820     c5_sl_groundvehicleDynamics.obj
 0003:00003840       $SG21693                   0000000180045840     c5_sl_groundvehicleDynamics.obj
 0003:00003888       $SG21695                   0000000180045888     c5_sl_groundvehicleDynamics.obj
 0003:000038a0       $SG21696                   00000001800458a0     c5_sl_groundvehicleDynamics.obj
 0003:000038f8       $SG21698                   00000001800458f8     c5_sl_groundvehicleDynamics.obj
 0003:00003910       $SG21699                   0000000180045910     c5_sl_groundvehicleDynamics.obj
 0003:00003958       $SG21701                   0000000180045958     c5_sl_groundvehicleDynamics.obj
 0003:00003970       $SG21702                   0000000180045970     c5_sl_groundvehicleDynamics.obj
 0003:000039b8       $SG21704                   00000001800459b8     c5_sl_groundvehicleDynamics.obj
 0003:000039d0       $SG21705                   00000001800459d0     c5_sl_groundvehicleDynamics.obj
 0003:00003a18       $SG21707                   0000000180045a18     c5_sl_groundvehicleDynamics.obj
 0003:00003a30       $SG21708                   0000000180045a30     c5_sl_groundvehicleDynamics.obj
 0003:00003a78       $SG21710                   0000000180045a78     c5_sl_groundvehicleDynamics.obj
 0003:00003a90       $SG21711                   0000000180045a90     c5_sl_groundvehicleDynamics.obj
 0003:00003ad8       $SG21713                   0000000180045ad8     c5_sl_groundvehicleDynamics.obj
 0003:00003af0       $SG21714                   0000000180045af0     c5_sl_groundvehicleDynamics.obj
 0003:00003b38       $SG21716                   0000000180045b38     c5_sl_groundvehicleDynamics.obj
 0003:00003b50       $SG21717                   0000000180045b50     c5_sl_groundvehicleDynamics.obj
 0003:00003b98       $SG21719                   0000000180045b98     c5_sl_groundvehicleDynamics.obj
 0003:00003bb0       $SG21720                   0000000180045bb0     c5_sl_groundvehicleDynamics.obj
 0003:00003bf8       $SG21722                   0000000180045bf8     c5_sl_groundvehicleDynamics.obj
 0003:00003c10       $SG21723                   0000000180045c10     c5_sl_groundvehicleDynamics.obj
 0003:00003c58       $SG21725                   0000000180045c58     c5_sl_groundvehicleDynamics.obj
 0003:00003c70       $SG21726                   0000000180045c70     c5_sl_groundvehicleDynamics.obj
 0003:00003cd8       $SG21728                   0000000180045cd8     c5_sl_groundvehicleDynamics.obj
 0003:00003cf0       $SG21729                   0000000180045cf0     c5_sl_groundvehicleDynamics.obj
 0003:00003d58       $SG21731                   0000000180045d58     c5_sl_groundvehicleDynamics.obj
 0003:00003d70       $SG21732                   0000000180045d70     c5_sl_groundvehicleDynamics.obj
 0003:00003dd8       $SG21734                   0000000180045dd8     c5_sl_groundvehicleDynamics.obj
 0003:00003df0       $SG21735                   0000000180045df0     c5_sl_groundvehicleDynamics.obj
 0003:00003e58       $SG21737                   0000000180045e58     c5_sl_groundvehicleDynamics.obj
 0003:00003e70       $SG21738                   0000000180045e70     c5_sl_groundvehicleDynamics.obj
 0003:00003ed8       $SG21740                   0000000180045ed8     c5_sl_groundvehicleDynamics.obj
 0003:00003ef0       $SG21741                   0000000180045ef0     c5_sl_groundvehicleDynamics.obj
 0003:00003f58       $SG21743                   0000000180045f58     c5_sl_groundvehicleDynamics.obj
 0003:00003f70       $SG21744                   0000000180045f70     c5_sl_groundvehicleDynamics.obj
 0003:00003ff0       $SG21746                   0000000180045ff0     c5_sl_groundvehicleDynamics.obj
 0003:00004010       $SG21747                   0000000180046010     c5_sl_groundvehicleDynamics.obj
 0003:00004090       $SG21749                   0000000180046090     c5_sl_groundvehicleDynamics.obj
 0003:000040b0       $SG21750                   00000001800460b0     c5_sl_groundvehicleDynamics.obj
 0003:000040f8       $SG21752                   00000001800460f8     c5_sl_groundvehicleDynamics.obj
 0003:00004110       $SG21753                   0000000180046110     c5_sl_groundvehicleDynamics.obj
 0003:00004158       $SG21755                   0000000180046158     c5_sl_groundvehicleDynamics.obj
 0003:00004170       $SG21756                   0000000180046170     c5_sl_groundvehicleDynamics.obj
 0003:000041d8       $SG21758                   00000001800461d8     c5_sl_groundvehicleDynamics.obj
 0003:000041f0       $SG21759                   00000001800461f0     c5_sl_groundvehicleDynamics.obj
 0003:00004258       $SG21761                   0000000180046258     c5_sl_groundvehicleDynamics.obj
 0003:00004270       $SG21762                   0000000180046270     c5_sl_groundvehicleDynamics.obj
 0003:000042d8       $SG21764                   00000001800462d8     c5_sl_groundvehicleDynamics.obj
 0003:000042f0       $SG21765                   00000001800462f0     c5_sl_groundvehicleDynamics.obj
 0003:00004358       $SG21767                   0000000180046358     c5_sl_groundvehicleDynamics.obj
 0003:00004370       $SG21768                   0000000180046370     c5_sl_groundvehicleDynamics.obj
 0003:000043d8       $SG21770                   00000001800463d8     c5_sl_groundvehicleDynamics.obj
 0003:000043f0       $SG21771                   00000001800463f0     c5_sl_groundvehicleDynamics.obj
 0003:00004458       $SG21773                   0000000180046458     c5_sl_groundvehicleDynamics.obj
 0003:00004470       $SG21774                   0000000180046470     c5_sl_groundvehicleDynamics.obj
 0003:000044d8       $SG21776                   00000001800464d8     c5_sl_groundvehicleDynamics.obj
 0003:000044f0       $SG21777                   00000001800464f0     c5_sl_groundvehicleDynamics.obj
 0003:00004558       $SG21779                   0000000180046558     c5_sl_groundvehicleDynamics.obj
 0003:00004570       $SG21780                   0000000180046570     c5_sl_groundvehicleDynamics.obj
 0003:000045d8       $SG21782                   00000001800465d8     c5_sl_groundvehicleDynamics.obj
 0003:000045f0       $SG21783                   00000001800465f0     c5_sl_groundvehicleDynamics.obj
 0003:00004658       $SG21785                   0000000180046658     c5_sl_groundvehicleDynamics.obj
 0003:00004670       $SG21786                   0000000180046670     c5_sl_groundvehicleDynamics.obj
 0003:000046d8       $SG21788                   00000001800466d8     c5_sl_groundvehicleDynamics.obj
 0003:000046f0       $SG21789                   00000001800466f0     c5_sl_groundvehicleDynamics.obj
 0003:00004758       $SG21791                   0000000180046758     c5_sl_groundvehicleDynamics.obj
 0003:00004770       $SG21792                   0000000180046770     c5_sl_groundvehicleDynamics.obj
 0003:000047d8       $SG21794                   00000001800467d8     c5_sl_groundvehicleDynamics.obj
 0003:000047f0       $SG21795                   00000001800467f0     c5_sl_groundvehicleDynamics.obj
 0003:00004858       $SG21797                   0000000180046858     c5_sl_groundvehicleDynamics.obj
 0003:00004870       $SG21798                   0000000180046870     c5_sl_groundvehicleDynamics.obj
 0003:000048d8       $SG21800                   00000001800468d8     c5_sl_groundvehicleDynamics.obj
 0003:000048f0       $SG21801                   00000001800468f0     c5_sl_groundvehicleDynamics.obj
 0003:00004958       $SG21803                   0000000180046958     c5_sl_groundvehicleDynamics.obj
 0003:00004970       $SG21804                   0000000180046970     c5_sl_groundvehicleDynamics.obj
 0003:000049d8       $SG21806                   00000001800469d8     c5_sl_groundvehicleDynamics.obj
 0003:000049f0       $SG21807                   00000001800469f0     c5_sl_groundvehicleDynamics.obj
 0003:00004a58       $SG21809                   0000000180046a58     c5_sl_groundvehicleDynamics.obj
 0003:00004a70       $SG21810                   0000000180046a70     c5_sl_groundvehicleDynamics.obj
 0003:00004ad8       $SG21812                   0000000180046ad8     c5_sl_groundvehicleDynamics.obj
 0003:00004af0       $SG21813                   0000000180046af0     c5_sl_groundvehicleDynamics.obj
 0003:00004b58       $SG21815                   0000000180046b58     c5_sl_groundvehicleDynamics.obj
 0003:00004b70       $SG21816                   0000000180046b70     c5_sl_groundvehicleDynamics.obj
 0003:00004bd8       $SG21818                   0000000180046bd8     c5_sl_groundvehicleDynamics.obj
 0003:00004bf0       $SG21819                   0000000180046bf0     c5_sl_groundvehicleDynamics.obj
 0003:00004c58       $SG21821                   0000000180046c58     c5_sl_groundvehicleDynamics.obj
 0003:00004c70       $SG21822                   0000000180046c70     c5_sl_groundvehicleDynamics.obj
 0003:00004cb8       $SG21824                   0000000180046cb8     c5_sl_groundvehicleDynamics.obj
 0003:00004cd0       $SG21825                   0000000180046cd0     c5_sl_groundvehicleDynamics.obj
 0003:00004d38       $SG21827                   0000000180046d38     c5_sl_groundvehicleDynamics.obj
 0003:00004d50       $SG21828                   0000000180046d50     c5_sl_groundvehicleDynamics.obj
