 sl_groundvehicleDynamics_sfun

 Timestamp is 670cfcc9 (Mon Oct 14 21:13:13 2024)

 Preferred load address is 0000000180000000

 Start         Length     Name                   Class
 0001:00000000 00042ff0H .text$mn                CODE
 0001:00042ff0 00000040H .text$mn$00             CODE
 0001:00043030 0000057aH .text$x                 CODE
 0002:00000000 00000638H .idata$5                DATA
 0002:00000638 00000038H .00cfg                  DATA
 0002:00000670 00000008H .CRT$XCA                DATA
 0002:00000678 00000008H .CRT$XCZ                DATA
 0002:00000680 00000008H .CRT$XIA                DATA
 0002:00000688 00000008H .CRT$XIZ                DATA
 0002:00000690 00000008H .CRT$XPA                DATA
 0002:00000698 00000008H .CRT$XPZ                DATA
 0002:000006a0 00000008H .CRT$XTA                DATA
 0002:000006a8 00000008H .CRT$XTZ                DATA
 0002:000006b0 00000000H .gehcont$y              DATA
 0002:000006b0 00000000H .gfids$y                DATA
 0002:000006b0 000005d0H .rdata                  DATA
 0002:00000c80 00000080H .rdata$CastGuardVftablesA DATA
 0002:00000d00 00000080H .rdata$CastGuardVftablesC DATA
 0002:00000d80 000001f4H .rdata$r                DATA
 0002:00000f74 0000029cH .rdata$voltmd           DATA
 0002:00001210 000002c8H .rdata$zzzdbg           DATA
 0002:000014d8 00000008H .rtc$IAA                DATA
 0002:000014e0 00000008H .rtc$IZZ                DATA
 0002:000014e8 00000008H .rtc$TAA                DATA
 0002:000014f0 00000008H .rtc$TZZ                DATA
 0002:000014f8 00002298H .xdata                  DATA
 0002:00003790 000000f0H .xdata$x                DATA
 0002:00003880 00000088H .edata                  DATA
 0002:00003908 00000140H .idata$2                DATA
 0002:00003a48 00000018H .idata$3                DATA
 0002:00003a60 00000638H .idata$4                DATA
 0002:00004098 000011f8H .idata$6                DATA
 0003:00000000 00016a38H .data                   DATA
 0003:00016a38 00000080H .data$r                 DATA
 0003:00016ab8 00000028H .data$rs                DATA
 0003:00016ae0 00000ee0H .bss                    DATA
 0004:00000000 0000267cH .pdata                  DATA

  Address         Publics by Value              Rva+Base               Lib:Object

 0000:00000000       __AbsoluteZero             0000000000000000     <absolute>
 0000:00000000       ___safe_se_handler_count   0000000000000000     <absolute>
 0000:00000000       ___safe_se_handler_table   0000000000000000     <absolute>
 0000:00000000       __arm64x_extra_rfe_table   0000000000000000     <absolute>
 0000:00000000       __arm64x_extra_rfe_table_size 0000000000000000     <absolute>
 0000:00000000       __arm64x_native_entrypoint 0000000000000000     <absolute>
 0000:00000000       __arm64x_redirection_metadata 0000000000000000     <absolute>
 0000:00000000       __arm64x_redirection_metadata_count 0000000000000000     <absolute>
 0000:00000000       __dynamic_value_reloc_table 0000000000000000     <absolute>
 0000:00000000       __enclave_config           0000000000000000     <absolute>
 0000:00000000       __guard_check_icall_a64n_fptr 0000000000000000     <absolute>
 0000:00000000       __guard_eh_cont_count      0000000000000000     <absolute>
 0000:00000000       __guard_eh_cont_table      0000000000000000     <absolute>
 0000:00000000       __guard_fids_count         0000000000000000     <absolute>
 0000:00000000       __guard_fids_table         0000000000000000     <absolute>
 0000:00000000       __guard_iat_count          0000000000000000     <absolute>
 0000:00000000       __guard_iat_table          0000000000000000     <absolute>
 0000:00000000       __guard_longjmp_count      0000000000000000     <absolute>
 0000:00000000       __guard_longjmp_table      0000000000000000     <absolute>
 0000:00000000       __hybrid_auxiliary_delayload_iat 0000000000000000     <absolute>
 0000:00000000       __hybrid_auxiliary_delayload_iat_copy 0000000000000000     <absolute>
 0000:00000000       __hybrid_auxiliary_iat     0000000000000000     <absolute>
 0000:00000000       __hybrid_auxiliary_iat_copy 0000000000000000     <absolute>
 0000:00000000       __hybrid_code_map          0000000000000000     <absolute>
 0000:00000000       __hybrid_code_map_count    0000000000000000     <absolute>
 0000:00000000       __hybrid_image_info_bitfield 0000000000000000     <absolute>
 0000:00000000       __x64_code_ranges_to_entry_points 0000000000000000     <absolute>
 0000:00000000       __x64_code_ranges_to_entry_points_count 0000000000000000     <absolute>
 0000:00000100       __guard_flags              0000000000000100     <absolute>
 0000:00000000       __ImageBase                0000000180000000     <linker-defined>
 0001:00000000       sl_groundvehicleDynamics_initializer 0000000180001000 f   sl_groundvehicleDynamics_sfun.obj
 0001:00000010       sl_groundvehicleDynamics_terminator 0000000180001010 f   sl_groundvehicleDynamics_sfun.obj
 0001:00000020       load_sl_groundvehicleDynamics_optimization_info 0000000180001020 f   sl_groundvehicleDynamics_sfun.obj
 0001:000000d0       unload_sl_groundvehicleDynamics_optimization_info 00000001800010d0 f   sl_groundvehicleDynamics_sfun.obj
 0001:00000100       sf_sl_groundvehicleDynamics_method_dispatcher 0000000180001100 f   sl_groundvehicleDynamics_sfun.obj
 0001:00000150       sf_sl_groundvehicleDynamics_process_check_sum_call 0000000180001150 f   sl_groundvehicleDynamics_sfun.obj
 0001:00000640       sf_sl_groundvehicleDynamics_get_eml_resolved_functions_info 0000000180001640 f   sl_groundvehicleDynamics_sfun.obj
 0001:00000820       sf_sl_groundvehicleDynamics_third_party_uses_info 0000000180001820 f   sl_groundvehicleDynamics_sfun.obj
 0001:000009f0       sf_sl_groundvehicleDynamics_jit_fallback_info 00000001800019f0 f   sl_groundvehicleDynamics_sfun.obj
 0001:00000bc0       sf_sl_groundvehicleDynamics_get_post_codegen_info 0000000180001bc0 f   sl_groundvehicleDynamics_sfun.obj
 0001:00000da0       sf_sl_groundvehicleDynamics_updateBuildInfo_args_info 0000000180001da0 f   sl_groundvehicleDynamics_sfun.obj
 0001:00000f60       sf_c5_sl_groundvehicleDynamics_get_eml_resolved_functions_info 0000000180001f60 f   c5_sl_groundvehicleDynamics.obj
 0001:00001000       sf_c5_sl_groundvehicleDynamics_get_check_sum 0000000180002000 f   c5_sl_groundvehicleDynamics.obj
 0001:000010d0       c5_sl_groundvehicleDynamics_method_dispatcher 00000001800020d0 f   c5_sl_groundvehicleDynamics.obj
 0001:00029f10       sf_c5_sl_groundvehicleDynamics_third_party_uses_info 000000018002af10 f   c5_sl_groundvehicleDynamics.obj
 0001:00029f60       sf_c5_sl_groundvehicleDynamics_jit_fallback_info 000000018002af60 f   c5_sl_groundvehicleDynamics.obj
 0001:0002a0f0       sf_c5_sl_groundvehicleDynamics_updateBuildInfo_args_info 000000018002b0f0 f   c5_sl_groundvehicleDynamics.obj
 0001:0002a410       sf_c5_sl_groundvehicleDynamics_get_post_codegen_info 000000018002b410 f   c5_sl_groundvehicleDynamics.obj
 0001:0002a9e0       mexFunction                000000018002b9e0 f   sl_groundvehicleDynamics_sfun_registry.obj
 0001:0002d2b0       _ssSetInputPortDirectFeedThroughFcn 000000018002e2b0 f   sl_groundvehicleDynamics_sfun_registry.obj
 0001:0002d420       _ssSetRWorkValueFcn        000000018002e420 f   sl_groundvehicleDynamics_sfun_registry.obj
 0001:0002d4a0       _ssGetRWorkValueFcn        000000018002e4a0 f   sl_groundvehicleDynamics_sfun_registry.obj
 0001:0002d510       _ssSetIWorkValueFcn        000000018002e510 f   sl_groundvehicleDynamics_sfun_registry.obj
 0001:0002d590       _ssGetIWorkValueFcn        000000018002e590 f   sl_groundvehicleDynamics_sfun_registry.obj
 0001:0002d600       _ssSetPWorkValueFcn        000000018002e600 f   sl_groundvehicleDynamics_sfun_registry.obj
 0001:0002d680       _ssGetPWorkValueFcn        000000018002e680 f   sl_groundvehicleDynamics_sfun_registry.obj
 0001:0002d6f0       _ssGetInputPortSignalFcn   000000018002e6f0 f   sl_groundvehicleDynamics_sfun_registry.obj
 0001:0002da80       _ssGetInputPortBufferDstPortFcn 000000018002ea80 f   sl_groundvehicleDynamics_sfun_registry.obj
 0001:0002db00       _ssGetInputPortSignalPtrsFcn 000000018002eb00 f   sl_groundvehicleDynamics_sfun_registry.obj
 0001:0002de90       ssGetParameterTuningCompliance 000000018002ee90 f   sl_groundvehicleDynamics_sfun_registry.obj
 0001:0002df00       _ssReadInputStringFcn      000000018002ef00 f   sl_groundvehicleDynamics_sfun_registry.obj
 0001:0002df70       ssGetDTypeIdFromMxArray    000000018002ef70 f   sl_groundvehicleDynamics_sfun_registry.obj
 0001:0002e090       ssWriteRTWMx2dMatParam     000000018002f090 f   sl_groundvehicleDynamics_sfun_registry.obj
 0001:0002e120       ssWriteRTWMxVectParam      000000018002f120 f   sl_groundvehicleDynamics_sfun_registry.obj
 0001:0002e1a0       ssWriteRTWParameters       000000018002f1a0 f   sl_groundvehicleDynamics_sfun_registry.obj
 0001:0002e760       ssWriteRTWParamSettings    000000018002f760 f   sl_groundvehicleDynamics_sfun_registry.obj
 0001:0002ee50       ssWriteRTWStr              000000018002fe50 f   sl_groundvehicleDynamics_sfun_registry.obj
 0001:0002eeb0       ssWriteRTWWorkVect         000000018002feb0 f   sl_groundvehicleDynamics_sfun_registry.obj
 0001:0002f410       ssWarning                  0000000180030410 f   sl_groundvehicleDynamics_sfun_registry.obj
 0001:0002f500       ssGetRootSS                0000000180030500 f   sl_groundvehicleDynamics_sfun_registry.obj
 0001:0002f5c0       ssGetParentSS              00000001800305c0 f   sl_groundvehicleDynamics_sfun_registry.obj
 0001:0002f680       ssWriteRTWNameValuePair    0000000180030680 f   sl_groundvehicleDynamics_sfun_registry.obj
 0001:0002fb80       _ssSetInputPortMatrixDimensions 0000000180030b80 f   sl_groundvehicleDynamics_sfun_registry.obj
 0001:0002fcd0       _ssSetOutputPortMatrixDimensions 0000000180030cd0 f   sl_groundvehicleDynamics_sfun_registry.obj
 0001:0002fe20       _ssSetInputPortVectorDimension 0000000180030e20 f   sl_groundvehicleDynamics_sfun_registry.obj
 0001:0002fed0       _ssSetOutputPortVectorDimension 0000000180030ed0 f   sl_groundvehicleDynamics_sfun_registry.obj
 0001:0002ff80       ssIsRunTimeParamTunable    0000000180030f80 f   sl_groundvehicleDynamics_sfun_registry.obj
 0001:0002fff0       ssGetSFuncBlockHandle      0000000180030ff0 f   sl_groundvehicleDynamics_sfun_registry.obj
 0001:00030060       _ssGetCallSystemNumFcnCallDestinations 0000000180031060 f   sl_groundvehicleDynamics_sfun_registry.obj
 0001:000300d0       _ssGetCurrentInputPortWidth 00000001800310d0 f   sl_groundvehicleDynamics_sfun_registry.obj
 0001:00030210       _ssGetCurrentOutputPortWidth 0000000180031210 f   sl_groundvehicleDynamics_sfun_registry.obj
 0001:00030350       ssGetIsZeroCrossControlDisabled 0000000180031350 f   sl_groundvehicleDynamics_sfun_registry.obj
 0001:000303c0       ssSetIsInputPortUsedForContZcSignal 00000001800313c0 f   sl_groundvehicleDynamics_sfun_registry.obj
 0001:00030430       ssSetZcSignalIsZcElementDisc 0000000180031430 f   sl_groundvehicleDynamics_sfun_registry.obj
 0001:000304e0       ssSetZcSignalName          00000001800314e0 f   sl_groundvehicleDynamics_sfun_registry.obj
 0001:00030550       ssSetZcSignalWidth         0000000180031550 f   sl_groundvehicleDynamics_sfun_registry.obj
 0001:000305c0       ssSetZcSignalZcEventType   00000001800315c0 f   sl_groundvehicleDynamics_sfun_registry.obj
 0001:00030630       ssSetZcSignalType          0000000180031630 f   sl_groundvehicleDynamics_sfun_registry.obj
 0001:000306a0       ssSetZcSignalZcTol         00000001800316a0 f   sl_groundvehicleDynamics_sfun_registry.obj
 0001:00030710       ssSetZcSignalNeedsEventNotification 0000000180031710 f   sl_groundvehicleDynamics_sfun_registry.obj
 0001:00030780       ssCreateAndAddZcSignalInfo 0000000180031780 f   sl_groundvehicleDynamics_sfun_registry.obj
 0001:000307f0       ssCloneAndAddZcSignalInfo  00000001800317f0 f   sl_groundvehicleDynamics_sfun_registry.obj
 0001:00030860       ssGetNumZcSignals          0000000180031860 f   sl_groundvehicleDynamics_sfun_registry.obj
 0001:000308d0       ssGetZcSignalVector        00000001800318d0 f   sl_groundvehicleDynamics_sfun_registry.obj
 0001:00030940       ssGetZcSignalName          0000000180031940 f   sl_groundvehicleDynamics_sfun_registry.obj
 0001:000309b0       ssGetZcSignalWidth         00000001800319b0 f   sl_groundvehicleDynamics_sfun_registry.obj
 0001:00030a20       ssGetZcSignalZcEventType   0000000180031a20 f   sl_groundvehicleDynamics_sfun_registry.obj
 0001:00030a90       ssGetZcSignalZcEvents      0000000180031a90 f   sl_groundvehicleDynamics_sfun_registry.obj
 0001:00030b00       ssGetZcSignalType          0000000180031b00 f   sl_groundvehicleDynamics_sfun_registry.obj
 0001:00030b70       ssGetZcSignalZcTol         0000000180031b70 f   sl_groundvehicleDynamics_sfun_registry.obj
 0001:00030bf0       ssGetZcSignalNeedsEventNotification 0000000180031bf0 f   sl_groundvehicleDynamics_sfun_registry.obj
 0001:00030c60       ssGetZcSignalIsZcElementDisc 0000000180031c60 f   sl_groundvehicleDynamics_sfun_registry.obj
 0001:00030d00       ssGetIsInputPortElementContinuous 0000000180031d00 f   sl_groundvehicleDynamics_sfun_registry.obj
 0001:00030da0       _ssGetAbsTol               0000000180031da0 f   sl_groundvehicleDynamics_sfun_registry.obj
 0001:00030e10       _ssSetStateAbsTol          0000000180031e10 f   sl_groundvehicleDynamics_sfun_registry.obj
 0001:00030ef0       _ssSetInputPortReusableFcn 0000000180031ef0 f   sl_groundvehicleDynamics_sfun_registry.obj
 0001:00030ff0       _ssSetOutputPortReusableFcn 0000000180031ff0 f   sl_groundvehicleDynamics_sfun_registry.obj
 0001:000310f0       _ssSetSymbolicDimsSupport  00000001800320f0 f   sl_groundvehicleDynamics_sfun_registry.obj
 0001:00031160       _ssRegisterSymbolicDimsExpr 0000000180032160 f   sl_groundvehicleDynamics_sfun_registry.obj
 0001:000311e0       _ssRegisterSymbolicDimsMATLABExpr 00000001800321e0 f   sl_groundvehicleDynamics_sfun_registry.obj
 0001:00031270       _ssRegisterSymbolicDims    0000000180032270 f   sl_groundvehicleDynamics_sfun_registry.obj
 0001:00031310       _ssRegisterSymbolicDimsString 0000000180032310 f   sl_groundvehicleDynamics_sfun_registry.obj
 0001:00031390       _ssRegisterSymbolicDimsIntValue 0000000180032390 f   sl_groundvehicleDynamics_sfun_registry.obj
 0001:00031400       _ssRegisterSymbolicEqualRelation 0000000180032400 f   sl_groundvehicleDynamics_sfun_registry.obj
 0001:00031470       _ssRegisterSymbolicEqualValue 0000000180032470 f   sl_groundvehicleDynamics_sfun_registry.obj
 0001:000314e0       _ssAmendLeadingSymbolicDims 00000001800324e0 f   sl_groundvehicleDynamics_sfun_registry.obj
 0001:00031560       _ssAmendTrailingSymbolicDims 0000000180032560 f   sl_groundvehicleDynamics_sfun_registry.obj
 0001:000315e0       _ssRegisterSymbolicDimsPlus 00000001800325e0 f   sl_groundvehicleDynamics_sfun_registry.obj
 0001:00031660       _ssRegisterSymbolicDimsMinus 0000000180032660 f   sl_groundvehicleDynamics_sfun_registry.obj
 0001:000316e0       _ssRegisterSymbolicDimsMultiply 00000001800326e0 f   sl_groundvehicleDynamics_sfun_registry.obj
 0001:00031760       _ssRegisterSymbolicDimsDivide 0000000180032760 f   sl_groundvehicleDynamics_sfun_registry.obj
 0001:000317e0       _ssGetNumSymbolicDims      00000001800327e0 f   sl_groundvehicleDynamics_sfun_registry.obj
 0001:00031850       _ssGetSymbolicDim          0000000180032850 f   sl_groundvehicleDynamics_sfun_registry.obj
 0001:000318d0       _ssSetInputPortSymbolicDimsId 00000001800328d0 f   sl_groundvehicleDynamics_sfun_registry.obj
 0001:00031940       _ssGetCompInputPortSymbolicDimsId 0000000180032940 f   sl_groundvehicleDynamics_sfun_registry.obj
 0001:000319b0       _ssSetCompInputPortSymbolicDimsId 00000001800329b0 f   sl_groundvehicleDynamics_sfun_registry.obj
 0001:00031a20       _ssSetOutputPortSymbolicDimsId 0000000180032a20 f   sl_groundvehicleDynamics_sfun_registry.obj
 0001:00031a90       _ssGetCompOutputPortSymbolicDimsId 0000000180032a90 f   sl_groundvehicleDynamics_sfun_registry.obj
 0001:00031b00       _ssSetCompOutputPortSymbolicDimsId 0000000180032b00 f   sl_groundvehicleDynamics_sfun_registry.obj
 0001:00031b70       _ssGetDWorkSymbolicDimsId  0000000180032b70 f   sl_groundvehicleDynamics_sfun_registry.obj
 0001:00031be0       _ssSetDWorkSymbolicDimsId  0000000180032be0 f   sl_groundvehicleDynamics_sfun_registry.obj
 0001:00031c50       _ssGetCompDWorkSymbolicDimsId 0000000180032c50 f   sl_groundvehicleDynamics_sfun_registry.obj
 0001:00031cc0       _ssSetCompDWorkSymbolicDimsId 0000000180032cc0 f   sl_groundvehicleDynamics_sfun_registry.obj
 0001:00031d30       _ssCreateSLCGStringBuffer  0000000180032d30 f   sl_groundvehicleDynamics_sfun_registry.obj
 0001:00031da0       _ssAddToSLCGStringBuffer   0000000180032da0 f   sl_groundvehicleDynamics_sfun_registry.obj
 0001:00031e10       _ssGetPointerContainedData 0000000180032e10 f   sl_groundvehicleDynamics_sfun_registry.obj
 0001:00031ea0       _ssGetPointerContainedDataWidth 0000000180032ea0 f   sl_groundvehicleDynamics_sfun_registry.obj
 0001:00031f30       _ssRegisterDynamicArrayDataTypeFcn 0000000180032f30 f   sl_groundvehicleDynamics_sfun_registry.obj
 0001:00031fd0       _ssGetDynamicArrayContainedDataCurrentWidthFcn 0000000180032fd0 f   sl_groundvehicleDynamics_sfun_registry.obj
 0001:000320a0       _ssGetDynamicArrayContainedDataFcn 00000001800330a0 f   sl_groundvehicleDynamics_sfun_registry.obj
 0001:00032170       _ssGetInputPortDynamicArrayDataFcn 0000000180033170 f   sl_groundvehicleDynamics_sfun_registry.obj
 0001:00032230       _ssGetOutputPortDynamicArrayDataFcn 0000000180033230 f   sl_groundvehicleDynamics_sfun_registry.obj
 0001:000322f0       _ssGetInputPortDynamicArrayContainedDataFcn 00000001800332f0 f   sl_groundvehicleDynamics_sfun_registry.obj
 0001:000323b0       _ssGetOutputPortDynamicArrayContainedDataFcn 00000001800333b0 f   sl_groundvehicleDynamics_sfun_registry.obj
 0001:00032470       _ssGetDynamicArrayDWorkContainedDataFcn 0000000180033470 f   sl_groundvehicleDynamics_sfun_registry.obj
 0001:00032530       sf_process_check_sum_call  0000000180033530 f   sl_groundvehicleDynamics_sfun_registry.obj
 0001:00032580       sf_process_get_third_party_uses_info_call 0000000180033580 f   sl_groundvehicleDynamics_sfun_registry.obj
 0001:000327b0       sf_process_get_jit_fallback_info_call 00000001800337b0 f   sl_groundvehicleDynamics_sfun_registry.obj
 0001:000329e0       sf_process_get_post_codegen_info_call 00000001800339e0 f   sl_groundvehicleDynamics_sfun_registry.obj
 0001:00032c10       sf_process_get_updateBuildInfo_args_info_call 0000000180033c10 f   sl_groundvehicleDynamics_sfun_registry.obj
 0001:00032e40       sf_process_get_eml_resolved_functions_info_call 0000000180033e40 f   sl_groundvehicleDynamics_sfun_registry.obj
 0001:00033070       sf_mex_unlock_call         0000000180034070 f   sl_groundvehicleDynamics_sfun_registry.obj
 0001:00033290       sf_machine_global_initializer_called 0000000180034290 f   sl_groundvehicleDynamics_sfun_registry.obj
 0001:000332c0       sf_machine_global_method_dispatcher 00000001800342c0 f   sl_groundvehicleDynamics_sfun_registry.obj
 0001:00033320       sf_machine_global_terminator 0000000180034320 f   sl_groundvehicleDynamics_sfun_registry.obj
 0001:00033350       callCustomFcn              0000000180034350 f   sl_groundvehicleDynamics_sfun_registry.obj
 0001:00033360       sf_machine_global_initializer 0000000180034360 f   sl_groundvehicleDynamics_sfun_registry.obj
 0001:00033390       mdlGetSimState             0000000180034390 f   sl_groundvehicleDynamics_sfun_registry.obj
 0001:000333d0       mdlSetSimState             00000001800343d0 f   sl_groundvehicleDynamics_sfun_registry.obj
 0001:00033d40       ProcessMexSfunctionEveryCall 0000000180034d40 f   sl_groundvehicleDynamics_sfun_registry.obj
 0001:00034ec0       __local_stdio_printf_options 0000000180035ec0 f i sl_groundvehicleDynamics_sfun_registry.obj
 0001:00034ed0       _vsnprintf_l               0000000180035ed0 f i sl_groundvehicleDynamics_sfun_registry.obj
 0001:00034f50       _vsprintf_l                0000000180035f50 f i sl_groundvehicleDynamics_sfun_registry.obj
 0001:00034fa0       sprintf                    0000000180035fa0 f i sl_groundvehicleDynamics_sfun_registry.obj
 0001:00034ff0       mexfilerequiredapiversion  0000000180035ff0 f   c_mexapi_version.obj
 0001:00035020       priorityqueuecodegen_constructPQ 0000000180036020 f   priorityqueue_api.obj
 0001:000350a0       priorityqueuecodegen_destructPQ 00000001800360a0 f   priorityqueue_api.obj
 0001:00035100       priorityqueuecodegen_push  0000000180036100 f   priorityqueue_api.obj
 0001:00035140       priorityqueuecodegen_top   0000000180036140 f   priorityqueue_api.obj
 0001:000351e0       priorityqueuecodegen_pop   00000001800361e0 f   priorityqueue_api.obj
 0001:00035210       priorityqueuecodegen_size  0000000180036210 f   priorityqueue_api.obj
 0001:00035240       priorityqueuecodegen_isEmpty 0000000180036240 f   priorityqueue_api.obj
 0001:00035270       priorityqueuecodegen_getDataDim 0000000180036270 f   priorityqueue_api.obj
 0001:000352a0       priorityqueuecodegen_constructNodeMap 00000001800362a0 f   priorityqueue_api.obj
 0001:00035310       priorityqueuecodegen_destructNodeMap 0000000180036310 f   priorityqueue_api.obj
 0001:00035370       priorityqueuecodegen_nodemap_getDataDim 0000000180036370 f   priorityqueue_api.obj
 0001:000353a0       priorityqueuecodegen_nodemap_getNumNodes 00000001800363a0 f   priorityqueue_api.obj
 0001:000353f0       priorityqueuecodegen_nodemap_traceBack 00000001800363f0 f   priorityqueue_api.obj
 0001:00035540       priorityqueuecodegen_nodemap_insertNode 0000000180036540 f   priorityqueue_api.obj
 0001:00035590       priorityqueuecodegen_nodemap_getNodeData 0000000180036590 f   priorityqueue_api.obj
 0001:00035690       priorityqueuecodegen_constructSimpleMap 0000000180036690 f   priorityqueue_api.obj
 0001:00035700       priorityqueuecodegen_destructSimpleMap 0000000180036700 f   priorityqueue_api.obj
 0001:00035760       priorityqueuecodegen_simplemap_getDataDim 0000000180036760 f   priorityqueue_api.obj
 0001:00035790       priorityqueuecodegen_simplemap_getSize 0000000180036790 f   priorityqueue_api.obj
 0001:000357e0       priorityqueuecodegen_simplemap_insertData 00000001800367e0 f   priorityqueue_api.obj
 0001:00035830       priorityqueuecodegen_simplemap_getData 0000000180036830 f   priorityqueue_api.obj
 0001:00035910       ??$?0$$V@?$_Compressed_pair@V?$allocator@N@std@@V?$_Vector_val@U?$_Simple_types@N@std@@@2@$00@std@@QEAA@U_Zero_then_variadic_args_t@1@@Z 0000000180036910 f i priorityqueue_api.obj
 0001:00035940       ??$?0$$V@?$_Compressed_pair@V?$allocator@U?$pair@HV?$vector@NV?$allocator@N@std@@@std@@@std@@@std@@V?$_Vector_val@U?$_Simple_types@U?$pair@HV?$vector@NV?$allocator@N@std@@@std@@@std@@@std@@@2@$00@std@@QEAA@U_Zero_then_variadic_args_t@1@@Z 0000000180036940 f i priorityqueue_api.obj
 0001:00035970       ??$?0$$V@?$_Compressed_pair@V?$allocator@V?$vector@NV?$allocator@N@std@@@std@@@std@@V?$_Vector_val@U?$_Simple_types@V?$vector@NV?$allocator@N@std@@@std@@@std@@@2@$00@std@@QEAA@U_Zero_then_variadic_args_t@1@@Z 0000000180036970 f i priorityqueue_api.obj
 0001:000359a0       ??$?0AEAHV?$vector@NV?$allocator@N@std@@@std@@$0A@@?$pair@HV?$vector@NV?$allocator@N@std@@@std@@@std@@QEAA@AEAH$$QEAV?$vector@NV?$allocator@N@std@@@1@@Z 00000001800369a0 f i priorityqueue_api.obj
 0001:000359f0       ??$?0AEAPEAU?$_List_node@U?$pair@$$CBHH@std@@PEAX@std@@_N$0A@@?$pair@PEAU?$_List_node@U?$pair@$$CBHH@std@@PEAX@std@@_N@std@@QEAA@AEAPEAU?$_List_node@U?$pair@$$CBHH@std@@PEAX@1@$$QEA_N@Z 00000001800369f0 f i priorityqueue_api.obj
 0001:00035a40       ??$?0AEAPEAU?$_List_node@U?$pair@$$CBHV?$vector@NV?$allocator@N@std@@@std@@@std@@PEAX@std@@_N$0A@@?$pair@PEAU?$_List_node@U?$pair@$$CBHV?$vector@NV?$allocator@N@std@@@std@@@std@@PEAX@std@@_N@std@@QEAA@AEAPEAU?$_List_node@U?$pair@$$CBHV?$vector@NV?$allocator@N@std@@@std@@@std@@PEAX@1@$$QEA_N@Z 0000000180036a40 f i priorityqueue_api.obj
 0001:00035a90       ??$?0AEBH$$Z$$V@?$pair@$$CBHH@std@@QEAA@Upiecewise_construct_t@1@V?$tuple@AEBH@1@V?$tuple@$$V@1@@Z 0000000180036a90 f i priorityqueue_api.obj
 0001:00035b00       ??$?0AEBH$$Z$$V@?$pair@$$CBHV?$vector@NV?$allocator@N@std@@@std@@@std@@QEAA@Upiecewise_construct_t@1@V?$tuple@AEBH@1@V?$tuple@$$V@1@@Z 0000000180036b00 f i priorityqueue_api.obj
 0001:00035b70       ??$?0AEBH$0A@@?$tuple@AEBH@std@@QEAA@AEBH@Z 0000000180036b70 f i priorityqueue_api.obj
 0001:00035ba0       ??$?0AEBH@?$_Tuple_val@AEBH@std@@QEAA@AEBH@Z 0000000180036ba0 f i priorityqueue_api.obj
 0001:00035bd0       ??$?0AEBUpiecewise_construct_t@std@@V?$tuple@AEBH@1@V?$tuple@$$V@1@@?$_List_node_emplace_op2@V?$allocator@U?$_List_node@U?$pair@$$CBHH@std@@PEAX@std@@@std@@@std@@QEAA@AEAV?$allocator@U?$_List_node@U?$pair@$$CBHH@std@@PEAX@std@@@1@AEBUpiecewise_construct_t@1@$$QEAV?$tuple@AEBH@1@$$QEAV?$tuple@$$V@1@@Z 0000000180036bd0 f i priorityqueue_api.obj
 0001:00035c80       ??$?0AEBUpiecewise_construct_t@std@@V?$tuple@AEBH@1@V?$tuple@$$V@1@@?$_List_node_emplace_op2@V?$allocator@U?$_List_node@U?$pair@$$CBHV?$vector@NV?$allocator@N@std@@@std@@@std@@PEAX@std@@@std@@@std@@QEAA@AEAV?$allocator@U?$_List_node@U?$pair@$$CBHV?$vector@NV?$allocator@N@std@@@std@@@std@@PEAX@std@@@1@AEBUpiecewise_construct_t@1@$$QEAV?$tuple@AEBH@1@$$QEAV?$tuple@$$V@1@@Z 0000000180036c80 f i priorityqueue_api.obj
 0001:00035d30       ??$?0AEBV?$allocator@N@std@@$$V@?$_Compressed_pair@V?$allocator@N@std@@V?$_Vector_val@U?$_Simple_types@N@std@@@2@$00@std@@QEAA@U_One_then_variadic_args_t@1@AEBV?$allocator@N@1@@Z 0000000180036d30 f i priorityqueue_api.obj
 0001:00035d70       ??$?0AEBV?$allocator@U?$pair@$$CBHH@std@@@std@@$$V@?$_Compressed_pair@V?$allocator@U?$_List_node@U?$pair@$$CBHH@std@@PEAX@std@@@std@@V?$_List_val@U?$_List_simple_types@U?$pair@$$CBHH@std@@@std@@@2@$00@std@@QEAA@U_One_then_variadic_args_t@1@AEBV?$allocator@U?$pair@$$CBHH@std@@@1@@Z 0000000180036d70 f i priorityqueue_api.obj
 0001:00035db0       ??$?0AEBV?$allocator@U?$pair@$$CBHH@std@@@std@@$$V@?$_Compressed_pair@V?$allocator@V?$_List_unchecked_iterator@V?$_List_val@U?$_List_simple_types@U?$pair@$$CBHH@std@@@std@@@std@@@std@@@std@@V?$_Vector_val@U?$_Simple_types@V?$_List_unchecked_iterator@V?$_List_val@U?$_List_simple_types@U?$pair@$$CBHH@std@@@std@@@std@@@std@@@std@@@2@$00@std@@QEAA@U_One_then_variadic_args_t@1@AEBV?$allocator@U?$pair@$$CBHH@std@@@1@@Z 0000000180036db0 f i priorityqueue_api.obj
 0001:00035df0       ??$?0AEBV?$allocator@U?$pair@$$CBHH@std@@@std@@$0A@@?$_Hash_vec@V?$allocator@V?$_List_unchecked_iterator@V?$_List_val@U?$_List_simple_types@U?$pair@$$CBHH@std@@@std@@@std@@@std@@@std@@@std@@QEAA@AEBV?$allocator@U?$pair@$$CBHH@std@@@1@@Z 0000000180036df0 f i priorityqueue_api.obj
 0001:00035e40       ??$?0AEBV?$allocator@U?$pair@$$CBHV?$vector@NV?$allocator@N@std@@@std@@@std@@@std@@$$V@?$_Compressed_pair@V?$allocator@U?$_List_node@U?$pair@$$CBHV?$vector@NV?$allocator@N@std@@@std@@@std@@PEAX@std@@@std@@V?$_List_val@U?$_List_simple_types@U?$pair@$$CBHV?$vector@NV?$allocator@N@std@@@std@@@std@@@std@@@2@$00@std@@QEAA@U_One_then_variadic_args_t@1@AEBV?$allocator@U?$pair@$$CBHV?$vector@NV?$allocator@N@std@@@std@@@std@@@1@@Z 0000000180036e40 f i priorityqueue_api.obj
 0001:00035e80       ??$?0AEBV?$allocator@U?$pair@$$CBHV?$vector@NV?$allocator@N@std@@@std@@@std@@@std@@$$V@?$_Compressed_pair@V?$allocator@V?$_List_unchecked_iterator@V?$_List_val@U?$_List_simple_types@U?$pair@$$CBHV?$vector@NV?$allocator@N@std@@@std@@@std@@@std@@@std@@@std@@@std@@V?$_Vector_val@U?$_Simple_types@V?$_List_unchecked_iterator@V?$_List_val@U?$_List_simple_types@U?$pair@$$CBHV?$vector@NV?$allocator@N@std@@@std@@@std@@@std@@@std@@@std@@@std@@@2@$00@std@@QEAA@U_One_then_variadic_args_t@1@AEBV?$allocator@U?$pair@$$CBHV?$vector@NV?$allocator@N@std@@@std@@@std@@@1@@Z 0000000180036e80 f i priorityqueue_api.obj
 0001:00035ec0       ??$?0AEBV?$allocator@U?$pair@$$CBHV?$vector@NV?$allocator@N@std@@@std@@@std@@@std@@$0A@@?$_Hash_vec@V?$allocator@V?$_List_unchecked_iterator@V?$_List_val@U?$_List_simple_types@U?$pair@$$CBHV?$vector@NV?$allocator@N@std@@@std@@@std@@@std@@@std@@@std@@@std@@@std@@QEAA@AEBV?$allocator@U?$pair@$$CBHV?$vector@NV?$allocator@N@std@@@std@@@std@@@1@@Z 0000000180036ec0 f i priorityqueue_api.obj
 0001:00035f10       ??$?0HV?$vector@NV?$allocator@N@std@@@std@@$0A@@?$pair@HV?$vector@NV?$allocator@N@std@@@std@@@std@@QEAA@$$QEAH$$QEAV?$vector@NV?$allocator@N@std@@@1@@Z 0000000180036f10 f i priorityqueue_api.obj
 0001:00035f60       ??$?0M@?$_Compressed_pair@U?$equal_to@H@std@@M$00@std@@QEAA@U_Zero_then_variadic_args_t@1@$$QEAM@Z 0000000180036f60 f i priorityqueue_api.obj
 0001:00035fa0       ??$?0PEAU?$_List_node@U?$pair@$$CBHH@std@@PEAX@std@@_N$0A@@?$pair@PEAU?$_List_node@U?$pair@$$CBHH@std@@PEAX@std@@_N@std@@QEAA@$$QEAPEAU?$_List_node@U?$pair@$$CBHH@std@@PEAX@1@$$QEA_N@Z 0000000180036fa0 f i priorityqueue_api.obj
 0001:00035ff0       ??$?0PEAU?$_List_node@U?$pair@$$CBHV?$vector@NV?$allocator@N@std@@@std@@@std@@PEAX@std@@_N$0A@@?$pair@PEAU?$_List_node@U?$pair@$$CBHV?$vector@NV?$allocator@N@std@@@std@@@std@@PEAX@std@@_N@std@@QEAA@$$QEAPEAU?$_List_node@U?$pair@$$CBHV?$vector@NV?$allocator@N@std@@@std@@@std@@PEAX@1@$$QEA_N@Z 0000000180036ff0 f i priorityqueue_api.obj
 0001:00036040       ??$?0PEBN$0A@@?$vector@NV?$allocator@N@std@@@std@@QEAA@PEBN0AEBV?$allocator@N@1@@Z 0000000180037040 f i priorityqueue_api.obj
 0001:00036100       ??$?0U?$pair@$$CBHH@std@@@?$allocator@U?$_List_node@U?$pair@$$CBHH@std@@PEAX@std@@@std@@QEAA@AEBV?$allocator@U?$pair@$$CBHH@std@@@1@@Z 0000000180037100 f i priorityqueue_api.obj
 0001:00036110       ??$?0U?$pair@$$CBHH@std@@@?$allocator@V?$_List_unchecked_iterator@V?$_List_val@U?$_List_simple_types@U?$pair@$$CBHH@std@@@std@@@std@@@std@@@std@@QEAA@AEBV?$allocator@U?$pair@$$CBHH@std@@@1@@Z 0000000180037110 f i priorityqueue_api.obj
 0001:00036120       ??$?0U?$pair@$$CBHV?$vector@NV?$allocator@N@std@@@std@@@std@@@?$allocator@U?$_List_node@U?$pair@$$CBHV?$vector@NV?$allocator@N@std@@@std@@@std@@PEAX@std@@@std@@QEAA@AEBV?$allocator@U?$pair@$$CBHV?$vector@NV?$allocator@N@std@@@std@@@std@@@1@@Z 0000000180037120 f i priorityqueue_api.obj
 0001:00036130       ??$?0U?$pair@$$CBHV?$vector@NV?$allocator@N@std@@@std@@@std@@@?$allocator@V?$_List_unchecked_iterator@V?$_List_val@U?$_List_simple_types@U?$pair@$$CBHV?$vector@NV?$allocator@N@std@@@std@@@std@@@std@@@std@@@std@@@std@@QEAA@AEBV?$allocator@U?$pair@$$CBHV?$vector@NV?$allocator@N@std@@@std@@@std@@@1@@Z 0000000180037130 f i priorityqueue_api.obj
 0001:00036140       ??$?0U_Exact_args_t@std@@$0A@@?$tuple@$$V@std@@QEAA@U_Exact_args_t@1@@Z 0000000180037140 f i priorityqueue_api.obj
 0001:00036150       ??$?0U_Exact_args_t@std@@AEBH$$V$0A@@?$tuple@AEBH@std@@QEAA@U_Exact_args_t@1@AEBH@Z 0000000180037150 f i priorityqueue_api.obj
 0001:000361a0       ??$?0U_Zero_then_variadic_args_t@std@@M@?$_Compressed_pair@U?$hash@H@std@@V?$_Compressed_pair@U?$equal_to@H@std@@M$00@2@$00@std@@QEAA@U_Zero_then_variadic_args_t@1@$$QEAU21@$$QEAM@Z 00000001800371a0 f i priorityqueue_api.obj
 0001:000361f0       ??$?0V?$allocator@N@std@@$$V@?$_Compressed_pair@V?$allocator@N@std@@V?$_Vector_val@U?$_Simple_types@N@std@@@2@$00@std@@QEAA@U_One_then_variadic_args_t@1@$$QEAV?$allocator@N@1@@Z 00000001800371f0 f i priorityqueue_api.obj
 0001:00036230       ??$?0V?$allocator@N@std@@PEANPEANPEAN@?$_Compressed_pair@V?$allocator@N@std@@V?$_Vector_val@U?$_Simple_types@N@std@@@2@$00@std@@QEAA@U_One_then_variadic_args_t@1@$$QEAV?$allocator@N@1@$$QEAPEAN22@Z 0000000180037230 f i priorityqueue_api.obj
 0001:000362a0       ??$?0V?$allocator@V?$vector@NV?$allocator@N@std@@@std@@@std@@PEAV?$vector@NV?$allocator@N@std@@@1@PEAV21@PEAV21@@?$_Compressed_pair@V?$allocator@V?$vector@NV?$allocator@N@std@@@std@@@std@@V?$_Vector_val@U?$_Simple_types@V?$vector@NV?$allocator@N@std@@@std@@@std@@@2@$00@std@@QEAA@U_One_then_variadic_args_t@1@$$QEAV?$allocator@V?$vector@NV?$allocator@N@std@@@std@@@1@$$QEAPEAV?$vector@NV?$allocator@N@std@@@1@22@Z 00000001800372a0 f i priorityqueue_api.obj
 0001:00036310       ??$?0V?$tuple@AEBH@std@@V?$tuple@$$V@1@$0A@$$Z$S@?$pair@$$CBHH@std@@QEAA@AEAV?$tuple@AEBH@1@AEAV?$tuple@$$V@1@U?$integer_sequence@_K$0A@@1@U?$integer_sequence@_K$S@1@@Z 0000000180037310 f i priorityqueue_api.obj
 0001:00036360       ??$?0V?$tuple@AEBH@std@@V?$tuple@$$V@1@$0A@$$Z$S@?$pair@$$CBHV?$vector@NV?$allocator@N@std@@@std@@@std@@QEAA@AEAV?$tuple@AEBH@1@AEAV?$tuple@$$V@1@U?$integer_sequence@_K$0A@@1@U?$integer_sequence@_K$S@1@@Z 0000000180037360 f i priorityqueue_api.obj
 0001:000363b0       ??$?4U?$pair@HV?$vector@NV?$allocator@N@std@@@std@@@std@@$0A@@?$pair@HV?$vector@NV?$allocator@N@std@@@std@@@std@@QEAAAEAU01@$$QEAU01@@Z 00000001800373b0 f i priorityqueue_api.obj
 0001:00036400       ??$?RH@?$_Uhash_compare@HU?$hash@H@std@@U?$equal_to@H@2@@std@@QEBA_KAEBH@Z 0000000180037400 f i priorityqueue_api.obj
 0001:00036430       ??$?RHH@?$_Uhash_compare@HU?$hash@H@std@@U?$equal_to@H@2@@std@@QEBA_NAEBH0@Z 0000000180037430 f i priorityqueue_api.obj
 0001:00036490       ??$_Adl_verify_range@PEAV?$_List_unchecked_iterator@V?$_List_val@U?$_List_simple_types@U?$pair@$$CBHH@std@@@std@@@std@@@std@@PEAV12@@std@@YAXAEBQEAV?$_List_unchecked_iterator@V?$_List_val@U?$_List_simple_types@U?$pair@$$CBHH@std@@@std@@@std@@@0@0@Z 0000000180037490 f i priorityqueue_api.obj
 0001:000364a0       ??$_Adl_verify_range@PEAV?$_List_unchecked_iterator@V?$_List_val@U?$_List_simple_types@U?$pair@$$CBHV?$vector@NV?$allocator@N@std@@@std@@@std@@@std@@@std@@@std@@PEAV12@@std@@YAXAEBQEAV?$_List_unchecked_iterator@V?$_List_val@U?$_List_simple_types@U?$pair@$$CBHV?$vector@NV?$allocator@N@std@@@std@@@std@@@std@@@std@@@0@0@Z 00000001800374a0 f i priorityqueue_api.obj
 0001:000364b0       ??$_Adl_verify_range@PEBNPEBN@std@@YAXAEBQEBN0@Z 00000001800374b0 f i priorityqueue_api.obj
 0001:000364c0       ??$_Adl_verify_range@V?$_Vector_iterator@V?$_Vector_val@U?$_Simple_types@U?$pair@HV?$vector@NV?$allocator@N@std@@@std@@@std@@@std@@@std@@@std@@V12@@std@@YAXAEBV?$_Vector_iterator@V?$_Vector_val@U?$_Simple_types@U?$pair@HV?$vector@NV?$allocator@N@std@@@std@@@std@@@std@@@std@@@0@0@Z 00000001800374c0 f i priorityqueue_api.obj
 0001:000364d0       ??$_Allocate@$0BA@U_Default_allocate_traits@std@@$0A@@std@@YAPEAX_K@Z 00000001800374d0 f i priorityqueue_api.obj
 0001:00036510       ??$_Allocate_at_least_helper@V?$allocator@N@std@@@std@@YAPEANAEAV?$allocator@N@0@AEA_K@Z 0000000180037510 f i priorityqueue_api.obj
 0001:00036540       ??$_Allocate_at_least_helper@V?$allocator@U?$pair@HV?$vector@NV?$allocator@N@std@@@std@@@std@@@std@@@std@@YAPEAU?$pair@HV?$vector@NV?$allocator@N@std@@@std@@@0@AEAV?$allocator@U?$pair@HV?$vector@NV?$allocator@N@std@@@std@@@std@@@0@AEA_K@Z 0000000180037540 f i priorityqueue_api.obj
 0001:00036570       ??$_Allocate_at_least_helper@V?$allocator@V?$vector@NV?$allocator@N@std@@@std@@@std@@@std@@YAPEAV?$vector@NV?$allocator@N@std@@@0@AEAV?$allocator@V?$vector@NV?$allocator@N@std@@@std@@@0@AEA_K@Z 0000000180037570 f i priorityqueue_api.obj
 0001:000365a0       ??$_Allocate_manually_vector_aligned@U_Default_allocate_traits@std@@@std@@YAPEAX_K@Z 00000001800375a0 f i priorityqueue_api.obj
 0001:00036630       ??$_Construct_in_place@PEAU?$_List_node@U?$pair@$$CBHH@std@@PEAX@std@@AEAPEAU12@@std@@YAXAEAPEAU?$_List_node@U?$pair@$$CBHH@std@@PEAX@0@0@Z 0000000180037630 f i priorityqueue_api.obj
 0001:00036680       ??$_Construct_in_place@PEAU?$_List_node@U?$pair@$$CBHH@std@@PEAX@std@@AEBQEAU12@@std@@YAXAEAPEAU?$_List_node@U?$pair@$$CBHH@std@@PEAX@0@AEBQEAU10@@Z 0000000180037680 f i priorityqueue_api.obj
 0001:000366d0       ??$_Construct_in_place@PEAU?$_List_node@U?$pair@$$CBHV?$vector@NV?$allocator@N@std@@@std@@@std@@PEAX@std@@AEAPEAU12@@std@@YAXAEAPEAU?$_List_node@U?$pair@$$CBHV?$vector@NV?$allocator@N@std@@@std@@@std@@PEAX@0@0@Z 00000001800376d0 f i priorityqueue_api.obj
 0001:00036720       ??$_Construct_in_place@PEAU?$_List_node@U?$pair@$$CBHV?$vector@NV?$allocator@N@std@@@std@@@std@@PEAX@std@@AEBQEAU12@@std@@YAXAEAPEAU?$_List_node@U?$pair@$$CBHV?$vector@NV?$allocator@N@std@@@std@@@std@@PEAX@0@AEBQEAU10@@Z 0000000180037720 f i priorityqueue_api.obj
 0001:00036770       ??$_Construct_in_place@U?$pair@HV?$vector@NV?$allocator@N@std@@@std@@@std@@AEAHV?$vector@NV?$allocator@N@std@@@2@@std@@YAXAEAU?$pair@HV?$vector@NV?$allocator@N@std@@@std@@@0@AEAH$$QEAV?$vector@NV?$allocator@N@std@@@0@@Z 0000000180037770 f i priorityqueue_api.obj
 0001:000367e0       ??$_Construct_in_place@V?$_List_unchecked_iterator@V?$_List_val@U?$_List_simple_types@U?$pair@$$CBHH@std@@@std@@@std@@@std@@AEBV12@@std@@YAXAEAV?$_List_unchecked_iterator@V?$_List_val@U?$_List_simple_types@U?$pair@$$CBHH@std@@@std@@@std@@@0@AEBV10@@Z 00000001800377e0 f i priorityqueue_api.obj
 0001:00036830       ??$_Construct_in_place@V?$_List_unchecked_iterator@V?$_List_val@U?$_List_simple_types@U?$pair@$$CBHV?$vector@NV?$allocator@N@std@@@std@@@std@@@std@@@std@@@std@@AEBV12@@std@@YAXAEAV?$_List_unchecked_iterator@V?$_List_val@U?$_List_simple_types@U?$pair@$$CBHV?$vector@NV?$allocator@N@std@@@std@@@std@@@std@@@std@@@0@AEBV10@@Z 0000000180037830 f i priorityqueue_api.obj
 0001:00036880       ??$_Construct_n@AEBN@?$vector@NV?$allocator@N@std@@@std@@AEAAX_KAEBN@Z 0000000180037880 f i priorityqueue_api.obj
 0001:00036940       ??$_Construct_n@AEBQEANAEBQEAN@?$vector@NV?$allocator@N@std@@@std@@AEAAX_KAEBQEAN1@Z 0000000180037940 f i priorityqueue_api.obj
 0001:00036a20       ??$_Construct_n@PEBNPEBN@?$vector@NV?$allocator@N@std@@@std@@AEAAX_K$$QEAPEBN1@Z 0000000180037a20 f i priorityqueue_api.obj
 0001:00036b00       ??$_Convert_size@_K_K@std@@YA_K_K@Z 0000000180037b00 f i priorityqueue_api.obj
 0001:00036b10       ??$_Copy_memmove@PEANPEAN@std@@YAPEANPEAN00@Z 0000000180037b10 f i priorityqueue_api.obj
 0001:00036bb0       ??$_Copy_memmove@PEBNPEAN@std@@YAPEANPEBN0PEAN@Z 0000000180037bb0 f i priorityqueue_api.obj
 0001:00036c50       ??$_Deallocate@$0BA@$0A@@std@@YAXPEAX_K@Z 0000000180037c50 f i priorityqueue_api.obj
 0001:00036c90       ??$_Destroy_in_place@PEAU?$_List_node@U?$pair@$$CBHH@std@@PEAX@std@@@std@@YAXAEAPEAU?$_List_node@U?$pair@$$CBHH@std@@PEAX@0@@Z 0000000180037c90 f i priorityqueue_api.obj
 0001:00036ca0       ??$_Destroy_in_place@PEAU?$_List_node@U?$pair@$$CBHV?$vector@NV?$allocator@N@std@@@std@@@std@@PEAX@std@@@std@@YAXAEAPEAU?$_List_node@U?$pair@$$CBHV?$vector@NV?$allocator@N@std@@@std@@@std@@PEAX@0@@Z 0000000180037ca0 f i priorityqueue_api.obj
 0001:00036cb0       ??$_Destroy_range@PEAV?$_List_unchecked_iterator@V?$_List_val@U?$_List_simple_types@U?$pair@$$CBHH@std@@@std@@@std@@@std@@PEAV12@@std@@YAXPEAV?$_List_unchecked_iterator@V?$_List_val@U?$_List_simple_types@U?$pair@$$CBHH@std@@@std@@@std@@@0@QEAV10@@Z 0000000180037cb0 f i priorityqueue_api.obj
 0001:00036cc0       ??$_Destroy_range@PEAV?$_List_unchecked_iterator@V?$_List_val@U?$_List_simple_types@U?$pair@$$CBHV?$vector@NV?$allocator@N@std@@@std@@@std@@@std@@@std@@@std@@PEAV12@@std@@YAXPEAV?$_List_unchecked_iterator@V?$_List_val@U?$_List_simple_types@U?$pair@$$CBHV?$vector@NV?$allocator@N@std@@@std@@@std@@@std@@@std@@@0@QEAV10@@Z 0000000180037cc0 f i priorityqueue_api.obj
 0001:00036cd0       ??$_Destroy_range@V?$allocator@N@std@@@std@@YAXPEANQEANAEAV?$allocator@N@0@@Z 0000000180037cd0 f i priorityqueue_api.obj
 0001:00036ce0       ??$_Destroy_range@V?$allocator@U?$pair@HV?$vector@NV?$allocator@N@std@@@std@@@std@@@std@@@std@@YAXPEAU?$pair@HV?$vector@NV?$allocator@N@std@@@std@@@0@QEAU10@AEAV?$allocator@U?$pair@HV?$vector@NV?$allocator@N@std@@@std@@@std@@@0@@Z 0000000180037ce0 f i priorityqueue_api.obj
 0001:00036d30       ??$_Destroy_range@V?$allocator@V?$vector@NV?$allocator@N@std@@@std@@@std@@@std@@YAXPEAV?$vector@NV?$allocator@N@std@@@0@QEAV10@AEAV?$allocator@V?$vector@NV?$allocator@N@std@@@std@@@0@@Z 0000000180037d30 f i priorityqueue_api.obj
 0001:00036d80       ??$_Emplace_back@AEAN@?$_Uninitialized_backout_al@V?$allocator@N@std@@@std@@QEAAXAEAN@Z 0000000180037d80 f i priorityqueue_api.obj
 0001:00036de0       ??$_Emplace_back@AEBN@?$_Uninitialized_backout_al@V?$allocator@N@std@@@std@@QEAAXAEBN@Z 0000000180037de0 f i priorityqueue_api.obj
 0001:00036e40       ??$_Emplace_back@AEBV?$_List_unchecked_iterator@V?$_List_val@U?$_List_simple_types@U?$pair@$$CBHH@std@@@std@@@std@@@std@@@?$_Uninitialized_backout@PEAV?$_List_unchecked_iterator@V?$_List_val@U?$_List_simple_types@U?$pair@$$CBHH@std@@@std@@@std@@@std@@@std@@QEAAXAEBV?$_List_unchecked_iterator@V?$_List_val@U?$_List_simple_types@U?$pair@$$CBHH@std@@@std@@@std@@@1@@Z 0000000180037e40 f i priorityqueue_api.obj
 0001:00036e90       ??$_Emplace_back@AEBV?$_List_unchecked_iterator@V?$_List_val@U?$_List_simple_types@U?$pair@$$CBHV?$vector@NV?$allocator@N@std@@@std@@@std@@@std@@@std@@@std@@@?$_Uninitialized_backout@PEAV?$_List_unchecked_iterator@V?$_List_val@U?$_List_simple_types@U?$pair@$$CBHV?$vector@NV?$allocator@N@std@@@std@@@std@@@std@@@std@@@std@@@std@@QEAAXAEBV?$_List_unchecked_iterator@V?$_List_val@U?$_List_simple_types@U?$pair@$$CBHV?$vector@NV?$allocator@N@std@@@std@@@std@@@std@@@std@@@1@@Z 0000000180037e90 f i priorityqueue_api.obj
 0001:00036ee0       ??$_Emplace_back@U?$pair@HV?$vector@NV?$allocator@N@std@@@std@@@std@@@?$_Uninitialized_backout_al@V?$allocator@U?$pair@HV?$vector@NV?$allocator@N@std@@@std@@@std@@@std@@@std@@QEAAX$$QEAU?$pair@HV?$vector@NV?$allocator@N@std@@@std@@@1@@Z 0000000180037ee0 f i priorityqueue_api.obj
 0001:00036f40       ??$_Emplace_back@V?$vector@NV?$allocator@N@std@@@std@@@?$_Uninitialized_backout_al@V?$allocator@V?$vector@NV?$allocator@N@std@@@std@@@std@@@std@@QEAAX$$QEAV?$vector@NV?$allocator@N@std@@@1@@Z 0000000180037f40 f i priorityqueue_api.obj
 0001:00036fa0       ??$_Emplace_back_with_unused_capacity@AEAHV?$vector@NV?$allocator@N@std@@@std@@@?$vector@U?$pair@HV?$vector@NV?$allocator@N@std@@@std@@@std@@V?$allocator@U?$pair@HV?$vector@NV?$allocator@N@std@@@std@@@std@@@2@@std@@AEAAAEAU?$pair@HV?$vector@NV?$allocator@N@std@@@std@@@1@AEAH$$QEAV?$vector@NV?$allocator@N@std@@@1@@Z 0000000180037fa0 f i priorityqueue_api.obj
 0001:00037050       ??$_Emplace_back_with_unused_capacity@AEBHN@?$vector@V?$vector@NV?$allocator@N@std@@@std@@V?$allocator@V?$vector@NV?$allocator@N@std@@@std@@@2@@std@@AEAAAEAV?$vector@NV?$allocator@N@std@@@1@AEBH$$QEAN@Z 0000000180038050 f i priorityqueue_api.obj
 0001:00037120       ??$_Emplace_back_with_unused_capacity@AEBV?$vector@NV?$allocator@N@std@@@std@@@?$vector@V?$vector@NV?$allocator@N@std@@@std@@V?$allocator@V?$vector@NV?$allocator@N@std@@@std@@@2@@std@@AEAAAEAV?$vector@NV?$allocator@N@std@@@1@AEBV21@@Z 0000000180038120 f i priorityqueue_api.obj
 0001:000371d0       ??$_Emplace_one_at_back@AEAHV?$vector@NV?$allocator@N@std@@@std@@@?$vector@U?$pair@HV?$vector@NV?$allocator@N@std@@@std@@@std@@V?$allocator@U?$pair@HV?$vector@NV?$allocator@N@std@@@std@@@std@@@2@@std@@AEAAAEAU?$pair@HV?$vector@NV?$allocator@N@std@@@std@@@1@AEAH$$QEAV?$vector@NV?$allocator@N@std@@@1@@Z 00000001800381d0 f i priorityqueue_api.obj
 0001:00037280       ??$_Emplace_one_at_back@AEBHN@?$vector@V?$vector@NV?$allocator@N@std@@@std@@V?$allocator@V?$vector@NV?$allocator@N@std@@@std@@@2@@std@@AEAAAEAV?$vector@NV?$allocator@N@std@@@1@AEBH$$QEAN@Z 0000000180038280 f i priorityqueue_api.obj
 0001:00037330       ??$_Emplace_one_at_back@AEBV?$vector@NV?$allocator@N@std@@@std@@@?$vector@V?$vector@NV?$allocator@N@std@@@std@@V?$allocator@V?$vector@NV?$allocator@N@std@@@std@@@2@@std@@AEAAAEAV?$vector@NV?$allocator@N@std@@@1@AEBV21@@Z 0000000180038330 f i priorityqueue_api.obj
 0001:000373b0       ??$_Emplace_reallocate@AEAHV?$vector@NV?$allocator@N@std@@@std@@@?$vector@U?$pair@HV?$vector@NV?$allocator@N@std@@@std@@@std@@V?$allocator@U?$pair@HV?$vector@NV?$allocator@N@std@@@std@@@std@@@2@@std@@AEAAPEAU?$pair@HV?$vector@NV?$allocator@N@std@@@std@@@1@QEAU21@AEAH$$QEAV?$vector@NV?$allocator@N@std@@@1@@Z 00000001800383b0 f i priorityqueue_api.obj
 0001:000375f0       ??$_Emplace_reallocate@AEBHN@?$vector@V?$vector@NV?$allocator@N@std@@@std@@V?$allocator@V?$vector@NV?$allocator@N@std@@@std@@@2@@std@@AEAAPEAV?$vector@NV?$allocator@N@std@@@1@QEAV21@AEBH$$QEAN@Z 00000001800385f0 f i priorityqueue_api.obj
 0001:00037830       ??$_Emplace_reallocate@AEBV?$vector@NV?$allocator@N@std@@@std@@@?$vector@V?$vector@NV?$allocator@N@std@@@std@@V?$allocator@V?$vector@NV?$allocator@N@std@@@std@@@2@@std@@AEAAPEAV?$vector@NV?$allocator@N@std@@@1@QEAV21@AEBV21@@Z 0000000180038830 f i priorityqueue_api.obj
 0001:00037a50       ??$_Fill_zero_memset@PEAN@std@@YAXPEAN_K@Z 0000000180038a50 f i priorityqueue_api.obj
 0001:00037a90       ??$_Find@H@?$_Hash@V?$_Umap_traits@HHV?$_Uhash_compare@HU?$hash@H@std@@U?$equal_to@H@2@@std@@V?$allocator@U?$pair@$$CBHH@std@@@2@$0A@@std@@@std@@AEBAPEAU?$_List_node@U?$pair@$$CBHH@std@@PEAX@1@AEBH_K@Z 0000000180038a90 f i priorityqueue_api.obj
 0001:00037af0       ??$_Find@H@?$_Hash@V?$_Umap_traits@HV?$vector@NV?$allocator@N@std@@@std@@V?$_Uhash_compare@HU?$hash@H@std@@U?$equal_to@H@2@@2@V?$allocator@U?$pair@$$CBHV?$vector@NV?$allocator@N@std@@@std@@@std@@@2@$0A@@std@@@std@@AEBAPEAU?$_List_node@U?$pair@$$CBHV?$vector@NV?$allocator@N@std@@@std@@@std@@PEAX@1@AEBH_K@Z 0000000180038af0 f i priorityqueue_api.obj
 0001:00037b50       ??$_Find_last@H@?$_Hash@V?$_Umap_traits@HHV?$_Uhash_compare@HU?$hash@H@std@@U?$equal_to@H@2@@std@@V?$allocator@U?$pair@$$CBHH@std@@@2@$0A@@std@@@std@@IEBA?AU?$_Hash_find_last_result@PEAU?$_List_node@U?$pair@$$CBHH@std@@PEAX@std@@@1@AEBH_K@Z 0000000180038b50 f i priorityqueue_api.obj
 0001:00037c90       ??$_Find_last@H@?$_Hash@V?$_Umap_traits@HV?$vector@NV?$allocator@N@std@@@std@@V?$_Uhash_compare@HU?$hash@H@std@@U?$equal_to@H@2@@2@V?$allocator@U?$pair@$$CBHV?$vector@NV?$allocator@N@std@@@std@@@std@@@2@$0A@@std@@@std@@IEBA?AU?$_Hash_find_last_result@PEAU?$_List_node@U?$pair@$$CBHV?$vector@NV?$allocator@N@std@@@std@@@std@@PEAX@std@@@1@AEBH_K@Z 0000000180038c90 f i priorityqueue_api.obj
 0001:00037dd0       ??$_Fnv1a_append_value@H@std@@YA_K_KAEBH@Z 0000000180038dd0 f i priorityqueue_api.obj
 0001:00037e00       ??$_Free_non_head@V?$allocator@U?$_List_node@U?$pair@$$CBHH@std@@PEAX@std@@@std@@@?$_List_node@U?$pair@$$CBHH@std@@PEAX@std@@SAXAEAV?$allocator@U?$_List_node@U?$pair@$$CBHH@std@@PEAX@std@@@1@PEAU01@@Z 0000000180038e00 f i priorityqueue_api.obj
 0001:00037e70       ??$_Free_non_head@V?$allocator@U?$_List_node@U?$pair@$$CBHV?$vector@NV?$allocator@N@std@@@std@@@std@@PEAX@std@@@std@@@?$_List_node@U?$pair@$$CBHV?$vector@NV?$allocator@N@std@@@std@@@std@@PEAX@std@@SAXAEAV?$allocator@U?$_List_node@U?$pair@$$CBHV?$vector@NV?$allocator@N@std@@@std@@@std@@PEAX@std@@@1@PEAU01@@Z 0000000180038e70 f i priorityqueue_api.obj
 0001:00037ee0       ??$_Freenode0@V?$allocator@U?$_List_node@U?$pair@$$CBHH@std@@PEAX@std@@@std@@@?$_List_node@U?$pair@$$CBHH@std@@PEAX@std@@SAXAEAV?$allocator@U?$_List_node@U?$pair@$$CBHH@std@@PEAX@std@@@1@PEAU01@@Z 0000000180038ee0 f i priorityqueue_api.obj
 0001:00037f30       ??$_Freenode0@V?$allocator@U?$_List_node@U?$pair@$$CBHV?$vector@NV?$allocator@N@std@@@std@@@std@@PEAX@std@@@std@@@?$_List_node@U?$pair@$$CBHV?$vector@NV?$allocator@N@std@@@std@@@std@@PEAX@std@@SAXAEAV?$allocator@U?$_List_node@U?$pair@$$CBHV?$vector@NV?$allocator@N@std@@@std@@@std@@PEAX@std@@@1@PEAU01@@Z 0000000180038f30 f i priorityqueue_api.obj
 0001:00037f80       ??$_Freenode@V?$allocator@U?$_List_node@U?$pair@$$CBHH@std@@PEAX@std@@@std@@@?$_List_node@U?$pair@$$CBHH@std@@PEAX@std@@SAXAEAV?$allocator@U?$_List_node@U?$pair@$$CBHH@std@@PEAX@std@@@1@PEAU01@@Z 0000000180038f80 f i priorityqueue_api.obj
 0001:00037fd0       ??$_Freenode@V?$allocator@U?$_List_node@U?$pair@$$CBHV?$vector@NV?$allocator@N@std@@@std@@@std@@PEAX@std@@@std@@@?$_List_node@U?$pair@$$CBHV?$vector@NV?$allocator@N@std@@@std@@@std@@PEAX@std@@SAXAEAV?$allocator@U?$_List_node@U?$pair@$$CBHV?$vector@NV?$allocator@N@std@@@std@@@std@@PEAX@std@@@1@PEAU01@@Z 0000000180038fd0 f i priorityqueue_api.obj
 0001:00038020       ??$_Get_size_of_n@$07@std@@YA_K_K@Z 0000000180039020 f i priorityqueue_api.obj
 0001:00038070       ??$_Get_size_of_n@$0BI@@std@@YA_K_K@Z 0000000180039070 f i priorityqueue_api.obj
 0001:000380b0       ??$_Get_size_of_n@$0CA@@std@@YA_K_K@Z 00000001800390b0 f i priorityqueue_api.obj
 0001:000380f0       ??$_Get_size_of_n@$0DA@@std@@YA_K_K@Z 00000001800390f0 f i priorityqueue_api.obj
 0001:00038130       ??$_Get_unwrapped@AEAPEBN@std@@YA?A_TAEAPEBN@Z 0000000180039130 f i priorityqueue_api.obj
 0001:00038140       ??$_Get_unwrapped@AEAV?$_Vector_iterator@V?$_Vector_val@U?$_Simple_types@U?$pair@HV?$vector@NV?$allocator@N@std@@@std@@@std@@@std@@@std@@@std@@@std@@YA?A_TAEAV?$_Vector_iterator@V?$_Vector_val@U?$_Simple_types@U?$pair@HV?$vector@NV?$allocator@N@std@@@std@@@std@@@std@@@std@@@0@@Z 0000000180039140 f i priorityqueue_api.obj
 0001:00038160       ??$_Get_unwrapped@AEBQEAU?$pair@HV?$vector@NV?$allocator@N@std@@@std@@@std@@@std@@YA?A_TAEBQEAU?$pair@HV?$vector@NV?$allocator@N@std@@@std@@@0@@Z 0000000180039160 f i priorityqueue_api.obj
 0001:00038170       ??$_Get_unwrapped@AEBQEAV?$_List_unchecked_iterator@V?$_List_val@U?$_List_simple_types@U?$pair@$$CBHH@std@@@std@@@std@@@std@@@std@@YA?A_TAEBQEAV?$_List_unchecked_iterator@V?$_List_val@U?$_List_simple_types@U?$pair@$$CBHH@std@@@std@@@std@@@0@@Z 0000000180039170 f i priorityqueue_api.obj
 0001:00038180       ??$_Get_unwrapped@AEBQEAV?$_List_unchecked_iterator@V?$_List_val@U?$_List_simple_types@U?$pair@$$CBHV?$vector@NV?$allocator@N@std@@@std@@@std@@@std@@@std@@@std@@@std@@YA?A_TAEBQEAV?$_List_unchecked_iterator@V?$_List_val@U?$_List_simple_types@U?$pair@$$CBHV?$vector@NV?$allocator@N@std@@@std@@@std@@@std@@@std@@@0@@Z 0000000180039180 f i priorityqueue_api.obj
 0001:00038190       ??$_Get_unwrapped@AEBQEAV?$vector@NV?$allocator@N@std@@@std@@@std@@YA?A_TAEBQEAV?$vector@NV?$allocator@N@std@@@0@@Z 0000000180039190 f i priorityqueue_api.obj
 0001:000381a0       ??$_Get_unwrapped@PEAN@std@@YA?A_T$$QEAPEAN@Z 00000001800391a0 f i priorityqueue_api.obj
 0001:000381b0       ??$_Get_unwrapped@PEBN@std@@YA?A_T$$QEAPEBN@Z 00000001800391b0 f i priorityqueue_api.obj
 0001:000381c0       ??$_Hash_representation@H@std@@YA_KAEBH@Z 00000001800391c0 f i priorityqueue_api.obj
 0001:000381f0       ??$_Is_all_bits_zero@N@std@@YA_NAEBN@Z 00000001800391f0 f i priorityqueue_api.obj
 0001:00038240       ??$_Kfn@$$CBHH@?$_Umap_traits@HHV?$_Uhash_compare@HU?$hash@H@std@@U?$equal_to@H@2@@std@@V?$allocator@U?$pair@$$CBHH@std@@@2@$0A@@std@@SAAEBHAEBU?$pair@$$CBHH@1@@Z 0000000180039240 f i priorityqueue_api.obj
 0001:00038250       ??$_Kfn@$$CBHV?$vector@NV?$allocator@N@std@@@std@@@?$_Umap_traits@HV?$vector@NV?$allocator@N@std@@@std@@V?$_Uhash_compare@HU?$hash@H@std@@U?$equal_to@H@2@@2@V?$allocator@U?$pair@$$CBHV?$vector@NV?$allocator@N@std@@@std@@@std@@@2@$0A@@std@@SAAEBHAEBU?$pair@$$CBHV?$vector@NV?$allocator@N@std@@@std@@@1@@Z 0000000180039250 f i priorityqueue_api.obj
 0001:00038260       ??$_Pass_fn@Ucomparator@PriorityQueueImpl@nav@@@std@@YA?A_PAEAUcomparator@PriorityQueueImpl@nav@@@Z 0000000180039260 f i priorityqueue_api.obj
 0001:00038290       ??$_Pocma@V?$allocator@N@std@@@std@@YAXAEAV?$allocator@N@0@0@Z 0000000180039290 f i priorityqueue_api.obj
 0001:000382b0       ??$_Pocma@V?$allocator@U?$_List_node@U?$pair@$$CBHH@std@@PEAX@std@@@std@@@std@@YAXAEAV?$allocator@U?$_List_node@U?$pair@$$CBHH@std@@PEAX@std@@@0@0@Z 00000001800392b0 f i priorityqueue_api.obj
 0001:000382d0       ??$_Pocma@V?$allocator@U?$_List_node@U?$pair@$$CBHV?$vector@NV?$allocator@N@std@@@std@@@std@@PEAX@std@@@std@@@std@@YAXAEAV?$allocator@U?$_List_node@U?$pair@$$CBHV?$vector@NV?$allocator@N@std@@@std@@@std@@PEAX@std@@@0@0@Z 00000001800392d0 f i priorityqueue_api.obj
 0001:000382f0       ??$_Pocma@V?$allocator@U?$pair@HV?$vector@NV?$allocator@N@std@@@std@@@std@@@std@@@std@@YAXAEAV?$allocator@U?$pair@HV?$vector@NV?$allocator@N@std@@@std@@@std@@@0@0@Z 00000001800392f0 f i priorityqueue_api.obj
 0001:00038310       ??$_Pocma@V?$allocator@V?$_List_unchecked_iterator@V?$_List_val@U?$_List_simple_types@U?$pair@$$CBHH@std@@@std@@@std@@@std@@@std@@@std@@YAXAEAV?$allocator@V?$_List_unchecked_iterator@V?$_List_val@U?$_List_simple_types@U?$pair@$$CBHH@std@@@std@@@std@@@std@@@0@0@Z 0000000180039310 f i priorityqueue_api.obj
 0001:00038330       ??$_Pocma@V?$allocator@V?$_List_unchecked_iterator@V?$_List_val@U?$_List_simple_types@U?$pair@$$CBHV?$vector@NV?$allocator@N@std@@@std@@@std@@@std@@@std@@@std@@@std@@@std@@YAXAEAV?$allocator@V?$_List_unchecked_iterator@V?$_List_val@U?$_List_simple_types@U?$pair@$$CBHV?$vector@NV?$allocator@N@std@@@std@@@std@@@std@@@std@@@std@@@0@0@Z 0000000180039330 f i priorityqueue_api.obj
 0001:00038350       ??$_Pop_heap_hole_by_index@PEAU?$pair@HV?$vector@NV?$allocator@N@std@@@std@@@std@@U12@Ucomparator@PriorityQueueImpl@nav@@@std@@YAXPEAU?$pair@HV?$vector@NV?$allocator@N@std@@@std@@@0@_J1$$QEAU10@Ucomparator@PriorityQueueImpl@nav@@@Z 0000000180039350 f i priorityqueue_api.obj
 0001:000384e0       ??$_Pop_heap_hole_unchecked@PEAU?$pair@HV?$vector@NV?$allocator@N@std@@@std@@@std@@U12@Ucomparator@PriorityQueueImpl@nav@@@std@@YAXPEAU?$pair@HV?$vector@NV?$allocator@N@std@@@std@@@0@00$$QEAU10@Ucomparator@PriorityQueueImpl@nav@@@Z 00000001800394e0 f i priorityqueue_api.obj
 0001:00038550       ??$_Pop_heap_unchecked@PEAU?$pair@HV?$vector@NV?$allocator@N@std@@@std@@@std@@Ucomparator@PriorityQueueImpl@nav@@@std@@YAXPEAU?$pair@HV?$vector@NV?$allocator@N@std@@@std@@@0@0Ucomparator@PriorityQueueImpl@nav@@@Z 0000000180039550 f i priorityqueue_api.obj
 0001:000385e0       ??$_Push_heap_by_index@PEAU?$pair@HV?$vector@NV?$allocator@N@std@@@std@@@std@@U12@Ucomparator@PriorityQueueImpl@nav@@@std@@YAXPEAU?$pair@HV?$vector@NV?$allocator@N@std@@@std@@@0@_J1$$QEAU10@Ucomparator@PriorityQueueImpl@nav@@@Z 00000001800395e0 f i priorityqueue_api.obj
 0001:000386c0       ??$_To_address@PEAN@std@@YA?A_PAEBQEAN@Z 00000001800396c0 f i priorityqueue_api.obj
 0001:000386d0       ??$_To_address@PEBN@std@@YA?A_PAEBQEBN@Z 00000001800396d0 f i priorityqueue_api.obj
 0001:000386e0       ??$_Try_emplace@AEBH$$V@?$_Hash@V?$_Umap_traits@HHV?$_Uhash_compare@HU?$hash@H@std@@U?$equal_to@H@2@@std@@V?$allocator@U?$pair@$$CBHH@std@@@2@$0A@@std@@@std@@IEAA?AU?$pair@PEAU?$_List_node@U?$pair@$$CBHH@std@@PEAX@std@@_N@1@AEBH@Z 00000001800396e0 f i priorityqueue_api.obj
 0001:000388b0       ??$_Try_emplace@AEBH$$V@?$_Hash@V?$_Umap_traits@HV?$vector@NV?$allocator@N@std@@@std@@V?$_Uhash_compare@HU?$hash@H@std@@U?$equal_to@H@2@@2@V?$allocator@U?$pair@$$CBHV?$vector@NV?$allocator@N@std@@@std@@@std@@@2@$0A@@std@@@std@@IEAA?AU?$pair@PEAU?$_List_node@U?$pair@$$CBHV?$vector@NV?$allocator@N@std@@@std@@@std@@PEAX@std@@_N@1@AEBH@Z 00000001800398b0 f i priorityqueue_api.obj
 0001:00038a80       ??$_Tuple_get@$0A@AEBH@std@@YA$$QEA_P$$QEAV?$tuple@AEBH@0@@Z 0000000180039a80 f i priorityqueue_api.obj
 0001:00038a90       ??$_Unfancy@N@std@@YAPEANPEAN@Z 0000000180039a90 f i priorityqueue_api.obj
 0001:00038aa0       ??$_Unfancy@U?$pair@HV?$vector@NV?$allocator@N@std@@@std@@@std@@@std@@YAPEAU?$pair@HV?$vector@NV?$allocator@N@std@@@std@@@0@PEAU10@@Z 0000000180039aa0 f i priorityqueue_api.obj
 0001:00038ab0       ??$_Unfancy@V?$vector@NV?$allocator@N@std@@@std@@@std@@YAPEAV?$vector@NV?$allocator@N@std@@@0@PEAV10@@Z 0000000180039ab0 f i priorityqueue_api.obj
 0001:00038ac0       ??$_Uninitialized_copy@PEANPEANV?$allocator@N@std@@@std@@YAPEANPEAN00AEAV?$allocator@N@0@@Z 0000000180039ac0 f i priorityqueue_api.obj
 0001:00038bf0       ??$_Uninitialized_copy@PEBNPEBNV?$allocator@N@std@@@std@@YAPEANPEBN0PEANAEAV?$allocator@N@0@@Z 0000000180039bf0 f i priorityqueue_api.obj
 0001:00038d20       ??$_Uninitialized_fill_n@V?$allocator@N@std@@@std@@YAPEANPEAN_KAEBNAEAV?$allocator@N@0@@Z 0000000180039d20 f i priorityqueue_api.obj
 0001:00038dd0       ??$_Uninitialized_move@PEAU?$pair@HV?$vector@NV?$allocator@N@std@@@std@@@std@@V?$allocator@U?$pair@HV?$vector@NV?$allocator@N@std@@@std@@@std@@@2@@std@@YAPEAU?$pair@HV?$vector@NV?$allocator@N@std@@@std@@@0@QEAU10@0PEAU10@AEAV?$allocator@U?$pair@HV?$vector@NV?$allocator@N@std@@@std@@@std@@@0@@Z 0000000180039dd0 f i priorityqueue_api.obj
 0001:00038e80       ??$_Uninitialized_move@PEAV?$vector@NV?$allocator@N@std@@@std@@V?$allocator@V?$vector@NV?$allocator@N@std@@@std@@@2@@std@@YAPEAV?$vector@NV?$allocator@N@std@@@0@QEAV10@0PEAV10@AEAV?$allocator@V?$vector@NV?$allocator@N@std@@@std@@@0@@Z 0000000180039e80 f i priorityqueue_api.obj
 0001:00038f30       ??$addressof@$$CBV?$_List_val@U?$_List_simple_types@U?$pair@$$CBHH@std@@@std@@@std@@@std@@YAPEBV?$_List_val@U?$_List_simple_types@U?$pair@$$CBHH@std@@@std@@@0@AEBV10@@Z 0000000180039f30 f i priorityqueue_api.obj
 0001:00038f40       ??$addressof@$$CBV?$_List_val@U?$_List_simple_types@U?$pair@$$CBHV?$vector@NV?$allocator@N@std@@@std@@@std@@@std@@@std@@@std@@YAPEBV?$_List_val@U?$_List_simple_types@U?$pair@$$CBHV?$vector@NV?$allocator@N@std@@@std@@@std@@@std@@@0@AEBV10@@Z 0000000180039f40 f i priorityqueue_api.obj
 0001:00038f50       ??$addressof@PEAU?$_List_node@U?$pair@$$CBHH@std@@PEAX@std@@@std@@YAPEAPEAU?$_List_node@U?$pair@$$CBHH@std@@PEAX@0@AEAPEAU10@@Z 0000000180039f50 f i priorityqueue_api.obj
 0001:00038f60       ??$addressof@PEAU?$_List_node@U?$pair@$$CBHV?$vector@NV?$allocator@N@std@@@std@@@std@@PEAX@std@@@std@@YAPEAPEAU?$_List_node@U?$pair@$$CBHV?$vector@NV?$allocator@N@std@@@std@@@std@@PEAX@0@AEAPEAU10@@Z 0000000180039f60 f i priorityqueue_api.obj
 0001:00038f70       ??$addressof@U?$pair@$$CBHH@std@@@std@@YAPEAU?$pair@$$CBHH@0@AEAU10@@Z 0000000180039f70 f i priorityqueue_api.obj
 0001:00038f80       ??$addressof@U?$pair@$$CBHV?$vector@NV?$allocator@N@std@@@std@@@std@@@std@@YAPEAU?$pair@$$CBHV?$vector@NV?$allocator@N@std@@@std@@@0@AEAU10@@Z 0000000180039f80 f i priorityqueue_api.obj
 0001:00038f90       ??$addressof@U?$pair@HV?$vector@NV?$allocator@N@std@@@std@@@std@@@std@@YAPEAU?$pair@HV?$vector@NV?$allocator@N@std@@@std@@@0@AEAU10@@Z 0000000180039f90 f i priorityqueue_api.obj
 0001:00038fa0       ??$addressof@V?$_Hash@V?$_Umap_traits@HHV?$_Uhash_compare@HU?$hash@H@std@@U?$equal_to@H@2@@std@@V?$allocator@U?$pair@$$CBHH@std@@@2@$0A@@std@@@std@@@std@@YAPEAV?$_Hash@V?$_Umap_traits@HHV?$_Uhash_compare@HU?$hash@H@std@@U?$equal_to@H@2@@std@@V?$allocator@U?$pair@$$CBHH@std@@@2@$0A@@std@@@0@AEAV10@@Z 0000000180039fa0 f i priorityqueue_api.obj
 0001:00038fb0       ??$addressof@V?$_Hash@V?$_Umap_traits@HV?$vector@NV?$allocator@N@std@@@std@@V?$_Uhash_compare@HU?$hash@H@std@@U?$equal_to@H@2@@2@V?$allocator@U?$pair@$$CBHV?$vector@NV?$allocator@N@std@@@std@@@std@@@2@$0A@@std@@@std@@@std@@YAPEAV?$_Hash@V?$_Umap_traits@HV?$vector@NV?$allocator@N@std@@@std@@V?$_Uhash_compare@HU?$hash@H@std@@U?$equal_to@H@2@@2@V?$allocator@U?$pair@$$CBHV?$vector@NV?$allocator@N@std@@@std@@@std@@@2@$0A@@std@@@0@AEAV10@@Z 0000000180039fb0 f i priorityqueue_api.obj
 0001:00038fc0       ??$addressof@V?$_List_unchecked_iterator@V?$_List_val@U?$_List_simple_types@U?$pair@$$CBHH@std@@@std@@@std@@@std@@@std@@YAPEAV?$_List_unchecked_iterator@V?$_List_val@U?$_List_simple_types@U?$pair@$$CBHH@std@@@std@@@std@@@0@AEAV10@@Z 0000000180039fc0 f i priorityqueue_api.obj
 0001:00038fd0       ??$addressof@V?$_List_unchecked_iterator@V?$_List_val@U?$_List_simple_types@U?$pair@$$CBHV?$vector@NV?$allocator@N@std@@@std@@@std@@@std@@@std@@@std@@@std@@YAPEAV?$_List_unchecked_iterator@V?$_List_val@U?$_List_simple_types@U?$pair@$$CBHV?$vector@NV?$allocator@N@std@@@std@@@std@@@std@@@std@@@0@AEAV10@@Z 0000000180039fd0 f i priorityqueue_api.obj
 0001:00038fe0       ??$addressof@V?$_List_val@U?$_List_simple_types@U?$pair@$$CBHH@std@@@std@@@std@@@std@@YAPEAV?$_List_val@U?$_List_simple_types@U?$pair@$$CBHH@std@@@std@@@0@AEAV10@@Z 0000000180039fe0 f i priorityqueue_api.obj
 0001:00038ff0       ??$addressof@V?$_List_val@U?$_List_simple_types@U?$pair@$$CBHV?$vector@NV?$allocator@N@std@@@std@@@std@@@std@@@std@@@std@@YAPEAV?$_List_val@U?$_List_simple_types@U?$pair@$$CBHV?$vector@NV?$allocator@N@std@@@std@@@std@@@std@@@0@AEAV10@@Z 0000000180039ff0 f i priorityqueue_api.obj
 0001:00039000       ??$addressof@V?$_Vector_val@U?$_Simple_types@U?$pair@HV?$vector@NV?$allocator@N@std@@@std@@@std@@@std@@@std@@@std@@YAPEAV?$_Vector_val@U?$_Simple_types@U?$pair@HV?$vector@NV?$allocator@N@std@@@std@@@std@@@std@@@0@AEAV10@@Z 000000018003a000 f i priorityqueue_api.obj
 0001:00039010       ??$addressof@V?$_Vector_val@U?$_Simple_types@V?$vector@NV?$allocator@N@std@@@std@@@std@@@std@@@std@@YAPEAV?$_Vector_val@U?$_Simple_types@V?$vector@NV?$allocator@N@std@@@std@@@std@@@0@AEAV10@@Z 000000018003a010 f i priorityqueue_api.obj
 0001:00039020       ??$addressof@V?$vector@NV?$allocator@N@std@@@std@@@std@@YAPEAV?$vector@NV?$allocator@N@std@@@0@AEAV10@@Z 000000018003a020 f i priorityqueue_api.obj
 0001:00039030       ??$addressof@V?$vector@U?$pair@HV?$vector@NV?$allocator@N@std@@@std@@@std@@V?$allocator@U?$pair@HV?$vector@NV?$allocator@N@std@@@std@@@std@@@2@@std@@@std@@YAPEAV?$vector@U?$pair@HV?$vector@NV?$allocator@N@std@@@std@@@std@@V?$allocator@U?$pair@HV?$vector@NV?$allocator@N@std@@@std@@@std@@@2@@0@AEAV10@@Z 000000018003a030 f i priorityqueue_api.obj
 0001:00039040       ??$construct@NAEAN@?$_Default_allocator_traits@V?$allocator@N@std@@@std@@SAXAEAV?$allocator@N@1@QEANAEAN@Z 000000018003a040 f i priorityqueue_api.obj
 0001:00039090       ??$construct@NAEBN@?$_Default_allocator_traits@V?$allocator@N@std@@@std@@SAXAEAV?$allocator@N@1@QEANAEBN@Z 000000018003a090 f i priorityqueue_api.obj
 0001:000390e0       ??$construct@U?$pair@$$CBHH@std@@AEBUpiecewise_construct_t@2@V?$tuple@AEBH@2@V?$tuple@$$V@2@@?$_Default_allocator_traits@V?$allocator@U?$_List_node@U?$pair@$$CBHH@std@@PEAX@std@@@std@@@std@@SAXAEAV?$allocator@U?$_List_node@U?$pair@$$CBHH@std@@PEAX@std@@@1@QEAU?$pair@$$CBHH@1@AEBUpiecewise_construct_t@1@$$QEAV?$tuple@AEBH@1@$$QEAV?$tuple@$$V@1@@Z 000000018003a0e0 f i priorityqueue_api.obj
 0001:00039190       ??$construct@U?$pair@$$CBHV?$vector@NV?$allocator@N@std@@@std@@@std@@AEBUpiecewise_construct_t@2@V?$tuple@AEBH@2@V?$tuple@$$V@2@@?$_Default_allocator_traits@V?$allocator@U?$_List_node@U?$pair@$$CBHV?$vector@NV?$allocator@N@std@@@std@@@std@@PEAX@std@@@std@@@std@@SAXAEAV?$allocator@U?$_List_node@U?$pair@$$CBHV?$vector@NV?$allocator@N@std@@@std@@@std@@PEAX@std@@@1@QEAU?$pair@$$CBHV?$vector@NV?$allocator@N@std@@@std@@@1@AEBUpiecewise_construct_t@1@$$QEAV?$tuple@AEBH@1@$$QEAV?$tuple@$$V@1@@Z 000000018003a190 f i priorityqueue_api.obj
 0001:00039240       ??$construct@U?$pair@HV?$vector@NV?$allocator@N@std@@@std@@@std@@AEAHV?$vector@NV?$allocator@N@std@@@2@@?$_Default_allocator_traits@V?$allocator@U?$pair@HV?$vector@NV?$allocator@N@std@@@std@@@std@@@std@@@std@@SAXAEAV?$allocator@U?$pair@HV?$vector@NV?$allocator@N@std@@@std@@@std@@@1@QEAU?$pair@HV?$vector@NV?$allocator@N@std@@@std@@@1@AEAH$$QEAV?$vector@NV?$allocator@N@std@@@1@@Z 000000018003a240 f i priorityqueue_api.obj
 0001:000392a0       ??$construct@U?$pair@HV?$vector@NV?$allocator@N@std@@@std@@@std@@U12@@?$_Default_allocator_traits@V?$allocator@U?$pair@HV?$vector@NV?$allocator@N@std@@@std@@@std@@@std@@@std@@SAXAEAV?$allocator@U?$pair@HV?$vector@NV?$allocator@N@std@@@std@@@std@@@1@QEAU?$pair@HV?$vector@NV?$allocator@N@std@@@std@@@1@$$QEAU31@@Z 000000018003a2a0 f i priorityqueue_api.obj
 0001:000392f0       ??$construct@V?$vector@NV?$allocator@N@std@@@std@@AEBHN@?$_Default_allocator_traits@V?$allocator@V?$vector@NV?$allocator@N@std@@@std@@@std@@@std@@SAXAEAV?$allocator@V?$vector@NV?$allocator@N@std@@@std@@@1@QEAV?$vector@NV?$allocator@N@std@@@1@AEBH$$QEAN@Z 000000018003a2f0 f i priorityqueue_api.obj
 0001:00039370       ??$construct@V?$vector@NV?$allocator@N@std@@@std@@AEBV12@@?$_Default_allocator_traits@V?$allocator@V?$vector@NV?$allocator@N@std@@@std@@@std@@@std@@SAXAEAV?$allocator@V?$vector@NV?$allocator@N@std@@@std@@@1@QEAV?$vector@NV?$allocator@N@std@@@1@AEBV31@@Z 000000018003a370 f i priorityqueue_api.obj
 0001:000393c0       ??$construct@V?$vector@NV?$allocator@N@std@@@std@@V12@@?$_Default_allocator_traits@V?$allocator@V?$vector@NV?$allocator@N@std@@@std@@@std@@@std@@SAXAEAV?$allocator@V?$vector@NV?$allocator@N@std@@@std@@@1@QEAV?$vector@NV?$allocator@N@std@@@1@$$QEAV31@@Z 000000018003a3c0 f i priorityqueue_api.obj
 0001:00039410       ??$destroy@U?$pair@$$CBHH@std@@@?$_Default_allocator_traits@V?$allocator@U?$_List_node@U?$pair@$$CBHH@std@@PEAX@std@@@std@@@std@@SAXAEAV?$allocator@U?$_List_node@U?$pair@$$CBHH@std@@PEAX@std@@@1@QEAU?$pair@$$CBHH@1@@Z 000000018003a410 f i priorityqueue_api.obj
 0001:00039420       ??$destroy@U?$pair@$$CBHV?$vector@NV?$allocator@N@std@@@std@@@std@@@?$_Default_allocator_traits@V?$allocator@U?$_List_node@U?$pair@$$CBHV?$vector@NV?$allocator@N@std@@@std@@@std@@PEAX@std@@@std@@@std@@SAXAEAV?$allocator@U?$_List_node@U?$pair@$$CBHV?$vector@NV?$allocator@N@std@@@std@@@std@@PEAX@std@@@1@QEAU?$pair@$$CBHV?$vector@NV?$allocator@N@std@@@std@@@1@@Z 000000018003a420 f i priorityqueue_api.obj
 0001:00039440       ??$destroy@U?$pair@HV?$vector@NV?$allocator@N@std@@@std@@@std@@@?$_Default_allocator_traits@V?$allocator@U?$pair@HV?$vector@NV?$allocator@N@std@@@std@@@std@@@std@@@std@@SAXAEAV?$allocator@U?$pair@HV?$vector@NV?$allocator@N@std@@@std@@@std@@@1@QEAU?$pair@HV?$vector@NV?$allocator@N@std@@@std@@@1@@Z 000000018003a440 f i priorityqueue_api.obj
 0001:00039460       ??$destroy@V?$vector@NV?$allocator@N@std@@@std@@@?$_Default_allocator_traits@V?$allocator@V?$vector@NV?$allocator@N@std@@@std@@@std@@@std@@SAXAEAV?$allocator@V?$vector@NV?$allocator@N@std@@@std@@@1@QEAV?$vector@NV?$allocator@N@std@@@1@@Z 000000018003a460 f i priorityqueue_api.obj
 0001:00039480       ??$distance@PEBN@std@@YA_JPEBN0@Z 000000018003a480 f i priorityqueue_api.obj
 0001:000394a0       ??$emplace@AEAHV?$vector@NV?$allocator@N@std@@@std@@@?$priority_queue@U?$pair@HV?$vector@NV?$allocator@N@std@@@std@@@std@@V?$vector@U?$pair@HV?$vector@NV?$allocator@N@std@@@std@@@std@@V?$allocator@U?$pair@HV?$vector@NV?$allocator@N@std@@@std@@@std@@@2@@2@Ucomparator@PriorityQueueImpl@nav@@@std@@QEAAXAEAH$$QEAV?$vector@NV?$allocator@N@std@@@1@@Z 000000018003a4a0 f i priorityqueue_api.obj
 0001:00039540       ??$emplace_back@AEAHV?$vector@NV?$allocator@N@std@@@std@@@?$vector@U?$pair@HV?$vector@NV?$allocator@N@std@@@std@@@std@@V?$allocator@U?$pair@HV?$vector@NV?$allocator@N@std@@@std@@@std@@@2@@std@@QEAA?A_TAEAH$$QEAV?$vector@NV?$allocator@N@std@@@1@@Z 000000018003a540 f i priorityqueue_api.obj
 0001:00039590       ??$emplace_back@AEBHN@?$vector@V?$vector@NV?$allocator@N@std@@@std@@V?$allocator@V?$vector@NV?$allocator@N@std@@@std@@@2@@std@@QEAA?A_TAEBH$$QEAN@Z 000000018003a590 f i priorityqueue_api.obj
 0001:000395e0       ??$exchange@PEAN$$T@std@@YAPEANAEAPEAN$$QEA$$T@Z 000000018003a5e0 f i priorityqueue_api.obj
 0001:00039620       ??$exchange@PEAU?$_List_node@U?$pair@$$CBHH@std@@PEAX@std@@$$T@std@@YAPEAU?$_List_node@U?$pair@$$CBHH@std@@PEAX@0@AEAPEAU10@$$QEA$$T@Z 000000018003a620 f i priorityqueue_api.obj
 0001:00039660       ??$exchange@PEAU?$_List_node@U?$pair@$$CBHV?$vector@NV?$allocator@N@std@@@std@@@std@@PEAX@std@@$$T@std@@YAPEAU?$_List_node@U?$pair@$$CBHV?$vector@NV?$allocator@N@std@@@std@@@std@@PEAX@0@AEAPEAU10@$$QEA$$T@Z 000000018003a660 f i priorityqueue_api.obj
 0001:000396a0       ??$exchange@PEAV?$vector@NV?$allocator@N@std@@@std@@$$T@std@@YAPEAV?$vector@NV?$allocator@N@std@@@0@AEAPEAV10@$$QEA$$T@Z 000000018003a6a0 f i priorityqueue_api.obj
 0001:000396e0       ??$fill@PEAV?$_List_unchecked_iterator@V?$_List_val@U?$_List_simple_types@U?$pair@$$CBHH@std@@@std@@@std@@@std@@V12@@std@@YAXQEAV?$_List_unchecked_iterator@V?$_List_val@U?$_List_simple_types@U?$pair@$$CBHH@std@@@std@@@std@@@0@0AEBV10@@Z 000000018003a6e0 f i priorityqueue_api.obj
 0001:00039760       ??$fill@PEAV?$_List_unchecked_iterator@V?$_List_val@U?$_List_simple_types@U?$pair@$$CBHV?$vector@NV?$allocator@N@std@@@std@@@std@@@std@@@std@@@std@@V12@@std@@YAXQEAV?$_List_unchecked_iterator@V?$_List_val@U?$_List_simple_types@U?$pair@$$CBHV?$vector@NV?$allocator@N@std@@@std@@@std@@@std@@@std@@@0@0AEBV10@@Z 000000018003a760 f i priorityqueue_api.obj
 0001:000397e0       ??$find@X@?$_Hash@V?$_Umap_traits@HHV?$_Uhash_compare@HU?$hash@H@std@@U?$equal_to@H@2@@std@@V?$allocator@U?$pair@$$CBHH@std@@@2@$0A@@std@@@std@@QEAA?AV?$_List_iterator@V?$_List_val@U?$_List_simple_types@U?$pair@$$CBHH@std@@@std@@@std@@@1@AEBH@Z 000000018003a7e0 f i priorityqueue_api.obj
 0001:00039840       ??$find@X@?$_Hash@V?$_Umap_traits@HV?$vector@NV?$allocator@N@std@@@std@@V?$_Uhash_compare@HU?$hash@H@std@@U?$equal_to@H@2@@2@V?$allocator@U?$pair@$$CBHV?$vector@NV?$allocator@N@std@@@std@@@std@@@2@$0A@@std@@@std@@QEAA?AV?$_List_iterator@V?$_List_val@U?$_List_simple_types@U?$pair@$$CBHV?$vector@NV?$allocator@N@std@@@std@@@std@@@std@@@std@@@1@AEBH@Z 000000018003a840 f i priorityqueue_api.obj
 0001:000398a0       ??$forward@AEAH@std@@YAAEAHAEAH@Z 000000018003a8a0 f i priorityqueue_api.obj
 0001:000398b0       ??$forward@AEAN@std@@YAAEANAEAN@Z 000000018003a8b0 f i priorityqueue_api.obj
 0001:000398c0       ??$forward@AEAPEAU?$_List_node@U?$pair@$$CBHH@std@@PEAX@std@@@std@@YAAEAPEAU?$_List_node@U?$pair@$$CBHH@std@@PEAX@0@AEAPEAU10@@Z 000000018003a8c0 f i priorityqueue_api.obj
 0001:000398d0       ??$forward@AEAPEAU?$_List_node@U?$pair@$$CBHV?$vector@NV?$allocator@N@std@@@std@@@std@@PEAX@std@@@std@@YAAEAPEAU?$_List_node@U?$pair@$$CBHV?$vector@NV?$allocator@N@std@@@std@@@std@@PEAX@0@AEAPEAU10@@Z 000000018003a8d0 f i priorityqueue_api.obj
 0001:000398e0       ??$forward@AEBH@std@@YAAEBHAEBH@Z 000000018003a8e0 f i priorityqueue_api.obj
 0001:000398f0       ??$forward@AEBN@std@@YAAEBNAEBN@Z 000000018003a8f0 f i priorityqueue_api.obj
 0001:00039900       ??$forward@AEBQEAN@std@@YAAEBQEANAEBQEAN@Z 000000018003a900 f i priorityqueue_api.obj
 0001:00039910       ??$forward@AEBQEAU?$_List_node@U?$pair@$$CBHH@std@@PEAX@std@@@std@@YAAEBQEAU?$_List_node@U?$pair@$$CBHH@std@@PEAX@0@AEBQEAU10@@Z 000000018003a910 f i priorityqueue_api.obj
 0001:00039920       ??$forward@AEBQEAU?$_List_node@U?$pair@$$CBHV?$vector@NV?$allocator@N@std@@@std@@@std@@PEAX@std@@@std@@YAAEBQEAU?$_List_node@U?$pair@$$CBHV?$vector@NV?$allocator@N@std@@@std@@@std@@PEAX@0@AEBQEAU10@@Z 000000018003a920 f i priorityqueue_api.obj
 0001:00039930       ??$forward@AEBUpiecewise_construct_t@std@@@std@@YAAEBUpiecewise_construct_t@0@AEBU10@@Z 000000018003a930 f i priorityqueue_api.obj
 0001:00039940       ??$forward@AEBV?$_List_unchecked_iterator@V?$_List_val@U?$_List_simple_types@U?$pair@$$CBHH@std@@@std@@@std@@@std@@@std@@YAAEBV?$_List_unchecked_iterator@V?$_List_val@U?$_List_simple_types@U?$pair@$$CBHH@std@@@std@@@std@@@0@AEBV10@@Z 000000018003a940 f i priorityqueue_api.obj
 0001:00039950       ??$forward@AEBV?$_List_unchecked_iterator@V?$_List_val@U?$_List_simple_types@U?$pair@$$CBHV?$vector@NV?$allocator@N@std@@@std@@@std@@@std@@@std@@@std@@@std@@YAAEBV?$_List_unchecked_iterator@V?$_List_val@U?$_List_simple_types@U?$pair@$$CBHV?$vector@NV?$allocator@N@std@@@std@@@std@@@std@@@std@@@0@AEBV10@@Z 000000018003a950 f i priorityqueue_api.obj
 0001:00039960       ??$forward@AEBV?$allocator@N@std@@@std@@YAAEBV?$allocator@N@0@AEBV10@@Z 000000018003a960 f i priorityqueue_api.obj
 0001:00039970       ??$forward@AEBV?$allocator@U?$pair@$$CBHH@std@@@std@@@std@@YAAEBV?$allocator@U?$pair@$$CBHH@std@@@0@AEBV10@@Z 000000018003a970 f i priorityqueue_api.obj
 0001:00039980       ??$forward@AEBV?$allocator@U?$pair@$$CBHV?$vector@NV?$allocator@N@std@@@std@@@std@@@std@@@std@@YAAEBV?$allocator@U?$pair@$$CBHV?$vector@NV?$allocator@N@std@@@std@@@std@@@0@AEBV10@@Z 000000018003a980 f i priorityqueue_api.obj
 0001:00039990       ??$forward@AEBV?$vector@NV?$allocator@N@std@@@std@@@std@@YAAEBV?$vector@NV?$allocator@N@std@@@0@AEBV10@@Z 000000018003a990 f i priorityqueue_api.obj
 0001:000399a0       ??$forward@H@std@@YA$$QEAHAEAH@Z 000000018003a9a0 f i priorityqueue_api.obj
 0001:000399b0       ??$forward@M@std@@YA$$QEAMAEAM@Z 000000018003a9b0 f i priorityqueue_api.obj
 0001:000399c0       ??$forward@N@std@@YA$$QEANAEAN@Z 000000018003a9c0 f i priorityqueue_api.obj
 0001:000399d0       ??$forward@PEAN@std@@YA$$QEAPEANAEAPEAN@Z 000000018003a9d0 f i priorityqueue_api.obj
 0001:000399e0       ??$forward@PEAU?$_List_node@U?$pair@$$CBHH@std@@PEAX@std@@@std@@YA$$QEAPEAU?$_List_node@U?$pair@$$CBHH@std@@PEAX@0@AEAPEAU10@@Z 000000018003a9e0 f i priorityqueue_api.obj
 0001:000399f0       ??$forward@PEAU?$_List_node@U?$pair@$$CBHV?$vector@NV?$allocator@N@std@@@std@@@std@@PEAX@std@@@std@@YA$$QEAPEAU?$_List_node@U?$pair@$$CBHV?$vector@NV?$allocator@N@std@@@std@@@std@@PEAX@0@AEAPEAU10@@Z 000000018003a9f0 f i priorityqueue_api.obj
 0001:00039a00       ??$forward@PEAV?$vector@NV?$allocator@N@std@@@std@@@std@@YA$$QEAPEAV?$vector@NV?$allocator@N@std@@@0@AEAPEAV10@@Z 000000018003aa00 f i priorityqueue_api.obj
 0001:00039a10       ??$forward@PEBN@std@@YA$$QEAPEBNAEAPEBN@Z 000000018003aa10 f i priorityqueue_api.obj
 0001:00039a20       ??$forward@U?$pair@HV?$vector@NV?$allocator@N@std@@@std@@@std@@@std@@YA$$QEAU?$pair@HV?$vector@NV?$allocator@N@std@@@std@@@0@AEAU10@@Z 000000018003aa20 f i priorityqueue_api.obj
 0001:00039a30       ??$forward@U_Zero_then_variadic_args_t@std@@@std@@YA$$QEAU_Zero_then_variadic_args_t@0@AEAU10@@Z 000000018003aa30 f i priorityqueue_api.obj
 0001:00039a40       ??$forward@V?$allocator@N@std@@@std@@YA$$QEAV?$allocator@N@0@AEAV10@@Z 000000018003aa40 f i priorityqueue_api.obj
 0001:00039a50       ??$forward@V?$allocator@V?$vector@NV?$allocator@N@std@@@std@@@std@@@std@@YA$$QEAV?$allocator@V?$vector@NV?$allocator@N@std@@@std@@@0@AEAV10@@Z 000000018003aa50 f i priorityqueue_api.obj
 0001:00039a60       ??$forward@V?$tuple@$$V@std@@@std@@YA$$QEAV?$tuple@$$V@0@AEAV10@@Z 000000018003aa60 f i priorityqueue_api.obj
 0001:00039a70       ??$forward@V?$tuple@AEBH@std@@@std@@YA$$QEAV?$tuple@AEBH@0@AEAV10@@Z 000000018003aa70 f i priorityqueue_api.obj
 0001:00039a80       ??$forward@V?$vector@NV?$allocator@N@std@@@std@@@std@@YA$$QEAV?$vector@NV?$allocator@N@std@@@0@AEAV10@@Z 000000018003aa80 f i priorityqueue_api.obj
 0001:00039a90       ??$forward@_N@std@@YA$$QEA_NAEA_N@Z 000000018003aa90 f i priorityqueue_api.obj
 0001:00039aa0       ??$forward_as_tuple@$$V@std@@YA?AV?$tuple@$$V@0@XZ 000000018003aaa0 f i priorityqueue_api.obj
 0001:00039ab0       ??$forward_as_tuple@AEBH@std@@YA?AV?$tuple@AEBH@0@AEBH@Z 000000018003aab0 f i priorityqueue_api.obj
 0001:00039ae0       ??$make_pair@HV?$vector@NV?$allocator@N@std@@@std@@@std@@YA?AU?$pair@HV?$vector@NV?$allocator@N@std@@@std@@@0@$$QEAH$$QEAV?$vector@NV?$allocator@N@std@@@0@@Z 000000018003aae0 f i priorityqueue_api.obj
 0001:00039b30       ??$max@_K@std@@YAAEB_KAEB_K0@Z 000000018003ab30 f i priorityqueue_api.obj
 0001:00039b80       ??$min@_K@std@@YAAEB_KAEB_K0@Z 000000018003ab80 f i priorityqueue_api.obj
 0001:00039bd0       ??$move@AEAPEAN@std@@YA$$QEAPEANAEAPEAN@Z 000000018003abd0 f i priorityqueue_api.obj
 0001:00039be0       ??$move@AEAPEAU?$_List_node@U?$pair@$$CBHH@std@@PEAX@std@@@std@@YA$$QEAPEAU?$_List_node@U?$pair@$$CBHH@std@@PEAX@0@AEAPEAU10@@Z 000000018003abe0 f i priorityqueue_api.obj
 0001:00039bf0       ??$move@AEAPEAU?$_List_node@U?$pair@$$CBHV?$vector@NV?$allocator@N@std@@@std@@@std@@PEAX@std@@@std@@YA$$QEAPEAU?$_List_node@U?$pair@$$CBHV?$vector@NV?$allocator@N@std@@@std@@@std@@PEAX@0@AEAPEAU10@@Z 000000018003abf0 f i priorityqueue_api.obj
 0001:00039c00       ??$move@AEAPEAV?$_List_unchecked_iterator@V?$_List_val@U?$_List_simple_types@U?$pair@$$CBHH@std@@@std@@@std@@@std@@@std@@YA$$QEAPEAV?$_List_unchecked_iterator@V?$_List_val@U?$_List_simple_types@U?$pair@$$CBHH@std@@@std@@@std@@@0@AEAPEAV10@@Z 000000018003ac00 f i priorityqueue_api.obj
 0001:00039c10       ??$move@AEAPEAV?$_List_unchecked_iterator@V?$_List_val@U?$_List_simple_types@U?$pair@$$CBHV?$vector@NV?$allocator@N@std@@@std@@@std@@@std@@@std@@@std@@@std@@YA$$QEAPEAV?$_List_unchecked_iterator@V?$_List_val@U?$_List_simple_types@U?$pair@$$CBHV?$vector@NV?$allocator@N@std@@@std@@@std@@@std@@@std@@@0@AEAPEAV10@@Z 000000018003ac10 f i priorityqueue_api.obj
 0001:00039c20       ??$move@AEAPEBN@std@@YA$$QEAPEBNAEAPEBN@Z 000000018003ac20 f i priorityqueue_api.obj
 0001:00039c30       ??$move@AEAU?$pair@HV?$vector@NV?$allocator@N@std@@@std@@@std@@@std@@YA$$QEAU?$pair@HV?$vector@NV?$allocator@N@std@@@std@@@0@AEAU10@@Z 000000018003ac30 f i priorityqueue_api.obj
 0001:00039c40       ??$move@AEAV?$allocator@N@std@@@std@@YA$$QEAV?$allocator@N@0@AEAV10@@Z 000000018003ac40 f i priorityqueue_api.obj
 0001:00039c50       ??$move@AEAV?$allocator@U?$_List_node@U?$pair@$$CBHH@std@@PEAX@std@@@std@@@std@@YA$$QEAV?$allocator@U?$_List_node@U?$pair@$$CBHH@std@@PEAX@std@@@0@AEAV10@@Z 000000018003ac50 f i priorityqueue_api.obj
 0001:00039c60       ??$move@AEAV?$allocator@U?$_List_node@U?$pair@$$CBHV?$vector@NV?$allocator@N@std@@@std@@@std@@PEAX@std@@@std@@@std@@YA$$QEAV?$allocator@U?$_List_node@U?$pair@$$CBHV?$vector@NV?$allocator@N@std@@@std@@@std@@PEAX@std@@@0@AEAV10@@Z 000000018003ac60 f i priorityqueue_api.obj
 0001:00039c70       ??$move@AEAV?$allocator@U?$pair@HV?$vector@NV?$allocator@N@std@@@std@@@std@@@std@@@std@@YA$$QEAV?$allocator@U?$pair@HV?$vector@NV?$allocator@N@std@@@std@@@std@@@0@AEAV10@@Z 000000018003ac70 f i priorityqueue_api.obj
 0001:00039c80       ??$move@AEAV?$allocator@V?$_List_unchecked_iterator@V?$_List_val@U?$_List_simple_types@U?$pair@$$CBHH@std@@@std@@@std@@@std@@@std@@@std@@YA$$QEAV?$allocator@V?$_List_unchecked_iterator@V?$_List_val@U?$_List_simple_types@U?$pair@$$CBHH@std@@@std@@@std@@@std@@@0@AEAV10@@Z 000000018003ac80 f i priorityqueue_api.obj
 0001:00039c90       ??$move@AEAV?$allocator@V?$_List_unchecked_iterator@V?$_List_val@U?$_List_simple_types@U?$pair@$$CBHV?$vector@NV?$allocator@N@std@@@std@@@std@@@std@@@std@@@std@@@std@@@std@@YA$$QEAV?$allocator@V?$_List_unchecked_iterator@V?$_List_val@U?$_List_simple_types@U?$pair@$$CBHV?$vector@NV?$allocator@N@std@@@std@@@std@@@std@@@std@@@std@@@0@AEAV10@@Z 000000018003ac90 f i priorityqueue_api.obj
 0001:00039ca0       ??$move@AEAV?$allocator@V?$vector@NV?$allocator@N@std@@@std@@@std@@@std@@YA$$QEAV?$allocator@V?$vector@NV?$allocator@N@std@@@std@@@0@AEAV10@@Z 000000018003aca0 f i priorityqueue_api.obj
 0001:00039cb0       ??$move@AEAV?$tuple@AEBH@std@@@std@@YA$$QEAV?$tuple@AEBH@0@AEAV10@@Z 000000018003acb0 f i priorityqueue_api.obj
 0001:00039cc0       ??$move@AEAV?$unordered_map@HHU?$hash@H@std@@U?$equal_to@H@2@V?$allocator@U?$pair@$$CBHH@std@@@2@@std@@@std@@YA$$QEAV?$unordered_map@HHU?$hash@H@std@@U?$equal_to@H@2@V?$allocator@U?$pair@$$CBHH@std@@@2@@0@AEAV10@@Z 000000018003acc0 f i priorityqueue_api.obj
 0001:00039cd0       ??$move@AEAV?$unordered_map@HV?$vector@NV?$allocator@N@std@@@std@@U?$hash@H@2@U?$equal_to@H@2@V?$allocator@U?$pair@$$CBHV?$vector@NV?$allocator@N@std@@@std@@@std@@@2@@std@@@std@@YA$$QEAV?$unordered_map@HV?$vector@NV?$allocator@N@std@@@std@@U?$hash@H@2@U?$equal_to@H@2@V?$allocator@U?$pair@$$CBHV?$vector@NV?$allocator@N@std@@@std@@@std@@@2@@0@AEAV10@@Z 000000018003acd0 f i priorityqueue_api.obj
 0001:00039ce0       ??$move@AEAV?$vector@NV?$allocator@N@std@@@std@@@std@@YA$$QEAV?$vector@NV?$allocator@N@std@@@0@AEAV10@@Z 000000018003ace0 f i priorityqueue_api.obj
 0001:00039cf0       ??$move@AEA_K@std@@YA$$QEA_KAEA_K@Z 000000018003acf0 f i priorityqueue_api.obj
 0001:00039d00       ??$pop_heap@V?$_Vector_iterator@V?$_Vector_val@U?$_Simple_types@U?$pair@HV?$vector@NV?$allocator@N@std@@@std@@@std@@@std@@@std@@@std@@Ucomparator@PriorityQueueImpl@nav@@@std@@YAXV?$_Vector_iterator@V?$_Vector_val@U?$_Simple_types@U?$pair@HV?$vector@NV?$allocator@N@std@@@std@@@std@@@std@@@std@@@0@0Ucomparator@PriorityQueueImpl@nav@@@Z 000000018003ad00 f i priorityqueue_api.obj
 0001:00039d70       ??$push_heap@V?$_Vector_iterator@V?$_Vector_val@U?$_Simple_types@U?$pair@HV?$vector@NV?$allocator@N@std@@@std@@@std@@@std@@@std@@@std@@Ucomparator@PriorityQueueImpl@nav@@@std@@YAXV?$_Vector_iterator@V?$_Vector_val@U?$_Simple_types@U?$pair@HV?$vector@NV?$allocator@N@std@@@std@@@std@@@std@@@std@@@0@0Ucomparator@PriorityQueueImpl@nav@@@Z 000000018003ad70 f i priorityqueue_api.obj
 0001:00039e70       ??$swap@PEAU?$_List_node@U?$pair@$$CBHH@std@@PEAX@std@@$0A@@std@@YAXAEAPEAU?$_List_node@U?$pair@$$CBHH@std@@PEAX@0@0@Z 000000018003ae70 f i priorityqueue_api.obj
 0001:00039ec0       ??$swap@PEAU?$_List_node@U?$pair@$$CBHV?$vector@NV?$allocator@N@std@@@std@@@std@@PEAX@std@@$0A@@std@@YAXAEAPEAU?$_List_node@U?$pair@$$CBHV?$vector@NV?$allocator@N@std@@@std@@@std@@PEAX@0@0@Z 000000018003aec0 f i priorityqueue_api.obj
 0001:00039f10       ??$swap@PEAV?$_List_unchecked_iterator@V?$_List_val@U?$_List_simple_types@U?$pair@$$CBHH@std@@@std@@@std@@@std@@$0A@@std@@YAXAEAPEAV?$_List_unchecked_iterator@V?$_List_val@U?$_List_simple_types@U?$pair@$$CBHH@std@@@std@@@std@@@0@0@Z 000000018003af10 f i priorityqueue_api.obj
 0001:00039f60       ??$swap@PEAV?$_List_unchecked_iterator@V?$_List_val@U?$_List_simple_types@U?$pair@$$CBHV?$vector@NV?$allocator@N@std@@@std@@@std@@@std@@@std@@@std@@$0A@@std@@YAXAEAPEAV?$_List_unchecked_iterator@V?$_List_val@U?$_List_simple_types@U?$pair@$$CBHV?$vector@NV?$allocator@N@std@@@std@@@std@@@std@@@std@@@0@0@Z 000000018003af60 f i priorityqueue_api.obj
 0001:00039fb0       ??$swap@_K$0A@@std@@YAXAEA_K0@Z 000000018003afb0 f i priorityqueue_api.obj
 0001:0003a000       ??$uninitialized_fill@PEAV?$_List_unchecked_iterator@V?$_List_val@U?$_List_simple_types@U?$pair@$$CBHH@std@@@std@@@std@@@std@@V12@@std@@YAXQEAV?$_List_unchecked_iterator@V?$_List_val@U?$_List_simple_types@U?$pair@$$CBHH@std@@@std@@@std@@@0@0AEBV10@@Z 000000018003b000 f i priorityqueue_api.obj
 0001:0003a090       ??$uninitialized_fill@PEAV?$_List_unchecked_iterator@V?$_List_val@U?$_List_simple_types@U?$pair@$$CBHV?$vector@NV?$allocator@N@std@@@std@@@std@@@std@@@std@@@std@@V12@@std@@YAXQEAV?$_List_unchecked_iterator@V?$_List_val@U?$_List_simple_types@U?$pair@$$CBHV?$vector@NV?$allocator@N@std@@@std@@@std@@@std@@@std@@@0@0AEBV10@@Z 000000018003b090 f i priorityqueue_api.obj
 0001:0003a120       ??0?$_Alloc_construct_ptr@V?$allocator@U?$_List_node@U?$pair@$$CBHH@std@@PEAX@std@@@std@@@std@@QEAA@AEAV?$allocator@U?$_List_node@U?$pair@$$CBHH@std@@PEAX@std@@@1@@Z 000000018003b120 f i priorityqueue_api.obj
 0001:0003a150       ??0?$_Alloc_construct_ptr@V?$allocator@U?$_List_node@U?$pair@$$CBHV?$vector@NV?$allocator@N@std@@@std@@@std@@PEAX@std@@@std@@@std@@QEAA@AEAV?$allocator@U?$_List_node@U?$pair@$$CBHV?$vector@NV?$allocator@N@std@@@std@@@std@@PEAX@std@@@1@@Z 000000018003b150 f i priorityqueue_api.obj
 0001:0003a180       ??0?$_Hash@V?$_Umap_traits@HHV?$_Uhash_compare@HU?$hash@H@std@@U?$equal_to@H@2@@std@@V?$allocator@U?$pair@$$CBHH@std@@@2@$0A@@std@@@std@@IEAA@AEBV?$_Uhash_compare@HU?$hash@H@std@@U?$equal_to@H@2@@1@AEBV?$allocator@U?$pair@$$CBHH@std@@@1@@Z 000000018003b180 f i priorityqueue_api.obj
 0001:0003a240       ??0?$_Hash@V?$_Umap_traits@HV?$vector@NV?$allocator@N@std@@@std@@V?$_Uhash_compare@HU?$hash@H@std@@U?$equal_to@H@2@@2@V?$allocator@U?$pair@$$CBHV?$vector@NV?$allocator@N@std@@@std@@@std@@@2@$0A@@std@@@std@@IEAA@AEBV?$_Uhash_compare@HU?$hash@H@std@@U?$equal_to@H@2@@1@AEBV?$allocator@U?$pair@$$CBHV?$vector@NV?$allocator@N@std@@@std@@@std@@@1@@Z 000000018003b240 f i priorityqueue_api.obj
 0001:0003a300       ??0?$_List_const_iterator@V?$_List_val@U?$_List_simple_types@U?$pair@$$CBHH@std@@@std@@@std@@@std@@QEAA@PEAU?$_List_node@U?$pair@$$CBHH@std@@PEAX@1@PEBV?$_List_val@U?$_List_simple_types@U?$pair@$$CBHH@std@@@std@@@1@@Z 000000018003b300 f i priorityqueue_api.obj
 0001:0003a340       ??0?$_List_const_iterator@V?$_List_val@U?$_List_simple_types@U?$pair@$$CBHV?$vector@NV?$allocator@N@std@@@std@@@std@@@std@@@std@@@std@@QEAA@PEAU?$_List_node@U?$pair@$$CBHV?$vector@NV?$allocator@N@std@@@std@@@std@@PEAX@1@PEBV?$_List_val@U?$_List_simple_types@U?$pair@$$CBHV?$vector@NV?$allocator@N@std@@@std@@@std@@@std@@@1@@Z 000000018003b340 f i priorityqueue_api.obj
 0001:0003a380       ??0?$_List_iterator@V?$_List_val@U?$_List_simple_types@U?$pair@$$CBHH@std@@@std@@@std@@@std@@QEAA@PEAU?$_List_node@U?$pair@$$CBHH@std@@PEAX@1@PEBV?$_List_val@U?$_List_simple_types@U?$pair@$$CBHH@std@@@std@@@1@@Z 000000018003b380 f i priorityqueue_api.obj
 0001:0003a3c0       ??0?$_List_iterator@V?$_List_val@U?$_List_simple_types@U?$pair@$$CBHV?$vector@NV?$allocator@N@std@@@std@@@std@@@std@@@std@@@std@@QEAA@PEAU?$_List_node@U?$pair@$$CBHV?$vector@NV?$allocator@N@std@@@std@@@std@@PEAX@1@PEBV?$_List_val@U?$_List_simple_types@U?$pair@$$CBHV?$vector@NV?$allocator@N@std@@@std@@@std@@@std@@@1@@Z 000000018003b3c0 f i priorityqueue_api.obj
 0001:0003a400       ??0?$_List_unchecked_const_iterator@V?$_List_val@U?$_List_simple_types@U?$pair@$$CBHH@std@@@std@@@std@@U_Iterator_base0@2@@std@@QEAA@PEAU?$_List_node@U?$pair@$$CBHH@std@@PEAX@1@PEBV?$_List_val@U?$_List_simple_types@U?$pair@$$CBHH@std@@@std@@@1@@Z 000000018003b400 f i priorityqueue_api.obj
 0001:0003a440       ??0?$_List_unchecked_const_iterator@V?$_List_val@U?$_List_simple_types@U?$pair@$$CBHV?$vector@NV?$allocator@N@std@@@std@@@std@@@std@@@std@@U_Iterator_base0@2@@std@@QEAA@PEAU?$_List_node@U?$pair@$$CBHV?$vector@NV?$allocator@N@std@@@std@@@std@@PEAX@1@PEBV?$_List_val@U?$_List_simple_types@U?$pair@$$CBHV?$vector@NV?$allocator@N@std@@@std@@@std@@@std@@@1@@Z 000000018003b440 f i priorityqueue_api.obj
 0001:0003a480       ??0?$_List_unchecked_iterator@V?$_List_val@U?$_List_simple_types@U?$pair@$$CBHH@std@@@std@@@std@@@std@@QEAA@PEAU?$_List_node@U?$pair@$$CBHH@std@@PEAX@1@PEBV?$_List_val@U?$_List_simple_types@U?$pair@$$CBHH@std@@@std@@@1@@Z 000000018003b480 f i priorityqueue_api.obj
 0001:0003a4c0       ??0?$_List_unchecked_iterator@V?$_List_val@U?$_List_simple_types@U?$pair@$$CBHV?$vector@NV?$allocator@N@std@@@std@@@std@@@std@@@std@@@std@@QEAA@PEAU?$_List_node@U?$pair@$$CBHV?$vector@NV?$allocator@N@std@@@std@@@std@@PEAX@1@PEBV?$_List_val@U?$_List_simple_types@U?$pair@$$CBHV?$vector@NV?$allocator@N@std@@@std@@@std@@@std@@@1@@Z 000000018003b4c0 f i priorityqueue_api.obj
 0001:0003a500       ??0?$_List_val@U?$_List_simple_types@U?$pair@$$CBHH@std@@@std@@@std@@QEAA@XZ 000000018003b500 f i priorityqueue_api.obj
 0001:0003a530       ??0?$_List_val@U?$_List_simple_types@U?$pair@$$CBHV?$vector@NV?$allocator@N@std@@@std@@@std@@@std@@@std@@QEAA@XZ 000000018003b530 f i priorityqueue_api.obj
 0001:0003a560       ??0?$_Uhash_compare@HU?$hash@H@std@@U?$equal_to@H@2@@std@@QEAA@XZ 000000018003b560 f i priorityqueue_api.obj
 0001:0003a5a0       ??0?$_Umap_traits@HHV?$_Uhash_compare@HU?$hash@H@std@@U?$equal_to@H@2@@std@@V?$allocator@U?$pair@$$CBHH@std@@@2@$0A@@std@@QEAA@AEBV?$_Uhash_compare@HU?$hash@H@std@@U?$equal_to@H@2@@1@@Z 000000018003b5a0 f i priorityqueue_api.obj
 0001:0003a5c0       ??0?$_Umap_traits@HV?$vector@NV?$allocator@N@std@@@std@@V?$_Uhash_compare@HU?$hash@H@std@@U?$equal_to@H@2@@2@V?$allocator@U?$pair@$$CBHV?$vector@NV?$allocator@N@std@@@std@@@std@@@2@$0A@@std@@QEAA@AEBV?$_Uhash_compare@HU?$hash@H@std@@U?$equal_to@H@2@@1@@Z 000000018003b5c0 f i priorityqueue_api.obj
 0001:0003a5e0       ??0?$_Uninitialized_backout@PEAV?$_List_unchecked_iterator@V?$_List_val@U?$_List_simple_types@U?$pair@$$CBHH@std@@@std@@@std@@@std@@@std@@QEAA@PEAV?$_List_unchecked_iterator@V?$_List_val@U?$_List_simple_types@U?$pair@$$CBHH@std@@@std@@@std@@@1@@Z 000000018003b5e0 f i priorityqueue_api.obj
 0001:0003a610       ??0?$_Uninitialized_backout@PEAV?$_List_unchecked_iterator@V?$_List_val@U?$_List_simple_types@U?$pair@$$CBHV?$vector@NV?$allocator@N@std@@@std@@@std@@@std@@@std@@@std@@@std@@QEAA@PEAV?$_List_unchecked_iterator@V?$_List_val@U?$_List_simple_types@U?$pair@$$CBHV?$vector@NV?$allocator@N@std@@@std@@@std@@@std@@@std@@@1@@Z 000000018003b610 f i priorityqueue_api.obj
 0001:0003a640       ??0?$_Uninitialized_backout_al@V?$allocator@N@std@@@std@@QEAA@PEANAEAV?$allocator@N@1@@Z 000000018003b640 f i priorityqueue_api.obj
 0001:0003a680       ??0?$_Uninitialized_backout_al@V?$allocator@U?$pair@HV?$vector@NV?$allocator@N@std@@@std@@@std@@@std@@@std@@QEAA@PEAU?$pair@HV?$vector@NV?$allocator@N@std@@@std@@@1@AEAV?$allocator@U?$pair@HV?$vector@NV?$allocator@N@std@@@std@@@std@@@1@@Z 000000018003b680 f i priorityqueue_api.obj
 0001:0003a6c0       ??0?$_Uninitialized_backout_al@V?$allocator@V?$vector@NV?$allocator@N@std@@@std@@@std@@@std@@QEAA@PEAV?$vector@NV?$allocator@N@std@@@1@AEAV?$allocator@V?$vector@NV?$allocator@N@std@@@std@@@1@@Z 000000018003b6c0 f i priorityqueue_api.obj
 0001:0003a700       ??0?$_Vector_const_iterator@V?$_Vector_val@U?$_Simple_types@U?$pair@HV?$vector@NV?$allocator@N@std@@@std@@@std@@@std@@@std@@@std@@QEAA@PEAU?$pair@HV?$vector@NV?$allocator@N@std@@@std@@@1@PEBU_Container_base0@1@@Z 000000018003b700 f i priorityqueue_api.obj
 0001:0003a740       ??0?$_Vector_const_iterator@V?$_Vector_val@U?$_Simple_types@V?$vector@NV?$allocator@N@std@@@std@@@std@@@std@@@std@@QEAA@PEAV?$vector@NV?$allocator@N@std@@@1@PEBU_Container_base0@1@@Z 000000018003b740 f i priorityqueue_api.obj
 0001:0003a780       ??0?$_Vector_iterator@V?$_Vector_val@U?$_Simple_types@U?$pair@HV?$vector@NV?$allocator@N@std@@@std@@@std@@@std@@@std@@@std@@QEAA@PEAU?$pair@HV?$vector@NV?$allocator@N@std@@@std@@@1@PEBU_Container_base0@1@@Z 000000018003b780 f i priorityqueue_api.obj
 0001:0003a7c0       ??0?$_Vector_iterator@V?$_Vector_val@U?$_Simple_types@V?$vector@NV?$allocator@N@std@@@std@@@std@@@std@@@std@@QEAA@PEAV?$vector@NV?$allocator@N@std@@@1@PEBU_Container_base0@1@@Z 000000018003b7c0 f i priorityqueue_api.obj
 0001:0003a800       ??0?$_Vector_val@U?$_Simple_types@N@std@@@std@@QEAA@PEAN00@Z 000000018003b800 f i priorityqueue_api.obj
 0001:0003a850       ??0?$_Vector_val@U?$_Simple_types@N@std@@@std@@QEAA@XZ 000000018003b850 f i priorityqueue_api.obj
 0001:0003a890       ??0?$_Vector_val@U?$_Simple_types@U?$pair@HV?$vector@NV?$allocator@N@std@@@std@@@std@@@std@@@std@@QEAA@XZ 000000018003b890 f i priorityqueue_api.obj
 0001:0003a8d0       ??0?$_Vector_val@U?$_Simple_types@V?$_List_unchecked_iterator@V?$_List_val@U?$_List_simple_types@U?$pair@$$CBHH@std@@@std@@@std@@@std@@@std@@@std@@QEAA@XZ 000000018003b8d0 f i priorityqueue_api.obj
 0001:0003a910       ??0?$_Vector_val@U?$_Simple_types@V?$_List_unchecked_iterator@V?$_List_val@U?$_List_simple_types@U?$pair@$$CBHV?$vector@NV?$allocator@N@std@@@std@@@std@@@std@@@std@@@std@@@std@@@std@@QEAA@XZ 000000018003b910 f i priorityqueue_api.obj
 0001:0003a950       ??0?$_Vector_val@U?$_Simple_types@V?$vector@NV?$allocator@N@std@@@std@@@std@@@std@@QEAA@PEAV?$vector@NV?$allocator@N@std@@@1@00@Z 000000018003b950 f i priorityqueue_api.obj
 0001:0003a9a0       ??0?$_Vector_val@U?$_Simple_types@V?$vector@NV?$allocator@N@std@@@std@@@std@@@std@@QEAA@XZ 000000018003b9a0 f i priorityqueue_api.obj
 0001:0003a9e0       ??0?$allocator@N@std@@QEAA@XZ 000000018003b9e0 f i priorityqueue_api.obj
 0001:0003a9f0       ??0?$allocator@U?$pair@$$CBHH@std@@@std@@QEAA@XZ 000000018003b9f0 f i priorityqueue_api.obj
 0001:0003aa00       ??0?$allocator@U?$pair@$$CBHV?$vector@NV?$allocator@N@std@@@std@@@std@@@std@@QEAA@XZ 000000018003ba00 f i priorityqueue_api.obj
 0001:0003aa10       ??0?$allocator@U?$pair@HV?$vector@NV?$allocator@N@std@@@std@@@std@@@std@@QEAA@XZ 000000018003ba10 f i priorityqueue_api.obj
 0001:0003aa20       ??0?$allocator@V?$vector@NV?$allocator@N@std@@@std@@@std@@QEAA@XZ 000000018003ba20 f i priorityqueue_api.obj
 0001:0003aa30       ??0?$list@U?$pair@$$CBHH@std@@V?$allocator@U?$pair@$$CBHH@std@@@2@@std@@QEAA@AEBV?$allocator@U?$pair@$$CBHH@std@@@1@@Z 000000018003ba30 f i priorityqueue_api.obj
 0001:0003aa70       ??0?$list@U?$pair@$$CBHV?$vector@NV?$allocator@N@std@@@std@@@std@@V?$allocator@U?$pair@$$CBHV?$vector@NV?$allocator@N@std@@@std@@@std@@@2@@std@@QEAA@AEBV?$allocator@U?$pair@$$CBHV?$vector@NV?$allocator@N@std@@@std@@@std@@@1@@Z 000000018003ba70 f i priorityqueue_api.obj
 0001:0003aab0       ??0?$pair@HV?$vector@NV?$allocator@N@std@@@std@@@std@@QEAA@$$QEAU01@@Z 000000018003bab0 f i priorityqueue_api.obj
 0001:0003aaf0       ??0?$pair@HV?$vector@NV?$allocator@N@std@@@std@@@std@@QEAA@AEBU01@@Z 000000018003baf0 f i priorityqueue_api.obj
 0001:0003ab30       ??0?$priority_queue@U?$pair@HV?$vector@NV?$allocator@N@std@@@std@@@std@@V?$vector@U?$pair@HV?$vector@NV?$allocator@N@std@@@std@@@std@@V?$allocator@U?$pair@HV?$vector@NV?$allocator@N@std@@@std@@@std@@@2@@2@Ucomparator@PriorityQueueImpl@nav@@@std@@QEAA@AEBUcomparator@PriorityQueueImpl@nav@@@Z 000000018003bb30 f i priorityqueue_api.obj
 0001:0003ab70       ??0?$priority_queue@U?$pair@HV?$vector@NV?$allocator@N@std@@@std@@@std@@V?$vector@U?$pair@HV?$vector@NV?$allocator@N@std@@@std@@@std@@V?$allocator@U?$pair@HV?$vector@NV?$allocator@N@std@@@std@@@std@@@2@@2@Ucomparator@PriorityQueueImpl@nav@@@std@@QEAA@XZ 000000018003bb70 f i priorityqueue_api.obj
 0001:0003abb0       ??0?$tuple@$$V@std@@QEAA@AEBV01@@Z 000000018003bbb0 f i priorityqueue_api.obj
 0001:0003abc0       ??0?$tuple@AEBH@std@@QEAA@$$QEAV01@@Z 000000018003bbc0 f i priorityqueue_api.obj
 0001:0003ac00       ??0?$unordered_map@HHU?$hash@H@std@@U?$equal_to@H@2@V?$allocator@U?$pair@$$CBHH@std@@@2@@std@@QEAA@XZ 000000018003bc00 f i priorityqueue_api.obj
 0001:0003ac50       ??0?$unordered_map@HV?$vector@NV?$allocator@N@std@@@std@@U?$hash@H@2@U?$equal_to@H@2@V?$allocator@U?$pair@$$CBHV?$vector@NV?$allocator@N@std@@@std@@@std@@@2@@std@@QEAA@XZ 000000018003bc50 f i priorityqueue_api.obj
 0001:0003aca0       ??0?$vector@NV?$allocator@N@std@@@std@@QEAA@$$QEAV01@@Z 000000018003bca0 f i priorityqueue_api.obj
 0001:0003ada0       ??0?$vector@NV?$allocator@N@std@@@std@@QEAA@AEBV01@@Z 000000018003bda0 f i priorityqueue_api.obj
 0001:0003ae30       ??0?$vector@NV?$allocator@N@std@@@std@@QEAA@XZ 000000018003be30 f i priorityqueue_api.obj
 0001:0003ae70       ??0?$vector@NV?$allocator@N@std@@@std@@QEAA@_KAEBNAEBV?$allocator@N@1@@Z 000000018003be70 f i priorityqueue_api.obj
 0001:0003aec0       ??0?$vector@U?$pair@HV?$vector@NV?$allocator@N@std@@@std@@@std@@V?$allocator@U?$pair@HV?$vector@NV?$allocator@N@std@@@std@@@std@@@2@@std@@QEAA@XZ 000000018003bec0 f i priorityqueue_api.obj
 0001:0003af00       ??0?$vector@V?$vector@NV?$allocator@N@std@@@std@@V?$allocator@V?$vector@NV?$allocator@N@std@@@std@@@2@@std@@QEAA@$$QEAV01@@Z 000000018003bf00 f i priorityqueue_api.obj
 0001:0003b000       ??0?$vector@V?$vector@NV?$allocator@N@std@@@std@@V?$allocator@V?$vector@NV?$allocator@N@std@@@std@@@2@@std@@QEAA@XZ 000000018003c000 f i priorityqueue_api.obj
 0001:0003b040       ??0NodeMap@nav@@QEAA@H@Z   000000018003c040 f i priorityqueue_api.obj
 0001:0003b140       ??0PriorityQueueImpl@nav@@QEAA@HH@Z 000000018003c140 f i priorityqueue_api.obj
 0001:0003b230       ??0SimpleMap@nav@@QEAA@H@Z 000000018003c230 f i priorityqueue_api.obj
 0001:0003b2d0       ??0_Clear_guard@?$_Hash@V?$_Umap_traits@HHV?$_Uhash_compare@HU?$hash@H@std@@U?$equal_to@H@2@@std@@V?$allocator@U?$pair@$$CBHH@std@@@2@$0A@@std@@@std@@QEAA@QEAV12@@Z 000000018003c2d0 f i priorityqueue_api.obj
 0001:0003b2f0       ??0_Clear_guard@?$_Hash@V?$_Umap_traits@HV?$vector@NV?$allocator@N@std@@@std@@V?$_Uhash_compare@HU?$hash@H@std@@U?$equal_to@H@2@@2@V?$allocator@U?$pair@$$CBHV?$vector@NV?$allocator@N@std@@@std@@@std@@@2@$0A@@std@@@std@@QEAA@QEAV12@@Z 000000018003c2f0 f i priorityqueue_api.obj
 0001:0003b310       ??0_Fake_proxy_ptr_impl@std@@QEAA@AEBU_Fake_allocator@1@AEBU_Container_base0@1@@Z 000000018003c310 f i priorityqueue_api.obj
 0001:0003b330       ??0_Range_eraser@?$_Hash@V?$_Umap_traits@HHV?$_Uhash_compare@HU?$hash@H@std@@U?$equal_to@H@2@@std@@V?$allocator@U?$pair@$$CBHH@std@@@2@$0A@@std@@@std@@QEAA@AEAV?$list@U?$pair@$$CBHH@std@@V?$allocator@U?$pair@$$CBHH@std@@@2@@2@QEAU?$_List_node@U?$pair@$$CBHH@std@@PEAX@2@@Z 000000018003c330 f i priorityqueue_api.obj
 0001:0003b380       ??0_Range_eraser@?$_Hash@V?$_Umap_traits@HV?$vector@NV?$allocator@N@std@@@std@@V?$_Uhash_compare@HU?$hash@H@std@@U?$equal_to@H@2@@2@V?$allocator@U?$pair@$$CBHV?$vector@NV?$allocator@N@std@@@std@@@std@@@2@$0A@@std@@@std@@QEAA@AEAV?$list@U?$pair@$$CBHV?$vector@NV?$allocator@N@std@@@std@@@std@@V?$allocator@U?$pair@$$CBHV?$vector@NV?$allocator@N@std@@@std@@@std@@@2@@2@QEAU?$_List_node@U?$pair@$$CBHV?$vector@NV?$allocator@N@std@@@std@@@std@@PEAX@2@@Z 000000018003c380 f i priorityqueue_api.obj
 0001:0003b3d0       ??0bad_alloc@std@@AEAA@QEBD@Z 000000018003c3d0 f i priorityqueue_api.obj
 0001:0003b410       ??0bad_alloc@std@@QEAA@AEBV01@@Z 000000018003c410 f i priorityqueue_api.obj
 0001:0003b450       ??0bad_array_new_length@std@@QEAA@AEBV01@@Z 000000018003c450 f i priorityqueue_api.obj
 0001:0003b490       ??0bad_array_new_length@std@@QEAA@XZ 000000018003c490 f i priorityqueue_api.obj
 0001:0003b4d0       ??0comparator@PriorityQueueImpl@nav@@QEAA@H@Z 000000018003c4d0 f i priorityqueue_api.obj
 0001:0003b4f0       ??0comparator@PriorityQueueImpl@nav@@QEAA@XZ 000000018003c4f0 f i priorityqueue_api.obj
 0001:0003b510       ??0exception@std@@QEAA@AEBV01@@Z 000000018003c510 f i priorityqueue_api.obj
 0001:0003b570       ??0exception@std@@QEAA@QEBDH@Z 000000018003c570 f i priorityqueue_api.obj
 0001:0003b5c0       ??1?$_Alloc_construct_ptr@V?$allocator@U?$_List_node@U?$pair@$$CBHH@std@@PEAX@std@@@std@@@std@@QEAA@XZ 000000018003c5c0 f i priorityqueue_api.obj
 0001:0003b600       ??1?$_Alloc_construct_ptr@V?$allocator@U?$_List_node@U?$pair@$$CBHV?$vector@NV?$allocator@N@std@@@std@@@std@@PEAX@std@@@std@@@std@@QEAA@XZ 000000018003c600 f i priorityqueue_api.obj
 0001:0003b640       ??1?$_Hash@V?$_Umap_traits@HHV?$_Uhash_compare@HU?$hash@H@std@@U?$equal_to@H@2@@std@@V?$allocator@U?$pair@$$CBHH@std@@@2@$0A@@std@@@std@@QEAA@XZ 000000018003c640 f i priorityqueue_api.obj
 0001:0003b670       ??1?$_Hash@V?$_Umap_traits@HV?$vector@NV?$allocator@N@std@@@std@@V?$_Uhash_compare@HU?$hash@H@std@@U?$equal_to@H@2@@2@V?$allocator@U?$pair@$$CBHV?$vector@NV?$allocator@N@std@@@std@@@std@@@2@$0A@@std@@@std@@QEAA@XZ 000000018003c670 f i priorityqueue_api.obj
 0001:0003b6a0       ??1?$_Hash_vec@V?$allocator@V?$_List_unchecked_iterator@V?$_List_val@U?$_List_simple_types@U?$pair@$$CBHH@std@@@std@@@std@@@std@@@std@@@std@@QEAA@XZ 000000018003c6a0 f i priorityqueue_api.obj
 0001:0003b6c0       ??1?$_Hash_vec@V?$allocator@V?$_List_unchecked_iterator@V?$_List_val@U?$_List_simple_types@U?$pair@$$CBHV?$vector@NV?$allocator@N@std@@@std@@@std@@@std@@@std@@@std@@@std@@@std@@QEAA@XZ 000000018003c6c0 f i priorityqueue_api.obj
 0001:0003b6e0       ??1?$_List_node_emplace_op2@V?$allocator@U?$_List_node@U?$pair@$$CBHH@std@@PEAX@std@@@std@@@std@@QEAA@XZ 000000018003c6e0 f i priorityqueue_api.obj
 0001:0003b730       ??1?$_List_node_emplace_op2@V?$allocator@U?$_List_node@U?$pair@$$CBHV?$vector@NV?$allocator@N@std@@@std@@@std@@PEAX@std@@@std@@@std@@QEAA@XZ 000000018003c730 f i priorityqueue_api.obj
 0001:0003b780       ??1?$_Tidy_guard@V?$vector@NV?$allocator@N@std@@@std@@@std@@QEAA@XZ 000000018003c780 f i priorityqueue_api.obj
 0001:0003b7b0       ??1?$_Uninitialized_backout@PEAV?$_List_unchecked_iterator@V?$_List_val@U?$_List_simple_types@U?$pair@$$CBHH@std@@@std@@@std@@@std@@@std@@QEAA@XZ 000000018003c7b0 f i priorityqueue_api.obj
 0001:0003b7e0       ??1?$_Uninitialized_backout@PEAV?$_List_unchecked_iterator@V?$_List_val@U?$_List_simple_types@U?$pair@$$CBHV?$vector@NV?$allocator@N@std@@@std@@@std@@@std@@@std@@@std@@@std@@QEAA@XZ 000000018003c7e0 f i priorityqueue_api.obj
 0001:0003b810       ??1?$_Uninitialized_backout_al@V?$allocator@N@std@@@std@@QEAA@XZ 000000018003c810 f i priorityqueue_api.obj
 0001:0003b840       ??1?$_Uninitialized_backout_al@V?$allocator@U?$pair@HV?$vector@NV?$allocator@N@std@@@std@@@std@@@std@@@std@@QEAA@XZ 000000018003c840 f i priorityqueue_api.obj
 0001:0003b870       ??1?$_Uninitialized_backout_al@V?$allocator@V?$vector@NV?$allocator@N@std@@@std@@@std@@@std@@QEAA@XZ 000000018003c870 f i priorityqueue_api.obj
 0001:0003b8a0       ??1?$list@U?$pair@$$CBHH@std@@V?$allocator@U?$pair@$$CBHH@std@@@2@@std@@QEAA@XZ 000000018003c8a0 f i priorityqueue_api.obj
 0001:0003b8c0       ??1?$list@U?$pair@$$CBHV?$vector@NV?$allocator@N@std@@@std@@@std@@V?$allocator@U?$pair@$$CBHV?$vector@NV?$allocator@N@std@@@std@@@std@@@2@@std@@QEAA@XZ 000000018003c8c0 f i priorityqueue_api.obj
 0001:0003b8e0       ??1?$pair@$$CBHV?$vector@NV?$allocator@N@std@@@std@@@std@@QEAA@XZ 000000018003c8e0 f i priorityqueue_api.obj
 0001:0003b900       ??1?$pair@HV?$vector@NV?$allocator@N@std@@@std@@@std@@QEAA@XZ 000000018003c900 f i priorityqueue_api.obj
 0001:0003b920       ??1?$priority_queue@U?$pair@HV?$vector@NV?$allocator@N@std@@@std@@@std@@V?$vector@U?$pair@HV?$vector@NV?$allocator@N@std@@@std@@@std@@V?$allocator@U?$pair@HV?$vector@NV?$allocator@N@std@@@std@@@std@@@2@@2@Ucomparator@PriorityQueueImpl@nav@@@std@@QEAA@XZ 000000018003c920 f i priorityqueue_api.obj
 0001:0003b940       ??1?$unordered_map@HHU?$hash@H@std@@U?$equal_to@H@2@V?$allocator@U?$pair@$$CBHH@std@@@2@@std@@QEAA@XZ 000000018003c940 f i priorityqueue_api.obj
 0001:0003b960       ??1?$unordered_map@HV?$vector@NV?$allocator@N@std@@@std@@U?$hash@H@2@U?$equal_to@H@2@V?$allocator@U?$pair@$$CBHV?$vector@NV?$allocator@N@std@@@std@@@std@@@2@@std@@QEAA@XZ 000000018003c960 f i priorityqueue_api.obj
 0001:0003b980       ??1?$vector@NV?$allocator@N@std@@@std@@QEAA@XZ 000000018003c980 f i priorityqueue_api.obj
 0001:0003b9a0       ??1?$vector@U?$pair@HV?$vector@NV?$allocator@N@std@@@std@@@std@@V?$allocator@U?$pair@HV?$vector@NV?$allocator@N@std@@@std@@@std@@@2@@std@@QEAA@XZ 000000018003c9a0 f i priorityqueue_api.obj
 0001:0003b9c0       ??1?$vector@V?$vector@NV?$allocator@N@std@@@std@@V?$allocator@V?$vector@NV?$allocator@N@std@@@std@@@2@@std@@QEAA@XZ 000000018003c9c0 f i priorityqueue_api.obj
 0001:0003b9e0       ??1NodeMap@nav@@QEAA@XZ    000000018003c9e0 f i priorityqueue_api.obj
 0001:0003ba10       ??1PriorityQueueImpl@nav@@QEAA@XZ 000000018003ca10 f i priorityqueue_api.obj
 0001:0003ba30       ??1SimpleMap@nav@@QEAA@XZ  000000018003ca30 f i priorityqueue_api.obj
 0001:0003ba50       ??1_Clear_guard@?$_Hash@V?$_Umap_traits@HHV?$_Uhash_compare@HU?$hash@H@std@@U?$equal_to@H@2@@std@@V?$allocator@U?$pair@$$CBHH@std@@@2@$0A@@std@@@std@@QEAA@XZ 000000018003ca50 f i priorityqueue_api.obj
 0001:0003ba80       ??1_Clear_guard@?$_Hash@V?$_Umap_traits@HV?$vector@NV?$allocator@N@std@@@std@@V?$_Uhash_compare@HU?$hash@H@std@@U?$equal_to@H@2@@2@V?$allocator@U?$pair@$$CBHV?$vector@NV?$allocator@N@std@@@std@@@std@@@2@$0A@@std@@@std@@QEAA@XZ 000000018003ca80 f i priorityqueue_api.obj
 0001:0003bab0       ??1_Range_eraser@?$_Hash@V?$_Umap_traits@HHV?$_Uhash_compare@HU?$hash@H@std@@U?$equal_to@H@2@@std@@V?$allocator@U?$pair@$$CBHH@std@@@2@$0A@@std@@@std@@QEAA@XZ 000000018003cab0 f i priorityqueue_api.obj
 0001:0003baf0       ??1_Range_eraser@?$_Hash@V?$_Umap_traits@HV?$vector@NV?$allocator@N@std@@@std@@V?$_Uhash_compare@HU?$hash@H@std@@U?$equal_to@H@2@@2@V?$allocator@U?$pair@$$CBHV?$vector@NV?$allocator@N@std@@@std@@@std@@@2@$0A@@std@@@std@@QEAA@XZ 000000018003caf0 f i priorityqueue_api.obj
 0001:0003bb30       ??1bad_alloc@std@@UEAA@XZ  000000018003cb30 f i priorityqueue_api.obj
 0001:0003bb50       ??1bad_array_new_length@std@@UEAA@XZ 000000018003cb50 f i priorityqueue_api.obj
 0001:0003bb70       ??1exception@std@@UEAA@XZ  000000018003cb70 f i priorityqueue_api.obj
 0001:0003bba0       ??2@YAPEAX_KPEAX@Z         000000018003cba0 f i priorityqueue_api.obj
 0001:0003bbb0       ??4?$_Hash@V?$_Umap_traits@HHV?$_Uhash_compare@HU?$hash@H@std@@U?$equal_to@H@2@@std@@V?$allocator@U?$pair@$$CBHH@std@@@2@$0A@@std@@@std@@QEAAAEAV01@$$QEAV01@@Z 000000018003cbb0 f i priorityqueue_api.obj
 0001:0003bc40       ??4?$_Hash@V?$_Umap_traits@HV?$vector@NV?$allocator@N@std@@@std@@V?$_Uhash_compare@HU?$hash@H@std@@U?$equal_to@H@2@@2@V?$allocator@U?$pair@$$CBHV?$vector@NV?$allocator@N@std@@@std@@@std@@@2@$0A@@std@@@std@@QEAAAEAV01@$$QEAV01@@Z 000000018003cc40 f i priorityqueue_api.obj
 0001:0003bcd0       ??4?$priority_queue@U?$pair@HV?$vector@NV?$allocator@N@std@@@std@@@std@@V?$vector@U?$pair@HV?$vector@NV?$allocator@N@std@@@std@@@std@@V?$allocator@U?$pair@HV?$vector@NV?$allocator@N@std@@@std@@@std@@@2@@2@Ucomparator@PriorityQueueImpl@nav@@@std@@QEAAAEAV01@$$QEAV01@@Z 000000018003ccd0 f i priorityqueue_api.obj
 0001:0003bd10       ??4?$unordered_map@HHU?$hash@H@std@@U?$equal_to@H@2@V?$allocator@U?$pair@$$CBHH@std@@@2@@std@@QEAAAEAV01@$$QEAV01@@Z 000000018003cd10 f i priorityqueue_api.obj
 0001:0003bd40       ??4?$unordered_map@HV?$vector@NV?$allocator@N@std@@@std@@U?$hash@H@2@U?$equal_to@H@2@V?$allocator@U?$pair@$$CBHV?$vector@NV?$allocator@N@std@@@std@@@std@@@2@@std@@QEAAAEAV01@$$QEAV01@@Z 000000018003cd40 f i priorityqueue_api.obj
 0001:0003bd70       ??4?$vector@NV?$allocator@N@std@@@std@@QEAAAEAV01@$$QEAV01@@Z 000000018003cd70 f i priorityqueue_api.obj
 0001:0003be00       ??4?$vector@U?$pair@HV?$vector@NV?$allocator@N@std@@@std@@@std@@V?$allocator@U?$pair@HV?$vector@NV?$allocator@N@std@@@std@@@std@@@2@@std@@QEAAAEAV01@$$QEAV01@@Z 000000018003ce00 f i priorityqueue_api.obj
 0001:0003be90       ??8?$_List_const_iterator@V?$_List_val@U?$_List_simple_types@U?$pair@$$CBHH@std@@@std@@@std@@@std@@QEBA_NAEBV01@@Z 000000018003ce90 f i priorityqueue_api.obj
 0001:0003bed0       ??8?$_List_const_iterator@V?$_List_val@U?$_List_simple_types@U?$pair@$$CBHV?$vector@NV?$allocator@N@std@@@std@@@std@@@std@@@std@@@std@@QEBA_NAEBV01@@Z 000000018003ced0 f i priorityqueue_api.obj
 0001:0003bf10       ??8?$_List_unchecked_const_iterator@V?$_List_val@U?$_List_simple_types@U?$pair@$$CBHH@std@@@std@@@std@@U_Iterator_base0@2@@std@@QEBA_NAEBV01@@Z 000000018003cf10 f i priorityqueue_api.obj
 0001:0003bf50       ??8?$_List_unchecked_const_iterator@V?$_List_val@U?$_List_simple_types@U?$pair@$$CBHV?$vector@NV?$allocator@N@std@@@std@@@std@@@std@@@std@@U_Iterator_base0@2@@std@@QEBA_NAEBV01@@Z 000000018003cf50 f i priorityqueue_api.obj
 0001:0003bf90       ??8?$_Vector_const_iterator@V?$_Vector_val@U?$_Simple_types@V?$vector@NV?$allocator@N@std@@@std@@@std@@@std@@@std@@QEBA_NAEBV01@@Z 000000018003cf90 f i priorityqueue_api.obj
 0001:0003bfe0       ??9?$_List_const_iterator@V?$_List_val@U?$_List_simple_types@U?$pair@$$CBHH@std@@@std@@@std@@@std@@QEBA_NAEBV01@@Z 000000018003cfe0 f i priorityqueue_api.obj
 0001:0003c020       ??9?$_List_unchecked_const_iterator@V?$_List_val@U?$_List_simple_types@U?$pair@$$CBHH@std@@@std@@@std@@U_Iterator_base0@2@@std@@QEBA_NAEBV01@@Z 000000018003d020 f i priorityqueue_api.obj
 0001:0003c060       ??9?$_List_unchecked_const_iterator@V?$_List_val@U?$_List_simple_types@U?$pair@$$CBHV?$vector@NV?$allocator@N@std@@@std@@@std@@@std@@@std@@U_Iterator_base0@2@@std@@QEBA_NAEBV01@@Z 000000018003d060 f i priorityqueue_api.obj
 0001:0003c0a0       ??9?$_Vector_const_iterator@V?$_Vector_val@U?$_Simple_types@V?$vector@NV?$allocator@N@std@@@std@@@std@@@std@@@std@@QEBA_NAEBV01@@Z 000000018003d0a0 f i priorityqueue_api.obj
 0001:0003c0e0       ??A?$unordered_map@HHU?$hash@H@std@@U?$equal_to@H@2@V?$allocator@U?$pair@$$CBHH@std@@@2@@std@@QEAAAEAHAEBH@Z 000000018003d0e0 f i priorityqueue_api.obj
 0001:0003c110       ??A?$unordered_map@HV?$vector@NV?$allocator@N@std@@@std@@U?$hash@H@2@U?$equal_to@H@2@V?$allocator@U?$pair@$$CBHV?$vector@NV?$allocator@N@std@@@std@@@std@@@2@@std@@QEAAAEAV?$vector@NV?$allocator@N@std@@@1@AEBH@Z 000000018003d110 f i priorityqueue_api.obj
 0001:0003c140       ??A?$vector@NV?$allocator@N@std@@@std@@QEAAAEAN_K@Z 000000018003d140 f i priorityqueue_api.obj
 0001:0003c170       ??A?$vector@NV?$allocator@N@std@@@std@@QEBAAEBN_K@Z 000000018003d170 f i priorityqueue_api.obj
 0001:0003c1a0       ??C?$_Vector_iterator@V?$_Vector_val@U?$_Simple_types@V?$vector@NV?$allocator@N@std@@@std@@@std@@@std@@@std@@QEBAPEAV?$vector@NV?$allocator@N@std@@@1@XZ 000000018003d1a0 f i priorityqueue_api.obj
 0001:0003c1b0       ??D?$_List_unchecked_const_iterator@V?$_List_val@U?$_List_simple_types@U?$pair@$$CBHH@std@@@std@@@std@@U_Iterator_base0@2@@std@@QEBAAEBU?$pair@$$CBHH@1@XZ 000000018003d1b0 f i priorityqueue_api.obj
 0001:0003c1d0       ??D?$_List_unchecked_const_iterator@V?$_List_val@U?$_List_simple_types@U?$pair@$$CBHV?$vector@NV?$allocator@N@std@@@std@@@std@@@std@@@std@@U_Iterator_base0@2@@std@@QEBAAEBU?$pair@$$CBHV?$vector@NV?$allocator@N@std@@@std@@@1@XZ 000000018003d1d0 f i priorityqueue_api.obj
 0001:0003c1f0       ??D?$_List_unchecked_iterator@V?$_List_val@U?$_List_simple_types@U?$pair@$$CBHH@std@@@std@@@std@@@std@@QEBAAEAU?$pair@$$CBHH@1@XZ 000000018003d1f0 f i priorityqueue_api.obj
 0001:0003c210       ??D?$_List_unchecked_iterator@V?$_List_val@U?$_List_simple_types@U?$pair@$$CBHV?$vector@NV?$allocator@N@std@@@std@@@std@@@std@@@std@@@std@@QEBAAEAU?$pair@$$CBHV?$vector@NV?$allocator@N@std@@@std@@@1@XZ 000000018003d210 f i priorityqueue_api.obj
 0001:0003c230       ??D?$_Vector_const_iterator@V?$_Vector_val@U?$_Simple_types@V?$vector@NV?$allocator@N@std@@@std@@@std@@@std@@@std@@QEBAAEBV?$vector@NV?$allocator@N@std@@@1@XZ 000000018003d230 f i priorityqueue_api.obj
 0001:0003c240       ??D?$_Vector_iterator@V?$_Vector_val@U?$_Simple_types@V?$vector@NV?$allocator@N@std@@@std@@@std@@@std@@@std@@QEBAAEAV?$vector@NV?$allocator@N@std@@@1@XZ 000000018003d240 f i priorityqueue_api.obj
 0001:0003c260       ??E?$_List_unchecked_const_iterator@V?$_List_val@U?$_List_simple_types@U?$pair@$$CBHH@std@@@std@@@std@@U_Iterator_base0@2@@std@@QEAAAEAV01@XZ 000000018003d260 f i priorityqueue_api.obj
 0001:0003c280       ??E?$_List_unchecked_const_iterator@V?$_List_val@U?$_List_simple_types@U?$pair@$$CBHV?$vector@NV?$allocator@N@std@@@std@@@std@@@std@@@std@@U_Iterator_base0@2@@std@@QEAAAEAV01@XZ 000000018003d280 f i priorityqueue_api.obj
 0001:0003c2a0       ??E?$_List_unchecked_iterator@V?$_List_val@U?$_List_simple_types@U?$pair@$$CBHH@std@@@std@@@std@@@std@@QEAAAEAV01@XZ 000000018003d2a0 f i priorityqueue_api.obj
 0001:0003c2c0       ??E?$_List_unchecked_iterator@V?$_List_val@U?$_List_simple_types@U?$pair@$$CBHV?$vector@NV?$allocator@N@std@@@std@@@std@@@std@@@std@@@std@@QEAAAEAV01@XZ 000000018003d2c0 f i priorityqueue_api.obj
 0001:0003c2e0       ??E?$_Vector_const_iterator@V?$_Vector_val@U?$_Simple_types@V?$vector@NV?$allocator@N@std@@@std@@@std@@@std@@@std@@QEAAAEAV01@XZ 000000018003d2e0 f i priorityqueue_api.obj
 0001:0003c300       ??E?$_Vector_iterator@V?$_Vector_val@U?$_Simple_types@V?$vector@NV?$allocator@N@std@@@std@@@std@@@std@@@std@@QEAAAEAV01@XZ 000000018003d300 f i priorityqueue_api.obj
 0001:0003c320       ??F?$_List_unchecked_const_iterator@V?$_List_val@U?$_List_simple_types@U?$pair@$$CBHH@std@@@std@@@std@@U_Iterator_base0@2@@std@@QEAAAEAV01@XZ 000000018003d320 f i priorityqueue_api.obj
 0001:0003c340       ??F?$_List_unchecked_const_iterator@V?$_List_val@U?$_List_simple_types@U?$pair@$$CBHV?$vector@NV?$allocator@N@std@@@std@@@std@@@std@@@std@@U_Iterator_base0@2@@std@@QEAAAEAV01@XZ 000000018003d340 f i priorityqueue_api.obj
 0001:0003c360       ??R?$_Conditionally_enabled_hash@H$00@std@@QEBA_KAEBH@Z 000000018003d360 f i priorityqueue_api.obj
 0001:0003c380       ??R?$equal_to@H@std@@QEBA_NAEBH0@Z 000000018003d380 f i priorityqueue_api.obj
 0001:0003c3c0       ??Rcomparator@PriorityQueueImpl@nav@@QEBA_NAEBU?$pair@HV?$vector@NV?$allocator@N@std@@@std@@@std@@0@Z 000000018003d3c0 f i priorityqueue_api.obj
 0001:0003c4c0       ??_G?$pair@$$CBHV?$vector@NV?$allocator@N@std@@@std@@@std@@QEAAPEAXI@Z 000000018003d4c0 f i priorityqueue_api.obj
 0001:0003c500       ??_G?$pair@HV?$vector@NV?$allocator@N@std@@@std@@@std@@QEAAPEAXI@Z 000000018003d500 f i priorityqueue_api.obj
 0001:0003c540       ??_G?$vector@NV?$allocator@N@std@@@std@@QEAAPEAXI@Z 000000018003d540 f i priorityqueue_api.obj
 0001:0003c580       ??_GNodeMap@nav@@QEAAPEAXI@Z 000000018003d580 f i priorityqueue_api.obj
 0001:0003c5c0       ??_GPriorityQueueImpl@nav@@QEAAPEAXI@Z 000000018003d5c0 f i priorityqueue_api.obj
 0001:0003c600       ??_GSimpleMap@nav@@QEAAPEAXI@Z 000000018003d600 f i priorityqueue_api.obj
 0001:0003c640       ??_Ebad_alloc@std@@UEAAPEAXI@Z 000000018003d640 f i priorityqueue_api.obj
 0001:0003c640       ??_Gbad_alloc@std@@UEAAPEAXI@Z 000000018003d640 f i priorityqueue_api.obj
 0001:0003c680       ??_Ebad_array_new_length@std@@UEAAPEAXI@Z 000000018003d680 f i priorityqueue_api.obj
 0001:0003c680       ??_Gbad_array_new_length@std@@UEAAPEAXI@Z 000000018003d680 f i priorityqueue_api.obj
 0001:0003c6c0       ??_Eexception@std@@UEAAPEAXI@Z 000000018003d6c0 f i priorityqueue_api.obj
 0001:0003c6c0       ??_Gexception@std@@UEAAPEAXI@Z 000000018003d6c0 f i priorityqueue_api.obj
 0001:0003c700       ?_Adjust_manually_vector_aligned@std@@YAXAEAPEAXAEA_K@Z 000000018003d700 f i priorityqueue_api.obj
 0001:0003c7a0       ?_Adopt@_Iterator_base0@std@@QEAAXPEBX@Z 000000018003d7a0 f i priorityqueue_api.obj
 0001:0003c7b0       ?_Alloc_proxy@_Container_base0@std@@QEAAXAEBU_Fake_allocator@2@@Z 000000018003d7b0 f i priorityqueue_api.obj
 0001:0003c7c0       ?_Alloc_sentinel_and_proxy@?$list@U?$pair@$$CBHH@std@@V?$allocator@U?$pair@$$CBHH@std@@@2@@std@@AEAAXXZ 000000018003d7c0 f i priorityqueue_api.obj
 0001:0003c860       ?_Alloc_sentinel_and_proxy@?$list@U?$pair@$$CBHV?$vector@NV?$allocator@N@std@@@std@@@std@@V?$allocator@U?$pair@$$CBHV?$vector@NV?$allocator@N@std@@@std@@@std@@@2@@std@@AEAAXXZ 000000018003d860 f i priorityqueue_api.obj
 0001:0003c900       ?_Allocate@?$_Alloc_construct_ptr@V?$allocator@U?$_List_node@U?$pair@$$CBHH@std@@PEAX@std@@@std@@@std@@QEAAXXZ 000000018003d900 f i priorityqueue_api.obj
 0001:0003c940       ?_Allocate@?$_Alloc_construct_ptr@V?$allocator@U?$_List_node@U?$pair@$$CBHV?$vector@NV?$allocator@N@std@@@std@@@std@@PEAX@std@@@std@@@std@@QEAAXXZ 000000018003d940 f i priorityqueue_api.obj
 0001:0003c980       ?_Allocate@_Default_allocate_traits@std@@SAPEAX_K@Z 000000018003d980 f i priorityqueue_api.obj
 0001:0003c9a0       ?_Assign_grow@?$_Hash_vec@V?$allocator@V?$_List_unchecked_iterator@V?$_List_val@U?$_List_simple_types@U?$pair@$$CBHH@std@@@std@@@std@@@std@@@std@@@std@@QEAAX_KV?$_List_unchecked_iterator@V?$_List_val@U?$_List_simple_types@U?$pair@$$CBHH@std@@@std@@@std@@@2@@Z 000000018003d9a0 f i priorityqueue_api.obj
 0001:0003cab0       ?_Assign_grow@?$_Hash_vec@V?$allocator@V?$_List_unchecked_iterator@V?$_List_val@U?$_List_simple_types@U?$pair@$$CBHV?$vector@NV?$allocator@N@std@@@std@@@std@@@std@@@std@@@std@@@std@@@std@@QEAAX_KV?$_List_unchecked_iterator@V?$_List_val@U?$_List_simple_types@U?$pair@$$CBHV?$vector@NV?$allocator@N@std@@@std@@@std@@@std@@@std@@@2@@Z 000000018003dab0 f i priorityqueue_api.obj
 0001:0003cbc0       ?_Bump_erased@_Range_eraser@?$_Hash@V?$_Umap_traits@HHV?$_Uhash_compare@HU?$hash@H@std@@U?$equal_to@H@2@@std@@V?$allocator@U?$pair@$$CBHH@std@@@2@$0A@@std@@@std@@QEAAXXZ 000000018003dbc0 f i priorityqueue_api.obj
 0001:0003cc30       ?_Bump_erased@_Range_eraser@?$_Hash@V?$_Umap_traits@HV?$vector@NV?$allocator@N@std@@@std@@V?$_Uhash_compare@HU?$hash@H@std@@U?$equal_to@H@2@@2@V?$allocator@U?$pair@$$CBHV?$vector@NV?$allocator@N@std@@@std@@@std@@@2@$0A@@std@@@std@@QEAAXXZ 000000018003dc30 f i priorityqueue_api.obj
 0001:0003cca0       ?_Buy_nonzero@?$vector@NV?$allocator@N@std@@@std@@AEAAX_K@Z 000000018003dca0 f i priorityqueue_api.obj
 0001:0003cce0       ?_Buy_raw@?$vector@NV?$allocator@N@std@@@std@@AEAAX_K@Z 000000018003dce0 f i priorityqueue_api.obj
 0001:0003cd70       ?_Calculate_growth@?$vector@U?$pair@HV?$vector@NV?$allocator@N@std@@@std@@@std@@V?$allocator@U?$pair@HV?$vector@NV?$allocator@N@std@@@std@@@std@@@2@@std@@AEBA_K_K@Z 000000018003dd70 f i priorityqueue_api.obj
 0001:0003ce00       ?_Calculate_growth@?$vector@V?$vector@NV?$allocator@N@std@@@std@@V?$allocator@V?$vector@NV?$allocator@N@std@@@std@@@2@@std@@AEBA_K_K@Z 000000018003de00 f i priorityqueue_api.obj
 0001:0003ce90       ?_Ceiling_of_log_2@std@@YAK_K@Z 000000018003de90 f i priorityqueue_api.obj
 0001:0003ceb0       ?_Change_array@?$vector@U?$pair@HV?$vector@NV?$allocator@N@std@@@std@@@std@@V?$allocator@U?$pair@HV?$vector@NV?$allocator@N@std@@@std@@@std@@@2@@std@@AEAAXQEAU?$pair@HV?$vector@NV?$allocator@N@std@@@std@@@2@_K1@Z 000000018003deb0 f i priorityqueue_api.obj
 0001:0003cfb0       ?_Change_array@?$vector@V?$vector@NV?$allocator@N@std@@@std@@V?$allocator@V?$vector@NV?$allocator@N@std@@@std@@@2@@std@@AEAAXQEAV?$vector@NV?$allocator@N@std@@@2@_K1@Z 000000018003dfb0 f i priorityqueue_api.obj
 0001:0003d0b0       ?_Check_max_size@?$_Hash@V?$_Umap_traits@HHV?$_Uhash_compare@HU?$hash@H@std@@U?$equal_to@H@2@@std@@V?$allocator@U?$pair@$$CBHH@std@@@2@$0A@@std@@@std@@IEBAXXZ 000000018003e0b0 f i priorityqueue_api.obj
 0001:0003d0f0       ?_Check_max_size@?$_Hash@V?$_Umap_traits@HV?$vector@NV?$allocator@N@std@@@std@@V?$_Uhash_compare@HU?$hash@H@std@@U?$equal_to@H@2@@2@V?$allocator@U?$pair@$$CBHV?$vector@NV?$allocator@N@std@@@std@@@std@@@2@$0A@@std@@@std@@IEBAXXZ 000000018003e0f0 f i priorityqueue_api.obj
 0001:0003d130       ?_Check_rehash_required_1@?$_Hash@V?$_Umap_traits@HHV?$_Uhash_compare@HU?$hash@H@std@@U?$equal_to@H@2@@std@@V?$allocator@U?$pair@$$CBHH@std@@@2@$0A@@std@@@std@@IEBA_NXZ 000000018003e130 f i priorityqueue_api.obj
 0001:0003d200       ?_Check_rehash_required_1@?$_Hash@V?$_Umap_traits@HV?$vector@NV?$allocator@N@std@@@std@@V?$_Uhash_compare@HU?$hash@H@std@@U?$equal_to@H@2@@2@V?$allocator@U?$pair@$$CBHV?$vector@NV?$allocator@N@std@@@std@@@std@@@2@$0A@@std@@@std@@IEBA_NXZ 000000018003e200 f i priorityqueue_api.obj
 0001:0003d2d0       ?_Compat@?$_Vector_const_iterator@V?$_Vector_val@U?$_Simple_types@V?$vector@NV?$allocator@N@std@@@std@@@std@@@std@@@std@@QEBAXAEBV12@@Z 000000018003e2d0 f i priorityqueue_api.obj
 0001:0003d2e0       ?_Desired_grow_bucket_count@?$_Hash@V?$_Umap_traits@HHV?$_Uhash_compare@HU?$hash@H@std@@U?$equal_to@H@2@@std@@V?$allocator@U?$pair@$$CBHH@std@@@2@$0A@@std@@@std@@IEBA_K_K@Z 000000018003e2e0 f i priorityqueue_api.obj
 0001:0003d370       ?_Desired_grow_bucket_count@?$_Hash@V?$_Umap_traits@HV?$vector@NV?$allocator@N@std@@@std@@V?$_Uhash_compare@HU?$hash@H@std@@U?$equal_to@H@2@@2@V?$allocator@U?$pair@$$CBHV?$vector@NV?$allocator@N@std@@@std@@@std@@@2@$0A@@std@@@std@@IEBA_K_K@Z 000000018003e370 f i priorityqueue_api.obj
 0001:0003d400       ?_Do_hash@?$hash@H@std@@SA_KAEBH@Z 000000018003e400 f i priorityqueue_api.obj
 0001:0003d420       ?_Floor_of_log_2@std@@YAK_K@Z 000000018003e420 f i priorityqueue_api.obj
 0001:0003d450       ?_Fnv1a_append_bytes@std@@YA_K_KQEBE_K@Z 000000018003e450 f i priorityqueue_api.obj
 0001:0003d4d0       ?_Forced_rehash@?$_Hash@V?$_Umap_traits@HHV?$_Uhash_compare@HU?$hash@H@std@@U?$equal_to@H@2@@std@@V?$allocator@U?$pair@$$CBHH@std@@@2@$0A@@std@@@std@@IEAAX_K@Z 000000018003e4d0 f i priorityqueue_api.obj
 0001:0003d800       ?_Forced_rehash@?$_Hash@V?$_Umap_traits@HV?$vector@NV?$allocator@N@std@@@std@@V?$_Uhash_compare@HU?$hash@H@std@@U?$equal_to@H@2@@2@V?$allocator@U?$pair@$$CBHV?$vector@NV?$allocator@N@std@@@std@@@std@@@2@$0A@@std@@@std@@IEAAX_K@Z 000000018003e800 f i priorityqueue_api.obj
 0001:0003db30       ?_Get_first@?$_Compressed_pair@U?$equal_to@H@std@@M$00@std@@QEBAAEBU?$equal_to@H@2@XZ 000000018003eb30 f i priorityqueue_api.obj
 0001:0003db40       ?_Get_first@?$_Compressed_pair@U?$hash@H@std@@V?$_Compressed_pair@U?$equal_to@H@std@@M$00@2@$00@std@@QEBAAEBU?$hash@H@2@XZ 000000018003eb40 f i priorityqueue_api.obj
 0001:0003db50       ?_Get_first@?$_Compressed_pair@V?$allocator@N@std@@V?$_Vector_val@U?$_Simple_types@N@std@@@2@$00@std@@QEAAAEAV?$allocator@N@2@XZ 000000018003eb50 f i priorityqueue_api.obj
 0001:0003db60       ?_Get_first@?$_Compressed_pair@V?$allocator@N@std@@V?$_Vector_val@U?$_Simple_types@N@std@@@2@$00@std@@QEBAAEBV?$allocator@N@2@XZ 000000018003eb60 f i priorityqueue_api.obj
 0001:0003db70       ?_Get_first@?$_Compressed_pair@V?$allocator@U?$_List_node@U?$pair@$$CBHH@std@@PEAX@std@@@std@@V?$_List_val@U?$_List_simple_types@U?$pair@$$CBHH@std@@@std@@@2@$00@std@@QEAAAEAV?$allocator@U?$_List_node@U?$pair@$$CBHH@std@@PEAX@std@@@2@XZ 000000018003eb70 f i priorityqueue_api.obj
 0001:0003db80       ?_Get_first@?$_Compressed_pair@V?$allocator@U?$_List_node@U?$pair@$$CBHH@std@@PEAX@std@@@std@@V?$_List_val@U?$_List_simple_types@U?$pair@$$CBHH@std@@@std@@@2@$00@std@@QEBAAEBV?$allocator@U?$_List_node@U?$pair@$$CBHH@std@@PEAX@std@@@2@XZ 000000018003eb80 f i priorityqueue_api.obj
 0001:0003db90       ?_Get_first@?$_Compressed_pair@V?$allocator@U?$_List_node@U?$pair@$$CBHV?$vector@NV?$allocator@N@std@@@std@@@std@@PEAX@std@@@std@@V?$_List_val@U?$_List_simple_types@U?$pair@$$CBHV?$vector@NV?$allocator@N@std@@@std@@@std@@@std@@@2@$00@std@@QEAAAEAV?$allocator@U?$_List_node@U?$pair@$$CBHV?$vector@NV?$allocator@N@std@@@std@@@std@@PEAX@std@@@2@XZ 000000018003eb90 f i priorityqueue_api.obj
 0001:0003dba0       ?_Get_first@?$_Compressed_pair@V?$allocator@U?$_List_node@U?$pair@$$CBHV?$vector@NV?$allocator@N@std@@@std@@@std@@PEAX@std@@@std@@V?$_List_val@U?$_List_simple_types@U?$pair@$$CBHV?$vector@NV?$allocator@N@std@@@std@@@std@@@std@@@2@$00@std@@QEBAAEBV?$allocator@U?$_List_node@U?$pair@$$CBHV?$vector@NV?$allocator@N@std@@@std@@@std@@PEAX@std@@@2@XZ 000000018003eba0 f i priorityqueue_api.obj
 0001:0003dbb0       ?_Get_first@?$_Compressed_pair@V?$allocator@U?$pair@HV?$vector@NV?$allocator@N@std@@@std@@@std@@@std@@V?$_Vector_val@U?$_Simple_types@U?$pair@HV?$vector@NV?$allocator@N@std@@@std@@@std@@@std@@@2@$00@std@@QEAAAEAV?$allocator@U?$pair@HV?$vector@NV?$allocator@N@std@@@std@@@std@@@2@XZ 000000018003ebb0 f i priorityqueue_api.obj
 0001:0003dbc0       ?_Get_first@?$_Compressed_pair@V?$allocator@U?$pair@HV?$vector@NV?$allocator@N@std@@@std@@@std@@@std@@V?$_Vector_val@U?$_Simple_types@U?$pair@HV?$vector@NV?$allocator@N@std@@@std@@@std@@@std@@@2@$00@std@@QEBAAEBV?$allocator@U?$pair@HV?$vector@NV?$allocator@N@std@@@std@@@std@@@2@XZ 000000018003ebc0 f i priorityqueue_api.obj
 0001:0003dbd0       ?_Get_first@?$_Compressed_pair@V?$allocator@V?$_List_unchecked_iterator@V?$_List_val@U?$_List_simple_types@U?$pair@$$CBHH@std@@@std@@@std@@@std@@@std@@V?$_Vector_val@U?$_Simple_types@V?$_List_unchecked_iterator@V?$_List_val@U?$_List_simple_types@U?$pair@$$CBHH@std@@@std@@@std@@@std@@@std@@@2@$00@std@@QEAAAEAV?$allocator@V?$_List_unchecked_iterator@V?$_List_val@U?$_List_simple_types@U?$pair@$$CBHH@std@@@std@@@std@@@std@@@2@XZ 000000018003ebd0 f i priorityqueue_api.obj
 0001:0003dbe0       ?_Get_first@?$_Compressed_pair@V?$allocator@V?$_List_unchecked_iterator@V?$_List_val@U?$_List_simple_types@U?$pair@$$CBHH@std@@@std@@@std@@@std@@@std@@V?$_Vector_val@U?$_Simple_types@V?$_List_unchecked_iterator@V?$_List_val@U?$_List_simple_types@U?$pair@$$CBHH@std@@@std@@@std@@@std@@@std@@@2@$00@std@@QEBAAEBV?$allocator@V?$_List_unchecked_iterator@V?$_List_val@U?$_List_simple_types@U?$pair@$$CBHH@std@@@std@@@std@@@std@@@2@XZ 000000018003ebe0 f i priorityqueue_api.obj
 0001:0003dbf0       ?_Get_first@?$_Compressed_pair@V?$allocator@V?$_List_unchecked_iterator@V?$_List_val@U?$_List_simple_types@U?$pair@$$CBHV?$vector@NV?$allocator@N@std@@@std@@@std@@@std@@@std@@@std@@@std@@V?$_Vector_val@U?$_Simple_types@V?$_List_unchecked_iterator@V?$_List_val@U?$_List_simple_types@U?$pair@$$CBHV?$vector@NV?$allocator@N@std@@@std@@@std@@@std@@@std@@@std@@@std@@@2@$00@std@@QEAAAEAV?$allocator@V?$_List_unchecked_iterator@V?$_List_val@U?$_List_simple_types@U?$pair@$$CBHV?$vector@NV?$allocator@N@std@@@std@@@std@@@std@@@std@@@std@@@2@XZ 000000018003ebf0 f i priorityqueue_api.obj
 0001:0003dc00       ?_Get_first@?$_Compressed_pair@V?$allocator@V?$_List_unchecked_iterator@V?$_List_val@U?$_List_simple_types@U?$pair@$$CBHV?$vector@NV?$allocator@N@std@@@std@@@std@@@std@@@std@@@std@@@std@@V?$_Vector_val@U?$_Simple_types@V?$_List_unchecked_iterator@V?$_List_val@U?$_List_simple_types@U?$pair@$$CBHV?$vector@NV?$allocator@N@std@@@std@@@std@@@std@@@std@@@std@@@std@@@2@$00@std@@QEBAAEBV?$allocator@V?$_List_unchecked_iterator@V?$_List_val@U?$_List_simple_types@U?$pair@$$CBHV?$vector@NV?$allocator@N@std@@@std@@@std@@@std@@@std@@@std@@@2@XZ 000000018003ec00 f i priorityqueue_api.obj
 0001:0003dc10       ?_Get_first@?$_Compressed_pair@V?$allocator@V?$vector@NV?$allocator@N@std@@@std@@@std@@V?$_Vector_val@U?$_Simple_types@V?$vector@NV?$allocator@N@std@@@std@@@std@@@2@$00@std@@QEAAAEAV?$allocator@V?$vector@NV?$allocator@N@std@@@std@@@2@XZ 000000018003ec10 f i priorityqueue_api.obj
 0001:0003dc20       ?_Get_first@?$_Compressed_pair@V?$allocator@V?$vector@NV?$allocator@N@std@@@std@@@std@@V?$_Vector_val@U?$_Simple_types@V?$vector@NV?$allocator@N@std@@@std@@@std@@@2@$00@std@@QEBAAEBV?$allocator@V?$vector@NV?$allocator@N@std@@@std@@@2@XZ 000000018003ec20 f i priorityqueue_api.obj
 0001:0003dc30       ?_Get_max_bucket_size@?$_Uhash_compare@HU?$hash@H@std@@U?$equal_to@H@2@@std@@QEAAAEAMXZ 000000018003ec30 f i priorityqueue_api.obj
 0001:0003dc40       ?_Get_max_bucket_size@?$_Uhash_compare@HU?$hash@H@std@@U?$equal_to@H@2@@std@@QEBAAEBMXZ 000000018003ec40 f i priorityqueue_api.obj
 0001:0003dc50       ?_Getal@?$_Hash@V?$_Umap_traits@HHV?$_Uhash_compare@HU?$hash@H@std@@U?$equal_to@H@2@@std@@V?$allocator@U?$pair@$$CBHH@std@@@2@$0A@@std@@@std@@IEAAAEAV?$allocator@U?$_List_node@U?$pair@$$CBHH@std@@PEAX@std@@@2@XZ 000000018003ec50 f i priorityqueue_api.obj
 0001:0003dc70       ?_Getal@?$_Hash@V?$_Umap_traits@HV?$vector@NV?$allocator@N@std@@@std@@V?$_Uhash_compare@HU?$hash@H@std@@U?$equal_to@H@2@@2@V?$allocator@U?$pair@$$CBHV?$vector@NV?$allocator@N@std@@@std@@@std@@@2@$0A@@std@@@std@@IEAAAEAV?$allocator@U?$_List_node@U?$pair@$$CBHV?$vector@NV?$allocator@N@std@@@std@@@std@@PEAX@std@@@2@XZ 000000018003ec70 f i priorityqueue_api.obj
 0001:0003dc90       ?_Getal@?$list@U?$pair@$$CBHH@std@@V?$allocator@U?$pair@$$CBHH@std@@@2@@std@@AEAAAEAV?$allocator@U?$_List_node@U?$pair@$$CBHH@std@@PEAX@std@@@2@XZ 000000018003ec90 f i priorityqueue_api.obj
 0001:0003dcb0       ?_Getal@?$list@U?$pair@$$CBHH@std@@V?$allocator@U?$pair@$$CBHH@std@@@2@@std@@AEBAAEBV?$allocator@U?$_List_node@U?$pair@$$CBHH@std@@PEAX@std@@@2@XZ 000000018003ecb0 f i priorityqueue_api.obj
 0001:0003dcd0       ?_Getal@?$list@U?$pair@$$CBHV?$vector@NV?$allocator@N@std@@@std@@@std@@V?$allocator@U?$pair@$$CBHV?$vector@NV?$allocator@N@std@@@std@@@std@@@2@@std@@AEAAAEAV?$allocator@U?$_List_node@U?$pair@$$CBHV?$vector@NV?$allocator@N@std@@@std@@@std@@PEAX@std@@@2@XZ 000000018003ecd0 f i priorityqueue_api.obj
 0001:0003dcf0       ?_Getal@?$list@U?$pair@$$CBHV?$vector@NV?$allocator@N@std@@@std@@@std@@V?$allocator@U?$pair@$$CBHV?$vector@NV?$allocator@N@std@@@std@@@std@@@2@@std@@AEBAAEBV?$allocator@U?$_List_node@U?$pair@$$CBHV?$vector@NV?$allocator@N@std@@@std@@@std@@PEAX@std@@@2@XZ 000000018003ecf0 f i priorityqueue_api.obj
 0001:0003dd10       ?_Getal@?$vector@NV?$allocator@N@std@@@std@@AEAAAEAV?$allocator@N@2@XZ 000000018003ed10 f i priorityqueue_api.obj
 0001:0003dd30       ?_Getal@?$vector@NV?$allocator@N@std@@@std@@AEBAAEBV?$allocator@N@2@XZ 000000018003ed30 f i priorityqueue_api.obj
 0001:0003dd50       ?_Getal@?$vector@U?$pair@HV?$vector@NV?$allocator@N@std@@@std@@@std@@V?$allocator@U?$pair@HV?$vector@NV?$allocator@N@std@@@std@@@std@@@2@@std@@AEAAAEAV?$allocator@U?$pair@HV?$vector@NV?$allocator@N@std@@@std@@@std@@@2@XZ 000000018003ed50 f i priorityqueue_api.obj
 0001:0003dd70       ?_Getal@?$vector@U?$pair@HV?$vector@NV?$allocator@N@std@@@std@@@std@@V?$allocator@U?$pair@HV?$vector@NV?$allocator@N@std@@@std@@@std@@@2@@std@@AEBAAEBV?$allocator@U?$pair@HV?$vector@NV?$allocator@N@std@@@std@@@std@@@2@XZ 000000018003ed70 f i priorityqueue_api.obj
 0001:0003dd90       ?_Getal@?$vector@V?$vector@NV?$allocator@N@std@@@std@@V?$allocator@V?$vector@NV?$allocator@N@std@@@std@@@2@@std@@AEAAAEAV?$allocator@V?$vector@NV?$allocator@N@std@@@std@@@2@XZ 000000018003ed90 f i priorityqueue_api.obj
 0001:0003ddb0       ?_Getal@?$vector@V?$vector@NV?$allocator@N@std@@@std@@V?$allocator@V?$vector@NV?$allocator@N@std@@@std@@@2@@std@@AEBAAEBV?$allocator@V?$vector@NV?$allocator@N@std@@@std@@@2@XZ 000000018003edb0 f i priorityqueue_api.obj
 0001:0003ddd0       ?_Insert_new_node_before@?$_Hash@V?$_Umap_traits@HHV?$_Uhash_compare@HU?$hash@H@std@@U?$equal_to@H@2@@std@@V?$allocator@U?$pair@$$CBHH@std@@@2@$0A@@std@@@std@@IEAAPEAU?$_List_node@U?$pair@$$CBHH@std@@PEAX@2@_KQEAU32@1@Z 000000018003edd0 f i priorityqueue_api.obj
 0001:0003df20       ?_Insert_new_node_before@?$_Hash@V?$_Umap_traits@HV?$vector@NV?$allocator@N@std@@@std@@V?$_Uhash_compare@HU?$hash@H@std@@U?$equal_to@H@2@@2@V?$allocator@U?$pair@$$CBHV?$vector@NV?$allocator@N@std@@@std@@@std@@@2@$0A@@std@@@std@@IEAAPEAU?$_List_node@U?$pair@$$CBHV?$vector@NV?$allocator@N@std@@@std@@@std@@PEAX@2@_KQEAU32@1@Z 000000018003ef20 f i priorityqueue_api.obj
 0001:0003e070       ?_Make_iter@?$list@U?$pair@$$CBHH@std@@V?$allocator@U?$pair@$$CBHH@std@@@2@@std@@QEBA?AV?$_List_iterator@V?$_List_val@U?$_List_simple_types@U?$pair@$$CBHH@std@@@std@@@std@@@2@PEAU?$_List_node@U?$pair@$$CBHH@std@@PEAX@2@@Z 000000018003f070 f i priorityqueue_api.obj
 0001:0003e0b0       ?_Make_iter@?$list@U?$pair@$$CBHV?$vector@NV?$allocator@N@std@@@std@@@std@@V?$allocator@U?$pair@$$CBHV?$vector@NV?$allocator@N@std@@@std@@@std@@@2@@std@@QEBA?AV?$_List_iterator@V?$_List_val@U?$_List_simple_types@U?$pair@$$CBHV?$vector@NV?$allocator@N@std@@@std@@@std@@@std@@@std@@@2@PEAU?$_List_node@U?$pair@$$CBHV?$vector@NV?$allocator@N@std@@@std@@@std@@PEAX@2@@Z 000000018003f0b0 f i priorityqueue_api.obj
 0001:0003e0f0       ?_Max_bucket_size@?$_Hash@V?$_Umap_traits@HHV?$_Uhash_compare@HU?$hash@H@std@@U?$equal_to@H@2@@std@@V?$allocator@U?$pair@$$CBHH@std@@@2@$0A@@std@@@std@@IEAAAEAMXZ 000000018003f0f0 f i priorityqueue_api.obj
 0001:0003e110       ?_Max_bucket_size@?$_Hash@V?$_Umap_traits@HHV?$_Uhash_compare@HU?$hash@H@std@@U?$equal_to@H@2@@std@@V?$allocator@U?$pair@$$CBHH@std@@@2@$0A@@std@@@std@@IEBAAEBMXZ 000000018003f110 f i priorityqueue_api.obj
 0001:0003e130       ?_Max_bucket_size@?$_Hash@V?$_Umap_traits@HV?$vector@NV?$allocator@N@std@@@std@@V?$_Uhash_compare@HU?$hash@H@std@@U?$equal_to@H@2@@2@V?$allocator@U?$pair@$$CBHV?$vector@NV?$allocator@N@std@@@std@@@std@@@2@$0A@@std@@@std@@IEAAAEAMXZ 000000018003f130 f i priorityqueue_api.obj
 0001:0003e150       ?_Max_bucket_size@?$_Hash@V?$_Umap_traits@HV?$vector@NV?$allocator@N@std@@@std@@V?$_Uhash_compare@HU?$hash@H@std@@U?$equal_to@H@2@@2@V?$allocator@U?$pair@$$CBHV?$vector@NV?$allocator@N@std@@@std@@@std@@@2@$0A@@std@@@std@@IEBAAEBMXZ 000000018003f150 f i priorityqueue_api.obj
 0001:0003e170       ?_Min_load_factor_buckets@?$_Hash@V?$_Umap_traits@HHV?$_Uhash_compare@HU?$hash@H@std@@U?$equal_to@H@2@@std@@V?$allocator@U?$pair@$$CBHH@std@@@2@$0A@@std@@@std@@IEBA_K_K@Z 000000018003f170 f i priorityqueue_api.obj
 0001:0003e210       ?_Min_load_factor_buckets@?$_Hash@V?$_Umap_traits@HV?$vector@NV?$allocator@N@std@@@std@@V?$_Uhash_compare@HU?$hash@H@std@@U?$equal_to@H@2@@2@V?$allocator@U?$pair@$$CBHV?$vector@NV?$allocator@N@std@@@std@@@std@@@2@$0A@@std@@@std@@IEBA_K_K@Z 000000018003f210 f i priorityqueue_api.obj
 0001:0003e2b0       ?_Orphan_all@_Container_base0@std@@QEAAXXZ 000000018003f2b0 f i priorityqueue_api.obj
 0001:0003e2c0       ?_Orphan_non_end@?$_List_val@U?$_List_simple_types@U?$pair@$$CBHH@std@@@std@@@std@@QEAAXXZ 000000018003f2c0 f i priorityqueue_api.obj
 0001:0003e2d0       ?_Orphan_non_end@?$_List_val@U?$_List_simple_types@U?$pair@$$CBHV?$vector@NV?$allocator@N@std@@@std@@@std@@@std@@@std@@QEAAXXZ 000000018003f2d0 f i priorityqueue_api.obj
 0001:0003e2e0       ?_Orphan_range@?$vector@U?$pair@HV?$vector@NV?$allocator@N@std@@@std@@@std@@V?$allocator@U?$pair@HV?$vector@NV?$allocator@N@std@@@std@@@std@@@2@@std@@AEBAXPEAU?$pair@HV?$vector@NV?$allocator@N@std@@@std@@@2@0@Z 000000018003f2e0 f i priorityqueue_api.obj
 0001:0003e2f0       ?_Orphan_range@?$vector@V?$vector@NV?$allocator@N@std@@@std@@V?$allocator@V?$vector@NV?$allocator@N@std@@@std@@@2@@std@@AEBAXPEAV?$vector@NV?$allocator@N@std@@@2@0@Z 000000018003f2f0 f i priorityqueue_api.obj
 0001:0003e300       ?_Pocma_both@?$_Hash@V?$_Umap_traits@HHV?$_Uhash_compare@HU?$hash@H@std@@U?$equal_to@H@2@@std@@V?$allocator@U?$pair@$$CBHH@std@@@2@$0A@@std@@@std@@AEAAXAEAV12@@Z 000000018003f300 f i priorityqueue_api.obj
 0001:0003e380       ?_Pocma_both@?$_Hash@V?$_Umap_traits@HV?$vector@NV?$allocator@N@std@@@std@@V?$_Uhash_compare@HU?$hash@H@std@@U?$equal_to@H@2@@2@V?$allocator@U?$pair@$$CBHV?$vector@NV?$allocator@N@std@@@std@@@std@@@2@$0A@@std@@@std@@AEAAXAEAV12@@Z 000000018003f380 f i priorityqueue_api.obj
 0001:0003e400       ?_Rehash_for_1@?$_Hash@V?$_Umap_traits@HHV?$_Uhash_compare@HU?$hash@H@std@@U?$equal_to@H@2@@std@@V?$allocator@U?$pair@$$CBHH@std@@@2@$0A@@std@@@std@@IEAAXXZ 000000018003f400 f i priorityqueue_api.obj
 0001:0003e450       ?_Rehash_for_1@?$_Hash@V?$_Umap_traits@HV?$vector@NV?$allocator@N@std@@@std@@V?$_Uhash_compare@HU?$hash@H@std@@U?$equal_to@H@2@@2@V?$allocator@U?$pair@$$CBHV?$vector@NV?$allocator@N@std@@@std@@@std@@@2@$0A@@std@@@std@@IEAAXXZ 000000018003f450 f i priorityqueue_api.obj
 0001:0003e4a0       ?_Release@?$_Alloc_construct_ptr@V?$allocator@U?$_List_node@U?$pair@$$CBHH@std@@PEAX@std@@@std@@@std@@QEAAPEAU?$_List_node@U?$pair@$$CBHH@std@@PEAX@2@XZ 000000018003f4a0 f i priorityqueue_api.obj
 0001:0003e4d0       ?_Release@?$_Alloc_construct_ptr@V?$allocator@U?$_List_node@U?$pair@$$CBHV?$vector@NV?$allocator@N@std@@@std@@@std@@PEAX@std@@@std@@@std@@QEAAPEAU?$_List_node@U?$pair@$$CBHV?$vector@NV?$allocator@N@std@@@std@@@std@@PEAX@2@XZ 000000018003f4d0 f i priorityqueue_api.obj
 0001:0003e500       ?_Release@?$_Uninitialized_backout@PEAV?$_List_unchecked_iterator@V?$_List_val@U?$_List_simple_types@U?$pair@$$CBHH@std@@@std@@@std@@@std@@@std@@QEAAPEAV?$_List_unchecked_iterator@V?$_List_val@U?$_List_simple_types@U?$pair@$$CBHH@std@@@std@@@std@@@2@XZ 000000018003f500 f i priorityqueue_api.obj
 0001:0003e520       ?_Release@?$_Uninitialized_backout@PEAV?$_List_unchecked_iterator@V?$_List_val@U?$_List_simple_types@U?$pair@$$CBHV?$vector@NV?$allocator@N@std@@@std@@@std@@@std@@@std@@@std@@@std@@QEAAPEAV?$_List_unchecked_iterator@V?$_List_val@U?$_List_simple_types@U?$pair@$$CBHV?$vector@NV?$allocator@N@std@@@std@@@std@@@std@@@std@@@2@XZ 000000018003f520 f i priorityqueue_api.obj
 0001:0003e540       ?_Release@?$_Uninitialized_backout_al@V?$allocator@N@std@@@std@@QEAAPEANXZ 000000018003f540 f i priorityqueue_api.obj
 0001:0003e560       ?_Release@?$_Uninitialized_backout_al@V?$allocator@U?$pair@HV?$vector@NV?$allocator@N@std@@@std@@@std@@@std@@@std@@QEAAPEAU?$pair@HV?$vector@NV?$allocator@N@std@@@std@@@2@XZ 000000018003f560 f i priorityqueue_api.obj
 0001:0003e580       ?_Release@?$_Uninitialized_backout_al@V?$allocator@V?$vector@NV?$allocator@N@std@@@std@@@std@@@std@@QEAAPEAV?$vector@NV?$allocator@N@std@@@2@XZ 000000018003f580 f i priorityqueue_api.obj
 0001:0003e5a0       ?_Release@_Fake_proxy_ptr_impl@std@@QEAAXXZ 000000018003f5a0 f i priorityqueue_api.obj
 0001:0003e5b0       ?_Swap_proxy_and_iterators@_Container_base0@std@@QEAAXAEAU12@@Z 000000018003f5b0 f i priorityqueue_api.obj
 0001:0003e5c0       ?_Swap_val@?$_Hash@V?$_Umap_traits@HHV?$_Uhash_compare@HU?$hash@H@std@@U?$equal_to@H@2@@std@@V?$allocator@U?$pair@$$CBHH@std@@@2@$0A@@std@@@std@@AEAAXAEAV12@@Z 000000018003f5c0 f i priorityqueue_api.obj
 0001:0003e640       ?_Swap_val@?$_Hash@V?$_Umap_traits@HV?$vector@NV?$allocator@N@std@@@std@@V?$_Uhash_compare@HU?$hash@H@std@@U?$equal_to@H@2@@2@V?$allocator@U?$pair@$$CBHV?$vector@NV?$allocator@N@std@@@std@@@std@@@2@$0A@@std@@@std@@AEAAXAEAV12@@Z 000000018003f640 f i priorityqueue_api.obj
 0001:0003e6c0       ?_Swap_val@?$_Vector_val@U?$_Simple_types@V?$_List_unchecked_iterator@V?$_List_val@U?$_List_simple_types@U?$pair@$$CBHH@std@@@std@@@std@@@std@@@std@@@std@@QEAAXAEAV12@@Z 000000018003f6c0 f i priorityqueue_api.obj
 0001:0003e730       ?_Swap_val@?$_Vector_val@U?$_Simple_types@V?$_List_unchecked_iterator@V?$_List_val@U?$_List_simple_types@U?$pair@$$CBHV?$vector@NV?$allocator@N@std@@@std@@@std@@@std@@@std@@@std@@@std@@@std@@QEAAXAEAV12@@Z 000000018003f730 f i priorityqueue_api.obj
 0001:0003e7a0       ?_Swap_val@?$list@U?$pair@$$CBHH@std@@V?$allocator@U?$pair@$$CBHH@std@@@2@@std@@AEAAXAEAV12@@Z 000000018003f7a0 f i priorityqueue_api.obj
 0001:0003e810       ?_Swap_val@?$list@U?$pair@$$CBHV?$vector@NV?$allocator@N@std@@@std@@@std@@V?$allocator@U?$pair@$$CBHV?$vector@NV?$allocator@N@std@@@std@@@std@@@2@@std@@AEAAXAEAV12@@Z 000000018003f810 f i priorityqueue_api.obj
 0001:0003e880       ?_Take_contents@?$_Vector_val@U?$_Simple_types@N@std@@@std@@QEAAXAEAV12@@Z 000000018003f880 f i priorityqueue_api.obj
 0001:0003e900       ?_Take_contents@?$_Vector_val@U?$_Simple_types@U?$pair@HV?$vector@NV?$allocator@N@std@@@std@@@std@@@std@@@std@@QEAAXAEAV12@@Z 000000018003f900 f i priorityqueue_api.obj
 0001:0003e980       ?_Throw_bad_array_new_length@std@@YAXXZ 000000018003f980 f i priorityqueue_api.obj
 0001:0003e9b0       ?_Tidy@?$_Hash_vec@V?$allocator@V?$_List_unchecked_iterator@V?$_List_val@U?$_List_simple_types@U?$pair@$$CBHH@std@@@std@@@std@@@std@@@std@@@std@@QEAAXXZ 000000018003f9b0 f i priorityqueue_api.obj
 0001:0003ea40       ?_Tidy@?$_Hash_vec@V?$allocator@V?$_List_unchecked_iterator@V?$_List_val@U?$_List_simple_types@U?$pair@$$CBHV?$vector@NV?$allocator@N@std@@@std@@@std@@@std@@@std@@@std@@@std@@@std@@QEAAXXZ 000000018003fa40 f i priorityqueue_api.obj
 0001:0003ead0       ?_Tidy@?$list@U?$pair@$$CBHH@std@@V?$allocator@U?$pair@$$CBHH@std@@@2@@std@@AEAAXXZ 000000018003fad0 f i priorityqueue_api.obj
 0001:0003eb30       ?_Tidy@?$list@U?$pair@$$CBHV?$vector@NV?$allocator@N@std@@@std@@@std@@V?$allocator@U?$pair@$$CBHV?$vector@NV?$allocator@N@std@@@std@@@std@@@2@@std@@AEAAXXZ 000000018003fb30 f i priorityqueue_api.obj
 0001:0003eb90       ?_Tidy@?$vector@NV?$allocator@N@std@@@std@@AEAAXXZ 000000018003fb90 f i priorityqueue_api.obj
 0001:0003ec60       ?_Tidy@?$vector@U?$pair@HV?$vector@NV?$allocator@N@std@@@std@@@std@@V?$allocator@U?$pair@HV?$vector@NV?$allocator@N@std@@@std@@@std@@@2@@std@@AEAAXXZ 000000018003fc60 f i priorityqueue_api.obj
 0001:0003ed30       ?_Tidy@?$vector@V?$vector@NV?$allocator@N@std@@@std@@V?$allocator@V?$vector@NV?$allocator@N@std@@@std@@@2@@std@@AEAAXXZ 000000018003fd30 f i priorityqueue_api.obj
 0001:0003ee10       ?_Unchecked_begin@?$_Hash@V?$_Umap_traits@HHV?$_Uhash_compare@HU?$hash@H@std@@U?$equal_to@H@2@@std@@V?$allocator@U?$pair@$$CBHH@std@@@2@$0A@@std@@@std@@QEAA?AV?$_List_unchecked_iterator@V?$_List_val@U?$_List_simple_types@U?$pair@$$CBHH@std@@@std@@@std@@@2@XZ 000000018003fe10 f i priorityqueue_api.obj
 0001:0003ee40       ?_Unchecked_begin@?$_Hash@V?$_Umap_traits@HV?$vector@NV?$allocator@N@std@@@std@@V?$_Uhash_compare@HU?$hash@H@std@@U?$equal_to@H@2@@2@V?$allocator@U?$pair@$$CBHV?$vector@NV?$allocator@N@std@@@std@@@std@@@2@$0A@@std@@@std@@QEAA?AV?$_List_unchecked_iterator@V?$_List_val@U?$_List_simple_types@U?$pair@$$CBHV?$vector@NV?$allocator@N@std@@@std@@@std@@@std@@@std@@@2@XZ 000000018003fe40 f i priorityqueue_api.obj
 0001:0003ee70       ?_Unchecked_begin@?$list@U?$pair@$$CBHH@std@@V?$allocator@U?$pair@$$CBHH@std@@@2@@std@@QEAA?AV?$_List_unchecked_iterator@V?$_List_val@U?$_List_simple_types@U?$pair@$$CBHH@std@@@std@@@std@@@2@XZ 000000018003fe70 f i priorityqueue_api.obj
 0001:0003eea0       ?_Unchecked_begin@?$list@U?$pair@$$CBHV?$vector@NV?$allocator@N@std@@@std@@@std@@V?$allocator@U?$pair@$$CBHV?$vector@NV?$allocator@N@std@@@std@@@std@@@2@@std@@QEAA?AV?$_List_unchecked_iterator@V?$_List_val@U?$_List_simple_types@U?$pair@$$CBHV?$vector@NV?$allocator@N@std@@@std@@@std@@@std@@@std@@@2@XZ 000000018003fea0 f i priorityqueue_api.obj
 0001:0003eed0       ?_Unchecked_begin@?$vector@NV?$allocator@N@std@@@std@@QEAAPEANXZ 000000018003fed0 f i priorityqueue_api.obj
 0001:0003eee0       ?_Unchecked_end@?$_Hash@V?$_Umap_traits@HHV?$_Uhash_compare@HU?$hash@H@std@@U?$equal_to@H@2@@std@@V?$allocator@U?$pair@$$CBHH@std@@@2@$0A@@std@@@std@@QEAA?AV?$_List_unchecked_iterator@V?$_List_val@U?$_List_simple_types@U?$pair@$$CBHH@std@@@std@@@std@@@2@XZ 000000018003fee0 f i priorityqueue_api.obj
 0001:0003ef10       ?_Unchecked_end@?$_Hash@V?$_Umap_traits@HV?$vector@NV?$allocator@N@std@@@std@@V?$_Uhash_compare@HU?$hash@H@std@@U?$equal_to@H@2@@2@V?$allocator@U?$pair@$$CBHV?$vector@NV?$allocator@N@std@@@std@@@std@@@2@$0A@@std@@@std@@QEAA?AV?$_List_unchecked_iterator@V?$_List_val@U?$_List_simple_types@U?$pair@$$CBHV?$vector@NV?$allocator@N@std@@@std@@@std@@@std@@@std@@@2@XZ 000000018003ff10 f i priorityqueue_api.obj
 0001:0003ef40       ?_Unchecked_end@?$list@U?$pair@$$CBHH@std@@V?$allocator@U?$pair@$$CBHH@std@@@2@@std@@QEAA?AV?$_List_unchecked_iterator@V?$_List_val@U?$_List_simple_types@U?$pair@$$CBHH@std@@@std@@@std@@@2@XZ 000000018003ff40 f i priorityqueue_api.obj
 0001:0003ef70       ?_Unchecked_end@?$list@U?$pair@$$CBHV?$vector@NV?$allocator@N@std@@@std@@@std@@V?$allocator@U?$pair@$$CBHV?$vector@NV?$allocator@N@std@@@std@@@std@@@2@@std@@QEAA?AV?$_List_unchecked_iterator@V?$_List_val@U?$_List_simple_types@U?$pair@$$CBHV?$vector@NV?$allocator@N@std@@@std@@@std@@@std@@@std@@@2@XZ 000000018003ff70 f i priorityqueue_api.obj
 0001:0003efa0       ?_Unchecked_end@?$vector@NV?$allocator@N@std@@@std@@QEAAPEANXZ 000000018003ffa0 f i priorityqueue_api.obj
 0001:0003efb0       ?_Unchecked_erase@?$_Hash@V?$_Umap_traits@HHV?$_Uhash_compare@HU?$hash@H@std@@U?$equal_to@H@2@@std@@V?$allocator@U?$pair@$$CBHH@std@@@2@$0A@@std@@@std@@AEAAPEAU?$_List_node@U?$pair@$$CBHH@std@@PEAX@2@PEAU32@QEAU32@@Z 000000018003ffb0 f i priorityqueue_api.obj
 0001:0003f2c0       ?_Unchecked_erase@?$_Hash@V?$_Umap_traits@HV?$vector@NV?$allocator@N@std@@@std@@V?$_Uhash_compare@HU?$hash@H@std@@U?$equal_to@H@2@@2@V?$allocator@U?$pair@$$CBHV?$vector@NV?$allocator@N@std@@@std@@@std@@@2@$0A@@std@@@std@@AEAAPEAU?$_List_node@U?$pair@$$CBHV?$vector@NV?$allocator@N@std@@@std@@@std@@PEAX@2@PEAU32@QEAU32@@Z 00000001800402c0 f i priorityqueue_api.obj
 0001:0003f5d0       ?_Unchecked_splice@?$_List_val@U?$_List_simple_types@U?$pair@$$CBHH@std@@@std@@@std@@SAPEAU?$_List_node@U?$pair@$$CBHH@std@@PEAX@2@QEAU32@00@Z 00000001800405d0 f i priorityqueue_api.obj
 0001:0003f670       ?_Unchecked_splice@?$_List_val@U?$_List_simple_types@U?$pair@$$CBHV?$vector@NV?$allocator@N@std@@@std@@@std@@@std@@@std@@SAPEAU?$_List_node@U?$pair@$$CBHV?$vector@NV?$allocator@N@std@@@std@@@std@@PEAX@2@QEAU32@00@Z 0000000180040670 f i priorityqueue_api.obj
 0001:0003f710       ?_Unwrapped@?$_Vector_iterator@V?$_Vector_val@U?$_Simple_types@U?$pair@HV?$vector@NV?$allocator@N@std@@@std@@@std@@@std@@@std@@@std@@QEBAPEAU?$pair@HV?$vector@NV?$allocator@N@std@@@std@@@2@XZ 0000000180040710 f i priorityqueue_api.obj
 0001:0003f730       ?_Xlength@?$vector@NV?$allocator@N@std@@@std@@CAXXZ 0000000180040730 f i priorityqueue_api.obj
 0001:0003f750       ?_Xlength@?$vector@U?$pair@HV?$vector@NV?$allocator@N@std@@@std@@@std@@V?$allocator@U?$pair@HV?$vector@NV?$allocator@N@std@@@std@@@std@@@2@@std@@CAXXZ 0000000180040750 f i priorityqueue_api.obj
 0001:0003f770       ?_Xlength@?$vector@V?$vector@NV?$allocator@N@std@@@std@@V?$allocator@V?$vector@NV?$allocator@N@std@@@std@@@2@@std@@CAXXZ 0000000180040770 f i priorityqueue_api.obj
 0001:0003f790       ?allocate@?$allocator@N@std@@QEAAPEAN_K@Z 0000000180040790 f i priorityqueue_api.obj
 0001:0003f7c0       ?allocate@?$allocator@U?$_List_node@U?$pair@$$CBHH@std@@PEAX@std@@@std@@QEAAPEAU?$_List_node@U?$pair@$$CBHH@std@@PEAX@2@_K@Z 00000001800407c0 f i priorityqueue_api.obj
 0001:0003f7f0       ?allocate@?$allocator@U?$_List_node@U?$pair@$$CBHV?$vector@NV?$allocator@N@std@@@std@@@std@@PEAX@std@@@std@@QEAAPEAU?$_List_node@U?$pair@$$CBHV?$vector@NV?$allocator@N@std@@@std@@@std@@PEAX@2@_K@Z 00000001800407f0 f i priorityqueue_api.obj
 0001:0003f820       ?allocate@?$allocator@U?$pair@HV?$vector@NV?$allocator@N@std@@@std@@@std@@@std@@QEAAPEAU?$pair@HV?$vector@NV?$allocator@N@std@@@std@@@2@_K@Z 0000000180040820 f i priorityqueue_api.obj
 0001:0003f850       ?allocate@?$allocator@V?$_List_unchecked_iterator@V?$_List_val@U?$_List_simple_types@U?$pair@$$CBHH@std@@@std@@@std@@@std@@@std@@QEAAPEAV?$_List_unchecked_iterator@V?$_List_val@U?$_List_simple_types@U?$pair@$$CBHH@std@@@std@@@std@@@2@_K@Z 0000000180040850 f i priorityqueue_api.obj
 0001:0003f880       ?allocate@?$allocator@V?$_List_unchecked_iterator@V?$_List_val@U?$_List_simple_types@U?$pair@$$CBHV?$vector@NV?$allocator@N@std@@@std@@@std@@@std@@@std@@@std@@@std@@QEAAPEAV?$_List_unchecked_iterator@V?$_List_val@U?$_List_simple_types@U?$pair@$$CBHV?$vector@NV?$allocator@N@std@@@std@@@std@@@std@@@std@@@2@_K@Z 0000000180040880 f i priorityqueue_api.obj
 0001:0003f8b0       ?allocate@?$allocator@V?$vector@NV?$allocator@N@std@@@std@@@std@@QEAAPEAV?$vector@NV?$allocator@N@std@@@2@_K@Z 00000001800408b0 f i priorityqueue_api.obj
 0001:0003f8e0       ?begin@?$vector@U?$pair@HV?$vector@NV?$allocator@N@std@@@std@@@std@@V?$allocator@U?$pair@HV?$vector@NV?$allocator@N@std@@@std@@@std@@@2@@std@@QEAA?AV?$_Vector_iterator@V?$_Vector_val@U?$_Simple_types@U?$pair@HV?$vector@NV?$allocator@N@std@@@std@@@std@@@std@@@std@@@2@XZ 00000001800408e0 f i priorityqueue_api.obj
 0001:0003f930       ?begin@?$vector@V?$vector@NV?$allocator@N@std@@@std@@V?$allocator@V?$vector@NV?$allocator@N@std@@@std@@@2@@std@@QEAA?AV?$_Vector_iterator@V?$_Vector_val@U?$_Simple_types@V?$vector@NV?$allocator@N@std@@@std@@@std@@@std@@@2@XZ 0000000180040930 f i priorityqueue_api.obj
 0001:0003f980       ?bucket@?$_Hash@V?$_Umap_traits@HHV?$_Uhash_compare@HU?$hash@H@std@@U?$equal_to@H@2@@std@@V?$allocator@U?$pair@$$CBHH@std@@@2@$0A@@std@@@std@@QEBA_KAEBH@Z 0000000180040980 f i priorityqueue_api.obj
 0001:0003f9b0       ?bucket@?$_Hash@V?$_Umap_traits@HV?$vector@NV?$allocator@N@std@@@std@@V?$_Uhash_compare@HU?$hash@H@std@@U?$equal_to@H@2@@2@V?$allocator@U?$pair@$$CBHV?$vector@NV?$allocator@N@std@@@std@@@std@@@2@$0A@@std@@@std@@QEBA_KAEBH@Z 00000001800409b0 f i priorityqueue_api.obj
 0001:0003f9e0       ?bucket_count@?$_Hash@V?$_Umap_traits@HHV?$_Uhash_compare@HU?$hash@H@std@@U?$equal_to@H@2@@std@@V?$allocator@U?$pair@$$CBHH@std@@@2@$0A@@std@@@std@@QEBA_KXZ 00000001800409e0 f i priorityqueue_api.obj
 0001:0003f9f0       ?bucket_count@?$_Hash@V?$_Umap_traits@HV?$vector@NV?$allocator@N@std@@@std@@V?$_Uhash_compare@HU?$hash@H@std@@U?$equal_to@H@2@@2@V?$allocator@U?$pair@$$CBHV?$vector@NV?$allocator@N@std@@@std@@@std@@@2@$0A@@std@@@std@@QEBA_KXZ 00000001800409f0 f i priorityqueue_api.obj
 0001:0003fa00       ?capacity@?$_Hash_vec@V?$allocator@V?$_List_unchecked_iterator@V?$_List_val@U?$_List_simple_types@U?$pair@$$CBHH@std@@@std@@@std@@@std@@@std@@@std@@QEBA_KXZ 0000000180040a00 f i priorityqueue_api.obj
 0001:0003fa20       ?capacity@?$_Hash_vec@V?$allocator@V?$_List_unchecked_iterator@V?$_List_val@U?$_List_simple_types@U?$pair@$$CBHV?$vector@NV?$allocator@N@std@@@std@@@std@@@std@@@std@@@std@@@std@@@std@@QEBA_KXZ 0000000180040a20 f i priorityqueue_api.obj
 0001:0003fa40       ?capacity@?$vector@U?$pair@HV?$vector@NV?$allocator@N@std@@@std@@@std@@V?$allocator@U?$pair@HV?$vector@NV?$allocator@N@std@@@std@@@std@@@2@@std@@QEBA_KXZ 0000000180040a40 f i priorityqueue_api.obj
 0001:0003fa70       ?capacity@?$vector@V?$vector@NV?$allocator@N@std@@@std@@V?$allocator@V?$vector@NV?$allocator@N@std@@@std@@@2@@std@@QEBA_KXZ 0000000180040a70 f i priorityqueue_api.obj
 0001:0003fab0       ?clear@?$_Hash@V?$_Umap_traits@HHV?$_Uhash_compare@HU?$hash@H@std@@U?$equal_to@H@2@@std@@V?$allocator@U?$pair@$$CBHH@std@@@2@$0A@@std@@@std@@QEAAXXZ 0000000180040ab0 f i priorityqueue_api.obj
 0001:0003fb60       ?clear@?$_Hash@V?$_Umap_traits@HV?$vector@NV?$allocator@N@std@@@std@@V?$_Uhash_compare@HU?$hash@H@std@@U?$equal_to@H@2@@2@V?$allocator@U?$pair@$$CBHV?$vector@NV?$allocator@N@std@@@std@@@std@@@2@$0A@@std@@@std@@QEAAXXZ 0000000180040b60 f i priorityqueue_api.obj
 0001:0003fc10       ?clear@?$list@U?$pair@$$CBHH@std@@V?$allocator@U?$pair@$$CBHH@std@@@2@@std@@QEAAXXZ 0000000180040c10 f i priorityqueue_api.obj
 0001:0003fc80       ?clear@?$list@U?$pair@$$CBHV?$vector@NV?$allocator@N@std@@@std@@@std@@V?$allocator@U?$pair@$$CBHV?$vector@NV?$allocator@N@std@@@std@@@std@@@2@@std@@QEAAXXZ 0000000180040c80 f i priorityqueue_api.obj
 0001:0003fcf0       ?deallocate@?$_Default_allocator_traits@V?$allocator@U?$_List_node@U?$pair@$$CBHH@std@@PEAX@std@@@std@@@std@@SAXAEAV?$allocator@U?$_List_node@U?$pair@$$CBHH@std@@PEAX@std@@@2@QEAU?$_List_node@U?$pair@$$CBHH@std@@PEAX@2@_K@Z 0000000180040cf0 f i priorityqueue_api.obj
 0001:0003fd20       ?deallocate@?$_Default_allocator_traits@V?$allocator@U?$_List_node@U?$pair@$$CBHV?$vector@NV?$allocator@N@std@@@std@@@std@@PEAX@std@@@std@@@std@@SAXAEAV?$allocator@U?$_List_node@U?$pair@$$CBHV?$vector@NV?$allocator@N@std@@@std@@@std@@PEAX@std@@@2@QEAU?$_List_node@U?$pair@$$CBHV?$vector@NV?$allocator@N@std@@@std@@@std@@PEAX@2@_K@Z 0000000180040d20 f i priorityqueue_api.obj
 0001:0003fd50       ?deallocate@?$allocator@N@std@@QEAAXQEAN_K@Z 0000000180040d50 f i priorityqueue_api.obj
 0001:0003fd80       ?deallocate@?$allocator@U?$_List_node@U?$pair@$$CBHH@std@@PEAX@std@@@std@@QEAAXQEAU?$_List_node@U?$pair@$$CBHH@std@@PEAX@2@_K@Z 0000000180040d80 f i priorityqueue_api.obj
 0001:0003fdb0       ?deallocate@?$allocator@U?$_List_node@U?$pair@$$CBHV?$vector@NV?$allocator@N@std@@@std@@@std@@PEAX@std@@@std@@QEAAXQEAU?$_List_node@U?$pair@$$CBHV?$vector@NV?$allocator@N@std@@@std@@@std@@PEAX@2@_K@Z 0000000180040db0 f i priorityqueue_api.obj
 0001:0003fde0       ?deallocate@?$allocator@U?$pair@HV?$vector@NV?$allocator@N@std@@@std@@@std@@@std@@QEAAXQEAU?$pair@HV?$vector@NV?$allocator@N@std@@@std@@@2@_K@Z 0000000180040de0 f i priorityqueue_api.obj
 0001:0003fe10       ?deallocate@?$allocator@V?$_List_unchecked_iterator@V?$_List_val@U?$_List_simple_types@U?$pair@$$CBHH@std@@@std@@@std@@@std@@@std@@QEAAXQEAV?$_List_unchecked_iterator@V?$_List_val@U?$_List_simple_types@U?$pair@$$CBHH@std@@@std@@@std@@@2@_K@Z 0000000180040e10 f i priorityqueue_api.obj
 0001:0003fe40       ?deallocate@?$allocator@V?$_List_unchecked_iterator@V?$_List_val@U?$_List_simple_types@U?$pair@$$CBHV?$vector@NV?$allocator@N@std@@@std@@@std@@@std@@@std@@@std@@@std@@QEAAXQEAV?$_List_unchecked_iterator@V?$_List_val@U?$_List_simple_types@U?$pair@$$CBHV?$vector@NV?$allocator@N@std@@@std@@@std@@@std@@@std@@@2@_K@Z 0000000180040e40 f i priorityqueue_api.obj
 0001:0003fe70       ?deallocate@?$allocator@V?$vector@NV?$allocator@N@std@@@std@@@std@@QEAAXQEAV?$vector@NV?$allocator@N@std@@@2@_K@Z 0000000180040e70 f i priorityqueue_api.obj
 0001:0003fea0       ?empty@?$priority_queue@U?$pair@HV?$vector@NV?$allocator@N@std@@@std@@@std@@V?$vector@U?$pair@HV?$vector@NV?$allocator@N@std@@@std@@@std@@V?$allocator@U?$pair@HV?$vector@NV?$allocator@N@std@@@std@@@std@@@2@@2@Ucomparator@PriorityQueueImpl@nav@@@std@@QEBA_NXZ 0000000180040ea0 f i priorityqueue_api.obj
 0001:0003fec0       ?empty@?$vector@U?$pair@HV?$vector@NV?$allocator@N@std@@@std@@@std@@V?$allocator@U?$pair@HV?$vector@NV?$allocator@N@std@@@std@@@std@@@2@@std@@QEBA_NXZ 0000000180040ec0 f i priorityqueue_api.obj
 0001:0003ff00       ?empty@?$vector@V?$vector@NV?$allocator@N@std@@@std@@V?$allocator@V?$vector@NV?$allocator@N@std@@@std@@@2@@std@@QEBA_NXZ 0000000180040f00 f i priorityqueue_api.obj
 0001:0003ff40       ?end@?$_Hash@V?$_Umap_traits@HHV?$_Uhash_compare@HU?$hash@H@std@@U?$equal_to@H@2@@std@@V?$allocator@U?$pair@$$CBHH@std@@@2@$0A@@std@@@std@@QEAA?AV?$_List_iterator@V?$_List_val@U?$_List_simple_types@U?$pair@$$CBHH@std@@@std@@@std@@@2@XZ 0000000180040f40 f i priorityqueue_api.obj
 0001:0003ff70       ?end@?$_Hash@V?$_Umap_traits@HV?$vector@NV?$allocator@N@std@@@std@@V?$_Uhash_compare@HU?$hash@H@std@@U?$equal_to@H@2@@2@V?$allocator@U?$pair@$$CBHV?$vector@NV?$allocator@N@std@@@std@@@std@@@2@$0A@@std@@@std@@QEAA?AV?$_List_iterator@V?$_List_val@U?$_List_simple_types@U?$pair@$$CBHV?$vector@NV?$allocator@N@std@@@std@@@std@@@std@@@std@@@2@XZ 0000000180040f70 f i priorityqueue_api.obj
 0001:0003ffa0       ?end@?$list@U?$pair@$$CBHH@std@@V?$allocator@U?$pair@$$CBHH@std@@@2@@std@@QEAA?AV?$_List_iterator@V?$_List_val@U?$_List_simple_types@U?$pair@$$CBHH@std@@@std@@@std@@@2@XZ 0000000180040fa0 f i priorityqueue_api.obj
 0001:0003ffe0       ?end@?$list@U?$pair@$$CBHV?$vector@NV?$allocator@N@std@@@std@@@std@@V?$allocator@U?$pair@$$CBHV?$vector@NV?$allocator@N@std@@@std@@@std@@@2@@std@@QEAA?AV?$_List_iterator@V?$_List_val@U?$_List_simple_types@U?$pair@$$CBHV?$vector@NV?$allocator@N@std@@@std@@@std@@@std@@@std@@@2@XZ 0000000180040fe0 f i priorityqueue_api.obj
 0001:00040020       ?end@?$vector@U?$pair@HV?$vector@NV?$allocator@N@std@@@std@@@std@@V?$allocator@U?$pair@HV?$vector@NV?$allocator@N@std@@@std@@@std@@@2@@std@@QEAA?AV?$_Vector_iterator@V?$_Vector_val@U?$_Simple_types@U?$pair@HV?$vector@NV?$allocator@N@std@@@std@@@std@@@std@@@std@@@2@XZ 0000000180041020 f i priorityqueue_api.obj
 0001:00040070       ?end@?$vector@V?$vector@NV?$allocator@N@std@@@std@@V?$allocator@V?$vector@NV?$allocator@N@std@@@std@@@2@@std@@QEAA?AV?$_Vector_iterator@V?$_Vector_val@U?$_Simple_types@V?$vector@NV?$allocator@N@std@@@std@@@std@@@std@@@2@XZ 0000000180041070 f i priorityqueue_api.obj
 0001:000400c0       ?front@?$vector@U?$pair@HV?$vector@NV?$allocator@N@std@@@std@@@std@@V?$allocator@U?$pair@HV?$vector@NV?$allocator@N@std@@@std@@@std@@@2@@std@@QEBAAEBU?$pair@HV?$vector@NV?$allocator@N@std@@@std@@@2@XZ 00000001800410c0 f i priorityqueue_api.obj
 0001:000400e0       ?getData@SimpleMap@nav@@QEAA?AV?$vector@NV?$allocator@N@std@@@std@@H@Z 00000001800410e0 f i priorityqueue_api.obj
 0001:000401c0       ?getDataDim@NodeMap@nav@@QEAAHXZ 00000001800411c0 f i priorityqueue_api.obj
 0001:000401e0       ?getDataDim@PriorityQueueImpl@nav@@QEAAHXZ 00000001800411e0 f i priorityqueue_api.obj
 0001:000401f0       ?getDataDim@SimpleMap@nav@@QEAAHXZ 00000001800411f0 f i priorityqueue_api.obj
 0001:00040200       ?getNodeData@NodeMap@nav@@QEAA?AV?$vector@NV?$allocator@N@std@@@std@@HAEAH@Z 0000000180041200 f i priorityqueue_api.obj
 0001:00040310       ?getNumNodes@NodeMap@nav@@QEAA_KXZ 0000000180041310 f i priorityqueue_api.obj
 0001:00040330       ?getSize@SimpleMap@nav@@QEAA_KXZ 0000000180041330 f i priorityqueue_api.obj
 0001:00040350       ?insertData@SimpleMap@nav@@QEAAXHPEBN@Z 0000000180041350 f i priorityqueue_api.obj
 0001:000403e0       ?insertNode@NodeMap@nav@@QEAAHPEBNH@Z 00000001800413e0 f i priorityqueue_api.obj
 0001:000404e0       ?isEmpty@PriorityQueueImpl@nav@@QEAA_NXZ 00000001800414e0 f i priorityqueue_api.obj
 0001:00040520       ?max@?$numeric_limits@_J@std@@SA_JXZ 0000000180041520 f i priorityqueue_api.obj
 0001:00040530       ?max_load_factor@?$_Hash@V?$_Umap_traits@HHV?$_Uhash_compare@HU?$hash@H@std@@U?$equal_to@H@2@@std@@V?$allocator@U?$pair@$$CBHH@std@@@2@$0A@@std@@@std@@QEBAMXZ 0000000180041530 f i priorityqueue_api.obj
 0001:00040550       ?max_load_factor@?$_Hash@V?$_Umap_traits@HV?$vector@NV?$allocator@N@std@@@std@@V?$_Uhash_compare@HU?$hash@H@std@@U?$equal_to@H@2@@2@V?$allocator@U?$pair@$$CBHV?$vector@NV?$allocator@N@std@@@std@@@std@@@2@$0A@@std@@@std@@QEBAMXZ 0000000180041550 f i priorityqueue_api.obj
 0001:00040570       ?max_size@?$_Default_allocator_traits@V?$allocator@N@std@@@std@@SA_KAEBV?$allocator@N@2@@Z 0000000180041570 f i priorityqueue_api.obj
 0001:00040580       ?max_size@?$_Default_allocator_traits@V?$allocator@U?$_List_node@U?$pair@$$CBHH@std@@PEAX@std@@@std@@@std@@SA_KAEBV?$allocator@U?$_List_node@U?$pair@$$CBHH@std@@PEAX@std@@@2@@Z 0000000180041580 f i priorityqueue_api.obj
 0001:00040590       ?max_size@?$_Default_allocator_traits@V?$allocator@U?$_List_node@U?$pair@$$CBHV?$vector@NV?$allocator@N@std@@@std@@@std@@PEAX@std@@@std@@@std@@SA_KAEBV?$allocator@U?$_List_node@U?$pair@$$CBHV?$vector@NV?$allocator@N@std@@@std@@@std@@PEAX@std@@@2@@Z 0000000180041590 f i priorityqueue_api.obj
 0001:000405a0       ?max_size@?$_Default_allocator_traits@V?$allocator@U?$pair@HV?$vector@NV?$allocator@N@std@@@std@@@std@@@std@@@std@@SA_KAEBV?$allocator@U?$pair@HV?$vector@NV?$allocator@N@std@@@std@@@std@@@2@@Z 00000001800415a0 f i priorityqueue_api.obj
 0001:000405b0       ?max_size@?$_Default_allocator_traits@V?$allocator@V?$_List_unchecked_iterator@V?$_List_val@U?$_List_simple_types@U?$pair@$$CBHH@std@@@std@@@std@@@std@@@std@@@std@@SA_KAEBV?$allocator@V?$_List_unchecked_iterator@V?$_List_val@U?$_List_simple_types@U?$pair@$$CBHH@std@@@std@@@std@@@std@@@2@@Z 00000001800415b0 f i priorityqueue_api.obj
 0001:000405c0       ?max_size@?$_Default_allocator_traits@V?$allocator@V?$_List_unchecked_iterator@V?$_List_val@U?$_List_simple_types@U?$pair@$$CBHV?$vector@NV?$allocator@N@std@@@std@@@std@@@std@@@std@@@std@@@std@@@std@@SA_KAEBV?$allocator@V?$_List_unchecked_iterator@V?$_List_val@U?$_List_simple_types@U?$pair@$$CBHV?$vector@NV?$allocator@N@std@@@std@@@std@@@std@@@std@@@std@@@2@@Z 00000001800415c0 f i priorityqueue_api.obj
 0001:000405d0       ?max_size@?$_Default_allocator_traits@V?$allocator@V?$vector@NV?$allocator@N@std@@@std@@@std@@@std@@SA_KAEBV?$allocator@V?$vector@NV?$allocator@N@std@@@std@@@2@@Z 00000001800415d0 f i priorityqueue_api.obj
 0001:000405e0       ?max_size@?$_Hash_vec@V?$allocator@V?$_List_unchecked_iterator@V?$_List_val@U?$_List_simple_types@U?$pair@$$CBHH@std@@@std@@@std@@@std@@@std@@@std@@QEBA_KXZ 00000001800415e0 f i priorityqueue_api.obj
 0001:00040630       ?max_size@?$_Hash_vec@V?$allocator@V?$_List_unchecked_iterator@V?$_List_val@U?$_List_simple_types@U?$pair@$$CBHV?$vector@NV?$allocator@N@std@@@std@@@std@@@std@@@std@@@std@@@std@@@std@@QEBA_KXZ 0000000180041630 f i priorityqueue_api.obj
 0001:00040680       ?max_size@?$list@U?$pair@$$CBHH@std@@V?$allocator@U?$pair@$$CBHH@std@@@2@@std@@QEBA_KXZ 0000000180041680 f i priorityqueue_api.obj
 0001:000406d0       ?max_size@?$list@U?$pair@$$CBHV?$vector@NV?$allocator@N@std@@@std@@@std@@V?$allocator@U?$pair@$$CBHV?$vector@NV?$allocator@N@std@@@std@@@std@@@2@@std@@QEBA_KXZ 00000001800416d0 f i priorityqueue_api.obj
 0001:00040720       ?max_size@?$vector@NV?$allocator@N@std@@@std@@QEBA_KXZ 0000000180041720 f i priorityqueue_api.obj
 0001:00040770       ?max_size@?$vector@U?$pair@HV?$vector@NV?$allocator@N@std@@@std@@@std@@V?$allocator@U?$pair@HV?$vector@NV?$allocator@N@std@@@std@@@std@@@2@@std@@QEBA_KXZ 0000000180041770 f i priorityqueue_api.obj
 0001:000407c0       ?max_size@?$vector@V?$vector@NV?$allocator@N@std@@@std@@V?$allocator@V?$vector@NV?$allocator@N@std@@@std@@@2@@std@@QEBA_KXZ 00000001800417c0 f i priorityqueue_api.obj
 0001:00040810       ?pop@?$priority_queue@U?$pair@HV?$vector@NV?$allocator@N@std@@@std@@@std@@V?$vector@U?$pair@HV?$vector@NV?$allocator@N@std@@@std@@@std@@V?$allocator@U?$pair@HV?$vector@NV?$allocator@N@std@@@std@@@std@@@2@@2@Ucomparator@PriorityQueueImpl@nav@@@std@@QEAAXXZ 0000000180041810 f i priorityqueue_api.obj
 0001:00040890       ?pop@PriorityQueueImpl@nav@@QEAAXXZ 0000000180041890 f i priorityqueue_api.obj
 0001:000408d0       ?pop_back@?$vector@U?$pair@HV?$vector@NV?$allocator@N@std@@@std@@@std@@V?$allocator@U?$pair@HV?$vector@NV?$allocator@N@std@@@std@@@std@@@2@@std@@QEAAXXZ 00000001800418d0 f i priorityqueue_api.obj
 0001:00040960       ?push@PriorityQueueImpl@nav@@QEAAHPEBN@Z 0000000180041960 f i priorityqueue_api.obj
 0001:00040a00       ?push_back@?$vector@V?$vector@NV?$allocator@N@std@@@std@@V?$allocator@V?$vector@NV?$allocator@N@std@@@std@@@2@@std@@QEAAXAEBV?$vector@NV?$allocator@N@std@@@2@@Z 0000000180041a00 f i priorityqueue_api.obj
 0001:00040a30       ?quiet_NaN@?$numeric_limits@N@std@@SANXZ 0000000180041a30 f i priorityqueue_api.obj
 0001:00040a40       ?select_on_container_copy_construction@?$_Default_allocator_traits@V?$allocator@N@std@@@std@@SA?AV?$allocator@N@2@AEBV32@@Z 0000000180041a40 f i priorityqueue_api.obj
 0001:00040a50       ?size@?$_Hash@V?$_Umap_traits@HV?$vector@NV?$allocator@N@std@@@std@@V?$_Uhash_compare@HU?$hash@H@std@@U?$equal_to@H@2@@2@V?$allocator@U?$pair@$$CBHV?$vector@NV?$allocator@N@std@@@std@@@std@@@2@$0A@@std@@@std@@QEBA_KXZ 0000000180041a50 f i priorityqueue_api.obj
 0001:00040a70       ?size@?$_Hash_vec@V?$allocator@V?$_List_unchecked_iterator@V?$_List_val@U?$_List_simple_types@U?$pair@$$CBHH@std@@@std@@@std@@@std@@@std@@@std@@QEBA_KXZ 0000000180041a70 f i priorityqueue_api.obj
 0001:00040a90       ?size@?$_Hash_vec@V?$allocator@V?$_List_unchecked_iterator@V?$_List_val@U?$_List_simple_types@U?$pair@$$CBHV?$vector@NV?$allocator@N@std@@@std@@@std@@@std@@@std@@@std@@@std@@@std@@QEBA_KXZ 0000000180041a90 f i priorityqueue_api.obj
 0001:00040ab0       ?size@?$list@U?$pair@$$CBHV?$vector@NV?$allocator@N@std@@@std@@@std@@V?$allocator@U?$pair@$$CBHV?$vector@NV?$allocator@N@std@@@std@@@std@@@2@@std@@QEBA_KXZ 0000000180041ab0 f i priorityqueue_api.obj
 0001:00040ac0       ?size@?$priority_queue@U?$pair@HV?$vector@NV?$allocator@N@std@@@std@@@std@@V?$vector@U?$pair@HV?$vector@NV?$allocator@N@std@@@std@@@std@@V?$allocator@U?$pair@HV?$vector@NV?$allocator@N@std@@@std@@@std@@@2@@2@Ucomparator@PriorityQueueImpl@nav@@@std@@QEBA_KXZ 0000000180041ac0 f i priorityqueue_api.obj
 0001:00040ae0       ?size@?$vector@NV?$allocator@N@std@@@std@@QEBA_KXZ 0000000180041ae0 f i priorityqueue_api.obj
 0001:00040b10       ?size@?$vector@U?$pair@HV?$vector@NV?$allocator@N@std@@@std@@@std@@V?$allocator@U?$pair@HV?$vector@NV?$allocator@N@std@@@std@@@std@@@2@@std@@QEBA_KXZ 0000000180041b10 f i priorityqueue_api.obj
 0001:00040b40       ?size@?$vector@V?$vector@NV?$allocator@N@std@@@std@@V?$allocator@V?$vector@NV?$allocator@N@std@@@std@@@2@@std@@QEBA_KXZ 0000000180041b40 f i priorityqueue_api.obj
 0001:00040b80       ?size@PriorityQueueImpl@nav@@QEAAHXZ 0000000180041b80 f i priorityqueue_api.obj
 0001:00040ba0       ?top@?$priority_queue@U?$pair@HV?$vector@NV?$allocator@N@std@@@std@@@std@@V?$vector@U?$pair@HV?$vector@NV?$allocator@N@std@@@std@@@std@@V?$allocator@U?$pair@HV?$vector@NV?$allocator@N@std@@@std@@@std@@@2@@2@Ucomparator@PriorityQueueImpl@nav@@@std@@QEBAAEBU?$pair@HV?$vector@NV?$allocator@N@std@@@std@@@2@XZ 0000000180041ba0 f i priorityqueue_api.obj
 0001:00040bc0       ?top@PriorityQueueImpl@nav@@QEAA?AU?$pair@HV?$vector@NV?$allocator@N@std@@@std@@@std@@XZ 0000000180041bc0 f i priorityqueue_api.obj
 0001:00040ca0       ?traceBack@NodeMap@nav@@QEAA?AV?$vector@V?$vector@NV?$allocator@N@std@@@std@@V?$allocator@V?$vector@NV?$allocator@N@std@@@std@@@2@@std@@H@Z 0000000180041ca0 f i priorityqueue_api.obj
 0001:00040dc0       ?what@exception@std@@UEBAPEBDXZ 0000000180041dc0 f i priorityqueue_api.obj
 0001:00040e00       getBitfieldFromFloat       0000000180041e00 f   half_type.obj
 0001:00040e30       getFloatFromBitfield       0000000180041e30 f   half_type.obj
 0001:00040e60       getBitfieldFromHalf        0000000180041e60 f   half_type.obj
 0001:00040e80       getHalfFromBitfield        0000000180041e80 f   half_type.obj
 0001:00040eb0       halfToFloat                0000000180041eb0 f   half_type.obj
 0001:00041030       halfToDouble               0000000180042030 f   half_type.obj
 0001:00041060       floatToHalf                0000000180042060 f   half_type.obj
 0001:000412c0       doubleToHalf               00000001800422c0 f   half_type.obj
 0001:000415ab       sf_load_rtw_optimization_info 00000001800425ab f   sf_runtime:sf_runtime.dll
 0001:000415b1       sf_mex_decode              00000001800425b1 f   sf_runtime:sf_runtime.dll
 0001:000415b7       sf_init_ChartRunTimeInfo   00000001800425b7 f   sf_runtime:sf_runtime.dll
 0001:000415bd       sf_free_ChartRunTimeInfo   00000001800425bd f   sf_runtime:sf_runtime.dll
 0001:000415c3       sf_reset_warnings_ChartRunTimeInfo 00000001800425c3 f   sf_runtime:sf_runtime.dll
 0001:000415c9       sfrtGetEmlrtCtx            00000001800425c9 f   sf_runtime:sf_runtime.dll
 0001:000415cf       sfrtGetCovrtInstance       00000001800425cf f   sf_runtime:sf_runtime.dll
 0001:000415d5       sf_get_chart_instance_ptr  00000001800425d5 f   sf_runtime:sf_runtime.dll
 0001:000415db       sfSetAnimationVectors      00000001800425db f   sf_runtime:sf_runtime.dll
 0001:000415e1       sim_mode_is_rtw_gen        00000001800425e1 f   sf_runtime:sf_runtime.dll
 0001:000415e7       sim_mode_is_external       00000001800425e7 f   sf_runtime:sf_runtime.dll
 0001:000415ed       sf_clear_rtw_identifier    00000001800425ed f   sf_runtime:sf_runtime.dll
 0001:000415f3       sf_get_time                00000001800425f3 f   sf_runtime:sf_runtime.dll
 0001:000415f9       setDataBrowseFcn           00000001800425f9 f   sf_runtime:sf_runtime.dll
 0001:000415ff       sf_set_work_widths         00000001800425ff f   sf_runtime:sf_runtime.dll
 0001:00041605       sf_error_out_about_continuous_sample_time_with_persistent_vars 0000000180042605 f   sf_runtime:sf_runtime.dll
 0001:0004160b       sfHasContStates            000000018004260b f   sf_runtime:sf_runtime.dll
 0001:00041611       supportsLegacyBehaviorForPersistentVarInContinuousTime 0000000180042611 f   sf_runtime:sf_runtime.dll
 0001:00041617       mdlProcessParamsCommon     0000000180042617 f   sf_runtime:sf_runtime.dll
 0001:0004161d       sfListenerInitializeUsingSimStruct 000000018004261d f   sf_runtime:sf_runtime.dll
 0001:00041623       sfListenerTerminate        0000000180042623 f   sf_runtime:sf_runtime.dll
 0001:00041629       sfListenerInitializeRuntimeVars 0000000180042629 f   sf_runtime:sf_runtime.dll
 0001:0004162f       sfListenerInitializeIsStmtByStmtModeVar 000000018004262f f   sf_runtime:sf_runtime.dll
 0001:00041635       sfListenerInitializeRuntimeFcnVarsJitOff 0000000180042635 f   sf_runtime:sf_runtime.dll
 0001:0004163b       sfListenerReportScriptName 000000018004263b f   sf_runtime:sf_runtime.dll
 0001:00041641       sfListenerReportStartingSection 0000000180042641 f   sf_runtime:sf_runtime.dll
 0001:00041647       sfListenerReportEndingSection 0000000180042647 f   sf_runtime:sf_runtime.dll
 0001:0004164d       sfListenerPushScopeForDynamicMatricesJitOff 000000018004264d f   sf_runtime:sf_runtime.dll
 0001:00041653       sfListenerPushScopeForChartJitOff 0000000180042653 f   sf_runtime:sf_runtime.dll
 0001:00041659       sfListenerReportLineNumber 0000000180042659 f   sf_runtime:sf_runtime.dll
 0001:0004165f       sfListenerReportChartEnableDisable 000000018004265f f   sf_runtime:sf_runtime.dll
 0001:00041665       sf_mex_call                0000000180042665 f   sf_runtime:sf_runtime.dll
 0001:0004166b       sf_mex_error_message       000000018004266b f   sf_runtime:sf_runtime.dll
 0001:00041671       sf_mex_getfield            0000000180042671 f   sf_runtime:sf_runtime.dll
 0001:00041677       sf_mex_setfieldbyindex     0000000180042677 f   sf_runtime:sf_runtime.dll
 0001:0004167d       sf_mex_check_struct        000000018004267d f   sf_runtime:sf_runtime.dll
 0001:00041683       sf_mex_createstruct        0000000180042683 f   sf_runtime:sf_runtime.dll
 0001:00041689       sf_mex_create              0000000180042689 f   sf_runtime:sf_runtime.dll
 0001:0004168f       sf_mex_createcellmatrix    000000018004268f f   sf_runtime:sf_runtime.dll
 0001:00041695       sf_mex_setcell             0000000180042695 f   sf_runtime:sf_runtime.dll
 0001:0004169b       sf_mex_getcell             000000018004269b f   sf_runtime:sf_runtime.dll
 0001:000416a1       sf_mex_assign              00000001800426a1 f   sf_runtime:sf_runtime.dll
 0001:000416a7       sf_mex_dup                 00000001800426a7 f   sf_runtime:sf_runtime.dll
 0001:000416ad       sf_mex_destroy             00000001800426ad f   sf_runtime:sf_runtime.dll
 0001:000416b3       sf_mex_import              00000001800426b3 f   sf_runtime:sf_runtime.dll
 0001:000416b9       sf_mex_import_vs           00000001800426b9 f   sf_runtime:sf_runtime.dll
 0001:000416bf       sf_mex_get_dimension       00000001800426bf f   sf_runtime:sf_runtime.dll
 0001:000416c5       ssGetInputPortSignal_wrapper 00000001800426c5 f   sf_runtime:sf_runtime.dll
 0001:000416cb       ssGetOutputPortSignal_wrapper 00000001800426cb f   sf_runtime:sf_runtime.dll
 0001:000416d1       sf_get_ChartInfoStruct_CodeGen 00000001800426d1 f   sf_runtime:sf_runtime.dll
 0001:000416d7       sf_get_hasSeparateUpdateOutputs 00000001800426d7 f   sf_runtime:sf_runtime.dll
 0001:000416dd       callMdlMethodAndReportError 00000001800426dd f   sf_runtime:sf_runtime.dll
 0001:000416e3       call_sf_machine_global_method_dispatcher 00000001800426e3 f   sf_runtime:sf_runtime.dll
 0001:000416e9       getRuntimeInstanceInfoAsVoid 00000001800426e9 f   sf_runtime:sf_runtime.dll
 0001:000416ef       sf_mex_error_direct_call   00000001800426ef f   sf_runtime:sf_runtime.dll
 0001:000416f5       sf_clear_error_manager_info 00000001800426f5 f   sf_runtime:sf_runtime.dll
 0001:000416fb       mxIsChar_800               00000001800426fb f   libmx:libmx.dll
 0001:00041701       mxGetScalar_800            0000000180042701 f   libmx:libmx.dll
 0001:00041707       mxGetPr_800                0000000180042707 f   libmx:libmx.dll
 0001:0004170d       mxDestroyArray_800         000000018004270d f   libmx:libmx.dll
 0001:00041713       mxCreateDoubleMatrix_800   0000000180042713 f   libmx:libmx.dll
 0001:00041719       mxGetString_800            0000000180042719 f   libmx:libmx.dll
 0001:0004171f       mxDuplicateArray_800       000000018004271f f   libmx:libmx.dll
 0001:00041725       mxIsEmpty_800              0000000180042725 f   libmx:libmx.dll
 0001:0004172b       mxSetCell_800              000000018004272b f   libmx:libmx.dll
 0001:00041731       mxSetField_800             0000000180042731 f   libmx:libmx.dll
 0001:00041737       mxCreateString_800         0000000180042737 f   libmx:libmx.dll
 0001:0004173d       mxCreateCellMatrix_800     000000018004273d f   libmx:libmx.dll
 0001:00041743       mxCreateStructMatrix_800   0000000180042743 f   libmx:libmx.dll
 0001:00041749       mxGetInf_800               0000000180042749 f   libmx:libmx.dll
 0001:0004174f       mxGetNaN_800               000000018004274f f   libmx:libmx.dll
 0001:00041755       mxCalloc_800               0000000180042755 f   libmx:libmx.dll
 0001:0004175b       mxGetM_800                 000000018004275b f   libmx:libmx.dll
 0001:00041761       mxGetClassID_800           0000000180042761 f   libmx:libmx.dll
 0001:00041767       mxIsNumeric_800            0000000180042767 f   libmx:libmx.dll
 0001:0004176d       mxIsComplex_800            000000018004276d f   libmx:libmx.dll
 0001:00041773       mxGetN_800                 0000000180042773 f   libmx:libmx.dll
 0001:00041779       mxCreateDoubleScalar_800   0000000180042779 f   libmx:libmx.dll
 0001:0004177f       mexMakeArrayPersistent_800 000000018004277f f   libmex:libmex.dll
 0001:00041785       mexErrMsgTxt_800           0000000180042785 f   libmex:libmex.dll
 0001:0004178b       mexWarnMsgTxt_800          000000018004278b f   libmex:libmex.dll
 0001:00041791       mexCallMATLAB_800          0000000180042791 f   libmex:libmex.dll
 0001:00041797       mexLock_800                0000000180042797 f   libmex:libmex.dll
 0001:0004179d       mexUnlock_800              000000018004279d f   libmex:libmex.dll
 0001:000417a3       mexIsLocked_800            00000001800427a3 f   libmex:libmex.dll
 0001:000417a9       utMalloc                   00000001800427a9 f   libut:libut.dll
 0001:000417af       utFree                     00000001800427af f   libut:libut.dll
 0001:000417b5       muDoubleScalarAbs          00000001800427b5 f   libmwmathutil:libmwmathutil.dll
 0001:000417bb       muDoubleScalarCeil         00000001800427bb f   libmwmathutil:libmwmathutil.dll
 0001:000417c1       muDoubleScalarFloor        00000001800427c1 f   libmwmathutil:libmwmathutil.dll
 0001:000417c7       muDoubleScalarRound        00000001800427c7 f   libmwmathutil:libmwmathutil.dll
 0001:000417cd       muDoubleScalarAtan2        00000001800427cd f   libmwmathutil:libmwmathutil.dll
 0001:000417d3       muDoubleScalarMax          00000001800427d3 f   libmwmathutil:libmwmathutil.dll
 0001:000417d9       muDoubleScalarMin          00000001800427d9 f   libmwmathutil:libmwmathutil.dll
 0001:000417df       muDoubleScalarSqrt         00000001800427df f   libmwmathutil:libmwmathutil.dll
 0001:000417e5       muDoubleScalarRem          00000001800427e5 f   libmwmathutil:libmwmathutil.dll
 0001:000417eb       muDoubleScalarIsNaN        00000001800427eb f   libmwmathutil:libmwmathutil.dll
 0001:000417f1       muDoubleScalarIsInf        00000001800427f1 f   libmwmathutil:libmwmathutil.dll
 0001:000417f7       emlrtLicenseCheckR2022a    00000001800427f7 f   libemlrt:libemlrt.dll
 0001:000417fd       emlrtDynamicBoundsCheckR2012b 00000001800427fd f   libemlrt:libemlrt.dll
 0001:00041803       emlrtSizeMulR2012b         0000000180042803 f   libemlrt:libemlrt.dll
 0001:00041809       emlrtIntegerCheckR2012b    0000000180042809 f   libemlrt:libemlrt.dll
 0001:0004180f       emlrtNonNegativeCheckR2012b 000000018004280f f   libemlrt:libemlrt.dll
 0001:00041815       emlrtMallocMex             0000000180042815 f   libemlrt:libemlrt.dll
 0001:0004181b       emlrtFreeMex               000000018004281b f   libemlrt:libemlrt.dll
 0001:00041821       emlrtHeapReferenceStackEnterFcnR2012b 0000000180042821 f   libemlrt:libemlrt.dll
 0001:00041827       emlrtHeapReferenceStackLeaveFcnR2012b 0000000180042827 f   libemlrt:libemlrt.dll
 0001:0004182d       emlrtPushHeapReferenceStackR2021a 000000018004282d f   libemlrt:libemlrt.dll
 0001:00041833       emlrtNameCaptureMxArrayR2016a 0000000180042833 f   libemlrt:libemlrt.dll
 0001:00041839       emlrtHeapAllocationErrorR2012b 0000000180042839 f   libemlrt:libemlrt.dll
 0001:0004183f       emlrtDimSizeImpxCheckR2021b 000000018004283f f   libemlrt:libemlrt.dll
 0001:00041845       emlrtSubAssignSizeCheckR2012b 0000000180042845 f   libemlrt:libemlrt.dll
 0001:0004184b       emlrtSubAssignSizeCheck1dR2017a 000000018004284b f   libemlrt:libemlrt.dll
 0001:00041851       covrtCreateStateflowInstanceData 0000000180042851 f   libcovrt:libcovrt.dll
 0001:00041857       covrtDeleteStateflowInstanceData 0000000180042857 f   libcovrt:libcovrt.dll
 0001:0004185d       covrtTransInitFcn          000000018004285d f   libcovrt:libcovrt.dll
 0001:00041863       covrtStateInitFcn          0000000180042863 f   libcovrt:libcovrt.dll
 0001:00041869       covrtChartInitFcn          0000000180042869 f   libcovrt:libcovrt.dll
 0001:0004186f       covrtRelationalopUpdateFcn 000000018004286f f   libcovrt:libcovrt.dll
 0001:00041875       covrtSigUpdateFcn          0000000180042875 f   libcovrt:libcovrt.dll
 0001:0004187b       covrtEmlInitFcn            000000018004287b f   libcovrt:libcovrt.dll
 0001:00041881       covrtEmlFcnInitFcn         0000000180042881 f   libcovrt:libcovrt.dll
 0001:00041887       covrtEmlIfInitFcn          0000000180042887 f   libcovrt:libcovrt.dll
 0001:0004188d       covrtEmlMCDCInitFcn        000000018004288d f   libcovrt:libcovrt.dll
 0001:00041893       covrtEmlRelationalInitFcn  0000000180042893 f   libcovrt:libcovrt.dll
 0001:00041899       covrtEmlFcnEval            0000000180042899 f   libcovrt:libcovrt.dll
 0001:0004189f       covrtEmlIfEval             000000018004289f f   libcovrt:libcovrt.dll
 0001:000418a5       covrtEmlCondEval           00000001800428a5 f   libcovrt:libcovrt.dll
 0001:000418ab       covrtEmlMcdcEval           00000001800428ab f   libcovrt:libcovrt.dll
 0001:000418b4       __raise_securityfailure    00000001800428b4 f   MSVCRT:gs_report.obj
 0001:000418e8       __report_gsfailure         00000001800428e8 f   MSVCRT:gs_report.obj
 0001:000419bc       __report_rangecheckfailure 00000001800429bc f   MSVCRT:gs_report.obj
 0001:000419d0       __report_securityfailure   00000001800429d0 f   MSVCRT:gs_report.obj
 0001:00041a6c       __report_securityfailureEx 0000000180042a6c f   MSVCRT:gs_report.obj
 0001:00041c60       __GSHandlerCheck           0000000180042c60 f   MSVCRT:gshandler.obj
 0001:00041c80       __GSHandlerCheckCommon     0000000180042c80 f   MSVCRT:gshandler.obj
 0001:00041cf0       __security_check_cookie    0000000180042cf0 f   MSVCRT:amdsecgs.obj
 0001:00041d20       __chkstk                   0000000180042d20 f   MSVCRT:chkstk.obj
 0001:00041d20       _alloca_probe              0000000180042d20 f   MSVCRT:chkstk.obj
 0001:00041d70       ??2@YAPEAX_K@Z             0000000180042d70 f   MSVCRT:new_scalar.obj
 0001:00041dac       ??3@YAXPEAX_K@Z            0000000180042dac f   MSVCRT:delete_scalar_size.obj
 0001:00041db4       ??1type_info@@UEAA@XZ      0000000180042db4 f   MSVCRT:std_type_info_static.obj
 0001:00041dc0       ??_Etype_info@@UEAAPEAXI@Z 0000000180042dc0 f i MSVCRT:std_type_info_static.obj
 0001:00041dc0       ??_Gtype_info@@UEAAPEAXI@Z 0000000180042dc0 f i MSVCRT:std_type_info_static.obj
 0001:00042124       _CRT_INIT                  0000000180043124 f   MSVCRT:dll_dllmain.obj
 0001:0004212c       _DllMainCRTStartup         000000018004312c f   MSVCRT:dll_dllmain.obj
 0001:0004216c       ??0bad_alloc@std@@QEAA@XZ  000000018004316c f i MSVCRT:throw_bad_alloc.obj
 0001:0004218c       ?__scrt_throw_std_bad_alloc@@YAXXZ 000000018004318c f   MSVCRT:throw_bad_alloc.obj
 0001:000421ac       ?__scrt_throw_std_bad_array_new_length@@YAXXZ 00000001800431ac f   MSVCRT:throw_bad_alloc.obj
 0001:000421cc       ??3@YAXPEAX@Z              00000001800431cc f   MSVCRT:delete_scalar.obj
 0001:00042240       __security_init_cookie     0000000180043240 f   MSVCRT:gs_support.obj
 0001:000422ec       DllMain                    00000001800432ec f   MSVCRT:dll_dllmain_stub.obj
 0001:00042310       ?__scrt_initialize_type_info@@YAXXZ 0000000180043310 f   MSVCRT:tncleanup.obj
 0001:00042320       ?__scrt_uninitialize_type_info@@YAXXZ 0000000180043320 f   MSVCRT:tncleanup.obj
 0001:0004232c       __local_stdio_scanf_options 000000018004332c f i MSVCRT:default_local_stdio_options.obj
 0001:00042334       __scrt_initialize_default_local_stdio_options 0000000180043334 f   MSVCRT:default_local_stdio_options.obj
 0001:00042350       ?configure_argv@__scrt_narrow_argv_policy@@SAHXZ 0000000180043350 f i MSVCRT:utility.obj
 0001:000423b0       ?initialize_environment@__scrt_narrow_environment_policy@@SAHXZ 00000001800433b0 f i MSVCRT:utility.obj
 0001:000423e8       NtCurrentTeb               00000001800433e8 f i MSVCRT:utility.obj
 0001:000423f4       __scrt_acquire_startup_lock 00000001800433f4 f   MSVCRT:utility.obj
 0001:00042430       __scrt_dllmain_after_initialize_c 0000000180043430 f   MSVCRT:utility.obj
 0001:00042464       __scrt_dllmain_before_initialize_c 0000000180043464 f   MSVCRT:utility.obj
 0001:0004247c       __scrt_dllmain_crt_thread_attach 000000018004347c f   MSVCRT:utility.obj
 0001:000424a4       __scrt_dllmain_crt_thread_detach 00000001800434a4 f   MSVCRT:utility.obj
 0001:000424bc       __scrt_dllmain_exception_filter 00000001800434bc f   MSVCRT:utility.obj
 0001:0004251c       __scrt_dllmain_uninitialize_c 000000018004351c f   MSVCRT:utility.obj
 0001:0004254c       __scrt_dllmain_uninitialize_critical 000000018004354c f   MSVCRT:utility.obj
 0001:00042560       __scrt_initialize_crt      0000000180043560 f   MSVCRT:utility.obj
 0001:0004259c       __scrt_initialize_onexit_tables 000000018004359c f   MSVCRT:utility.obj
 0001:00042628       __scrt_is_nonwritable_in_current_image 0000000180043628 f   MSVCRT:utility.obj
 0001:000426c0       __scrt_release_startup_lock 00000001800436c0 f   MSVCRT:utility.obj
 0001:000426e4       __scrt_uninitialize_crt    00000001800436e4 f   MSVCRT:utility.obj
 0001:00042710       _onexit                    0000000180043710 f   MSVCRT:utility.obj
 0001:0004274c       at_quick_exit              000000018004374c f   MSVCRT:utility.obj
 0001:0004276c       atexit                     000000018004376c f   MSVCRT:utility.obj
 0001:00042784       __scrt_get_dyn_tls_init_callback 0000000180043784 f   MSVCRT:dyn_tls_init.obj
 0001:0004278c       __crt_debugger_hook        000000018004378c f   MSVCRT:utility_desktop.obj
 0001:00042794       __scrt_fastfail            0000000180043794 f   MSVCRT:utility_desktop.obj
 0001:000428dc       __scrt_get_show_window_mode 00000001800438dc f   MSVCRT:utility_desktop.obj
 0001:00042918       __scrt_initialize_mta      0000000180043918 f   MSVCRT:utility_desktop.obj
 0001:00042920       __scrt_initialize_winrt    0000000180043920 f   MSVCRT:utility_desktop.obj
 0001:00042924       __scrt_is_managed_app      0000000180043924 f   MSVCRT:utility_desktop.obj
 0001:00042978       __scrt_set_unhandled_exception_filter 0000000180043978 f   MSVCRT:utility_desktop.obj
 0001:00042988       __scrt_exe_initialize_mta  0000000180043988 f   MSVCRT:utility_desktop.obj
 0001:00042988       __scrt_stub_for_initialize_mta 0000000180043988 f   MSVCRT:utility_desktop.obj
 0001:0004298c       __scrt_unhandled_exception_filter 000000018004398c f   MSVCRT:utility_desktop.obj
 0001:000429e8       _RTC_Initialize            00000001800439e8 f   MSVCRT:initsect.obj
 0001:00042a24       _RTC_Terminate             0000000180043a24 f   MSVCRT:initsect.obj
 0001:00042a60       _guard_check_icall_nop     0000000180043a60 f i MSVCRT:guard_support.obj
 0001:00042a64       ReadNoFence64              0000000180043a64 f i MSVCRT:guard_support.obj
 0001:00042a68       ReadPointerNoFence         0000000180043a68 f i MSVCRT:guard_support.obj
 0001:00042a6c       __castguard_check_failure_debugbreak 0000000180043a6c f i MSVCRT:guard_support.obj
 0001:00042a88       __castguard_check_failure_fastfail 0000000180043a88 f i MSVCRT:guard_support.obj
 0001:00042aac       __castguard_check_failure_nop 0000000180043aac f i MSVCRT:guard_support.obj
 0001:00042ab0       __castguard_check_failure_os_handled 0000000180043ab0 f i MSVCRT:guard_support.obj
 0001:00042afc       __castguard_check_failure_user_handled 0000000180043afc f i MSVCRT:guard_support.obj
 0001:00042b70       __castguard_set_user_handler 0000000180043b70 f i MSVCRT:guard_support.obj
 0001:00042b7c       __castguard_slow_path_check_debugbreak 0000000180043b7c f i MSVCRT:guard_support.obj
 0001:00042bb0       __castguard_slow_path_check_fastfail 0000000180043bb0 f i MSVCRT:guard_support.obj
 0001:00042bec       __castguard_slow_path_check_nop 0000000180043bec f i MSVCRT:guard_support.obj
 0001:00042bf0       __castguard_slow_path_check_os_handled 0000000180043bf0 f i MSVCRT:guard_support.obj
 0001:00042c3c       __castguard_slow_path_check_user_handled 0000000180043c3c f i MSVCRT:guard_support.obj
 0001:00042ca8       _guard_icall_checks_enforced 0000000180043ca8 f i MSVCRT:guard_support.obj
 0001:00042cc0       _guard_rf_checks_enforced  0000000180043cc0 f i MSVCRT:guard_support.obj
 0001:00042cc4       __isa_available_init       0000000180043cc4 f   MSVCRT:cpu_disp.obj
 0001:00042e70       _get_startup_argv_mode     0000000180043e70 f   MSVCRT:argv_mode.obj
 0001:00042e78       __scrt_is_ucrt_dll_in_use  0000000180043e78 f   MSVCRT:ucrt_detection.obj
 0001:00042e90       ?_Xlength_error@std@@YAXPEBD@Z 0000000180043e90 f   msvcprt:MSVCP140.dll
 0001:00042e96       RtlCaptureContext          0000000180043e96 f   kernel32:KERNEL32.dll
 0001:00042e9c       RtlLookupFunctionEntry     0000000180043e9c f   kernel32:KERNEL32.dll
 0001:00042ea2       RtlVirtualUnwind           0000000180043ea2 f   kernel32:KERNEL32.dll
 0001:00042ea8       UnhandledExceptionFilter   0000000180043ea8 f   kernel32:KERNEL32.dll
 0001:00042eae       SetUnhandledExceptionFilter 0000000180043eae f   kernel32:KERNEL32.dll
 0001:00042eb4       GetCurrentProcess          0000000180043eb4 f   kernel32:KERNEL32.dll
 0001:00042eba       TerminateProcess           0000000180043eba f   kernel32:KERNEL32.dll
 0001:00042ec0       IsProcessorFeaturePresent  0000000180043ec0 f   kernel32:KERNEL32.dll
 0001:00042ec6       QueryPerformanceCounter    0000000180043ec6 f   kernel32:KERNEL32.dll
 0001:00042ecc       GetCurrentProcessId        0000000180043ecc f   kernel32:KERNEL32.dll
 0001:00042ed2       GetCurrentThreadId         0000000180043ed2 f   kernel32:KERNEL32.dll
 0001:00042ed8       GetSystemTimeAsFileTime    0000000180043ed8 f   kernel32:KERNEL32.dll
 0001:00042ede       DisableThreadLibraryCalls  0000000180043ede f   kernel32:KERNEL32.dll
 0001:00042ee4       InitializeSListHead        0000000180043ee4 f   kernel32:KERNEL32.dll
 0001:00042eea       IsDebuggerPresent          0000000180043eea f   kernel32:KERNEL32.dll
 0001:00042ef0       GetStartupInfoW            0000000180043ef0 f   kernel32:KERNEL32.dll
 0001:00042ef6       GetModuleHandleW           0000000180043ef6 f   kernel32:KERNEL32.dll
 0001:00042efc       memcpy                     0000000180043efc f   vcruntime:VCRUNTIME140.dll
 0001:00042f02       memset                     0000000180043f02 f   vcruntime:VCRUNTIME140.dll
 0001:00042f08       memcmp                     0000000180043f08 f   vcruntime:VCRUNTIME140.dll
 0001:00042f0e       memmove                    0000000180043f0e f   vcruntime:VCRUNTIME140.dll
 0001:00042f14       __std_exception_copy       0000000180043f14 f   vcruntime:VCRUNTIME140.dll
 0001:00042f1a       __std_exception_destroy    0000000180043f1a f   vcruntime:VCRUNTIME140.dll
 0001:00042f20       _CxxThrowException         0000000180043f20 f   vcruntime:VCRUNTIME140.dll
 0001:00042f26       __CxxFrameHandler4         0000000180043f26 f   vcruntime:VCRUNTIME140_1.dll
 0001:00042f2c       __C_specific_handler       0000000180043f2c f   vcruntime:VCRUNTIME140.dll
 0001:00042f32       __std_type_info_destroy_list 0000000180043f32 f   vcruntime:VCRUNTIME140.dll
 0001:00042f38       __current_exception        0000000180043f38 f   vcruntime:VCRUNTIME140.dll
 0001:00042f3e       __current_exception_context 0000000180043f3e f   vcruntime:VCRUNTIME140.dll
 0001:00042f44       strcmp                     0000000180043f44 f   ucrt:api-ms-win-crt-string-l1-1-0.dll
 0001:00042f4a       strcat                     0000000180043f4a f   ucrt:api-ms-win-crt-string-l1-1-0.dll
 0001:00042f50       frexp                      0000000180043f50 f   ucrt:api-ms-win-crt-math-l1-1-0.dll
 0001:00042f56       ldexp                      0000000180043f56 f   ucrt:api-ms-win-crt-math-l1-1-0.dll
 0001:00042f5c       __stdio_common_vsprintf    0000000180043f5c f   ucrt:api-ms-win-crt-stdio-l1-1-0.dll
 0001:00042f62       free                       0000000180043f62 f   ucrt:api-ms-win-crt-heap-l1-1-0.dll
 0001:00042f68       malloc                     0000000180043f68 f   ucrt:api-ms-win-crt-heap-l1-1-0.dll
 0001:00042f6e       strlen                     0000000180043f6e f   ucrt:api-ms-win-crt-string-l1-1-0.dll
 0001:00042f74       _invalid_parameter_noinfo_noreturn 0000000180043f74 f   ucrt:api-ms-win-crt-runtime-l1-1-0.dll
 0001:00042f7a       _wassert                   0000000180043f7a f   ucrt:api-ms-win-crt-runtime-l1-1-0.dll
 0001:00042f80       ceilf                      0000000180043f80 f   ucrt:api-ms-win-crt-math-l1-1-0.dll
 0001:00042f86       _callnewh                  0000000180043f86 f   ucrt:api-ms-win-crt-heap-l1-1-0.dll
 0001:00042f8c       _initterm                  0000000180043f8c f   ucrt:api-ms-win-crt-runtime-l1-1-0.dll
 0001:00042f92       _initterm_e                0000000180043f92 f   ucrt:api-ms-win-crt-runtime-l1-1-0.dll
 0001:00042f98       _seh_filter_dll            0000000180043f98 f   ucrt:api-ms-win-crt-runtime-l1-1-0.dll
 0001:00042f9e       _configure_narrow_argv     0000000180043f9e f   ucrt:api-ms-win-crt-runtime-l1-1-0.dll
 0001:00042fa4       _initialize_narrow_environment 0000000180043fa4 f   ucrt:api-ms-win-crt-runtime-l1-1-0.dll
 0001:00042faa       _initialize_onexit_table   0000000180043faa f   ucrt:api-ms-win-crt-runtime-l1-1-0.dll
 0001:00042fb0       _register_onexit_function  0000000180043fb0 f   ucrt:api-ms-win-crt-runtime-l1-1-0.dll
 0001:00042fb6       _execute_onexit_table      0000000180043fb6 f   ucrt:api-ms-win-crt-runtime-l1-1-0.dll
 0001:00042fbc       _crt_atexit                0000000180043fbc f   ucrt:api-ms-win-crt-runtime-l1-1-0.dll
 0001:00042fc2       _crt_at_quick_exit         0000000180043fc2 f   ucrt:api-ms-win-crt-runtime-l1-1-0.dll
 0001:00042fc8       _cexit                     0000000180043fc8 f   ucrt:api-ms-win-crt-runtime-l1-1-0.dll
 0001:00042fce       terminate                  0000000180043fce f   ucrt:api-ms-win-crt-runtime-l1-1-0.dll
 0001:00042fd4       __acrt_initialize          0000000180043fd4 f   MSVCRT:ucrt_stubs.obj
 0001:00042fd4       __scrt_stub_for_acrt_initialize 0000000180043fd4 f   MSVCRT:ucrt_stubs.obj
 0001:00042fd4       __vcrt_initialize          0000000180043fd4 f   MSVCRT:ucrt_stubs.obj
 0001:00042fd8       __acrt_thread_attach       0000000180043fd8 f   MSVCRT:ucrt_stubs.obj
 0001:00042fd8       __scrt_stub_for_acrt_thread_attach 0000000180043fd8 f   MSVCRT:ucrt_stubs.obj
 0001:00042fd8       __vcrt_thread_attach       0000000180043fd8 f   MSVCRT:ucrt_stubs.obj
 0001:00042fdc       __acrt_thread_detach       0000000180043fdc f   MSVCRT:ucrt_stubs.obj
 0001:00042fdc       __scrt_stub_for_acrt_thread_detach 0000000180043fdc f   MSVCRT:ucrt_stubs.obj
 0001:00042fdc       __vcrt_thread_detach       0000000180043fdc f   MSVCRT:ucrt_stubs.obj
 0001:00042fe0       __acrt_uninitialize        0000000180043fe0 f   MSVCRT:ucrt_stubs.obj
 0001:00042fe0       __scrt_stub_for_acrt_uninitialize 0000000180043fe0 f   MSVCRT:ucrt_stubs.obj
 0001:00042fe0       __vcrt_uninitialize        0000000180043fe0 f   MSVCRT:ucrt_stubs.obj
 0001:00042fe4       __acrt_uninitialize_critical 0000000180043fe4 f   MSVCRT:ucrt_stubs.obj
 0001:00042fe4       __scrt_stub_for_acrt_uninitialize_critical 0000000180043fe4 f   MSVCRT:ucrt_stubs.obj
 0001:00042fe4       __vcrt_uninitialize_critical 0000000180043fe4 f   MSVCRT:ucrt_stubs.obj
 0001:00042fe8       __scrt_stub_for_is_c_termination_complete 0000000180043fe8 f   MSVCRT:ucrt_stubs.obj
 0001:00042fe8       _is_c_termination_complete 0000000180043fe8 f   MSVCRT:ucrt_stubs.obj
 0001:00043000       _guard_dispatch_icall_nop  0000000180044000 f   MSVCRT:guard_dispatch.obj
 0001:00043020       _guard_xfg_dispatch_icall_nop 0000000180044020 f   MSVCRT:guard_xfg_dispatch.obj
 0002:00000000       __imp_UnhandledExceptionFilter 0000000180045000     kernel32:KERNEL32.dll
 0002:00000008       __imp_GetCurrentProcess    0000000180045008     kernel32:KERNEL32.dll
 0002:00000010       __imp_TerminateProcess     0000000180045010     kernel32:KERNEL32.dll
 0002:00000018       __imp_IsProcessorFeaturePresent 0000000180045018     kernel32:KERNEL32.dll
 0002:00000020       __imp_QueryPerformanceCounter 0000000180045020     kernel32:KERNEL32.dll
 0002:00000028       __imp_GetCurrentProcessId  0000000180045028     kernel32:KERNEL32.dll
 0002:00000030       __imp_GetCurrentThreadId   0000000180045030     kernel32:KERNEL32.dll
 0002:00000038       __imp_GetSystemTimeAsFileTime 0000000180045038     kernel32:KERNEL32.dll
 0002:00000040       __imp_DisableThreadLibraryCalls 0000000180045040     kernel32:KERNEL32.dll
 0002:00000048       __imp_InitializeSListHead  0000000180045048     kernel32:KERNEL32.dll
 0002:00000050       __imp_IsDebuggerPresent    0000000180045050     kernel32:KERNEL32.dll
 0002:00000058       __imp_GetStartupInfoW      0000000180045058     kernel32:KERNEL32.dll
 0002:00000060       __imp_GetModuleHandleW     0000000180045060     kernel32:KERNEL32.dll
 0002:00000068       __imp_SetUnhandledExceptionFilter 0000000180045068     kernel32:KERNEL32.dll
 0002:00000070       __imp_RtlVirtualUnwind     0000000180045070     kernel32:KERNEL32.dll
 0002:00000078       __imp_RtlLookupFunctionEntry 0000000180045078     kernel32:KERNEL32.dll
 0002:00000080       __imp_RtlCaptureContext    0000000180045080     kernel32:KERNEL32.dll
 0002:00000088       \177KERNEL32_NULL_THUNK_DATA 0000000180045088     kernel32:KERNEL32.dll
 0002:00000090       __imp_?_Xlength_error@std@@YAXPEBD@Z 0000000180045090     msvcprt:MSVCP140.dll
 0002:00000098       \177MSVCP140_NULL_THUNK_DATA 0000000180045098     msvcprt:MSVCP140.dll
 0002:000000a0       __imp___std_exception_destroy 00000001800450a0     vcruntime:VCRUNTIME140.dll
 0002:000000a8       __imp_memcpy               00000001800450a8     vcruntime:VCRUNTIME140.dll
 0002:000000b0       __imp___C_specific_handler 00000001800450b0     vcruntime:VCRUNTIME140.dll
 0002:000000b8       __imp___std_type_info_destroy_list 00000001800450b8     vcruntime:VCRUNTIME140.dll
 0002:000000c0       __imp_memset               00000001800450c0     vcruntime:VCRUNTIME140.dll
 0002:000000c8       __imp_memcmp               00000001800450c8     vcruntime:VCRUNTIME140.dll
 0002:000000d0       __imp_memmove              00000001800450d0     vcruntime:VCRUNTIME140.dll
 0002:000000d8       __imp___std_exception_copy 00000001800450d8     vcruntime:VCRUNTIME140.dll
 0002:000000e0       __imp___current_exception  00000001800450e0     vcruntime:VCRUNTIME140.dll
 0002:000000e8       __imp___current_exception_context 00000001800450e8     vcruntime:VCRUNTIME140.dll
 0002:000000f0       __imp__CxxThrowException   00000001800450f0     vcruntime:VCRUNTIME140.dll
 0002:000000f8       \177VCRUNTIME140_NULL_THUNK_DATA 00000001800450f8     vcruntime:VCRUNTIME140.dll
 0002:00000100       __imp___CxxFrameHandler4   0000000180045100     vcruntime:VCRUNTIME140_1.dll
 0002:00000108       \177VCRUNTIME140_1_NULL_THUNK_DATA 0000000180045108     vcruntime:VCRUNTIME140_1.dll
 0002:00000110       __imp_malloc               0000000180045110     ucrt:api-ms-win-crt-heap-l1-1-0.dll
 0002:00000118       __imp_free                 0000000180045118     ucrt:api-ms-win-crt-heap-l1-1-0.dll
 0002:00000120       __imp__callnewh            0000000180045120     ucrt:api-ms-win-crt-heap-l1-1-0.dll
 0002:00000128       \177api-ms-win-crt-heap-l1-1-0_NULL_THUNK_DATA 0000000180045128     ucrt:api-ms-win-crt-heap-l1-1-0.dll
 0002:00000130       __imp_ceilf                0000000180045130     ucrt:api-ms-win-crt-math-l1-1-0.dll
 0002:00000138       __imp_frexp                0000000180045138     ucrt:api-ms-win-crt-math-l1-1-0.dll
 0002:00000140       __imp_ldexp                0000000180045140     ucrt:api-ms-win-crt-math-l1-1-0.dll
 0002:00000148       \177api-ms-win-crt-math-l1-1-0_NULL_THUNK_DATA 0000000180045148     ucrt:api-ms-win-crt-math-l1-1-0.dll
 0002:00000150       __imp__initterm            0000000180045150     ucrt:api-ms-win-crt-runtime-l1-1-0.dll
 0002:00000158       __imp__invalid_parameter_noinfo_noreturn 0000000180045158     ucrt:api-ms-win-crt-runtime-l1-1-0.dll
 0002:00000160       __imp__initialize_narrow_environment 0000000180045160     ucrt:api-ms-win-crt-runtime-l1-1-0.dll
 0002:00000168       __imp__initialize_onexit_table 0000000180045168     ucrt:api-ms-win-crt-runtime-l1-1-0.dll
 0002:00000170       __imp__seh_filter_dll      0000000180045170     ucrt:api-ms-win-crt-runtime-l1-1-0.dll
 0002:00000178       __imp__execute_onexit_table 0000000180045178     ucrt:api-ms-win-crt-runtime-l1-1-0.dll
 0002:00000180       __imp__crt_atexit          0000000180045180     ucrt:api-ms-win-crt-runtime-l1-1-0.dll
 0002:00000188       __imp__crt_at_quick_exit   0000000180045188     ucrt:api-ms-win-crt-runtime-l1-1-0.dll
 0002:00000190       __imp__cexit               0000000180045190     ucrt:api-ms-win-crt-runtime-l1-1-0.dll
 0002:00000198       __imp_terminate            0000000180045198     ucrt:api-ms-win-crt-runtime-l1-1-0.dll
 0002:000001a0       __imp__wassert             00000001800451a0     ucrt:api-ms-win-crt-runtime-l1-1-0.dll
 0002:000001a8       __imp__initterm_e          00000001800451a8     ucrt:api-ms-win-crt-runtime-l1-1-0.dll
 0002:000001b0       __imp__register_onexit_function 00000001800451b0     ucrt:api-ms-win-crt-runtime-l1-1-0.dll
 0002:000001b8       __imp__configure_narrow_argv 00000001800451b8     ucrt:api-ms-win-crt-runtime-l1-1-0.dll
 0002:000001c0       \177api-ms-win-crt-runtime-l1-1-0_NULL_THUNK_DATA 00000001800451c0     ucrt:api-ms-win-crt-runtime-l1-1-0.dll
 0002:000001c8       __imp___stdio_common_vsprintf 00000001800451c8     ucrt:api-ms-win-crt-stdio-l1-1-0.dll
 0002:000001d0       \177api-ms-win-crt-stdio-l1-1-0_NULL_THUNK_DATA 00000001800451d0     ucrt:api-ms-win-crt-stdio-l1-1-0.dll
 0002:000001d8       __imp_strlen               00000001800451d8     ucrt:api-ms-win-crt-string-l1-1-0.dll
 0002:000001e0       __imp_strcat               00000001800451e0     ucrt:api-ms-win-crt-string-l1-1-0.dll
 0002:000001e8       __imp_strcmp               00000001800451e8     ucrt:api-ms-win-crt-string-l1-1-0.dll
 0002:000001f0       \177api-ms-win-crt-string-l1-1-0_NULL_THUNK_DATA 00000001800451f0     ucrt:api-ms-win-crt-string-l1-1-0.dll
 0002:000001f8       __imp_covrtDeleteStateflowInstanceData 00000001800451f8     libcovrt:libcovrt.dll
 0002:00000200       __imp_covrtEmlMcdcEval     0000000180045200     libcovrt:libcovrt.dll
 0002:00000208       __imp_covrtEmlCondEval     0000000180045208     libcovrt:libcovrt.dll
 0002:00000210       __imp_covrtEmlIfEval       0000000180045210     libcovrt:libcovrt.dll
 0002:00000218       __imp_covrtEmlFcnEval      0000000180045218     libcovrt:libcovrt.dll
 0002:00000220       __imp_covrtEmlRelationalInitFcn 0000000180045220     libcovrt:libcovrt.dll
 0002:00000228       __imp_covrtEmlMCDCInitFcn  0000000180045228     libcovrt:libcovrt.dll
 0002:00000230       __imp_covrtEmlIfInitFcn    0000000180045230     libcovrt:libcovrt.dll
 0002:00000238       __imp_covrtEmlFcnInitFcn   0000000180045238     libcovrt:libcovrt.dll
 0002:00000240       __imp_covrtEmlInitFcn      0000000180045240     libcovrt:libcovrt.dll
 0002:00000248       __imp_covrtSigUpdateFcn    0000000180045248     libcovrt:libcovrt.dll
 0002:00000250       __imp_covrtRelationalopUpdateFcn 0000000180045250     libcovrt:libcovrt.dll
 0002:00000258       __imp_covrtChartInitFcn    0000000180045258     libcovrt:libcovrt.dll
 0002:00000260       __imp_covrtStateInitFcn    0000000180045260     libcovrt:libcovrt.dll
 0002:00000268       __imp_covrtTransInitFcn    0000000180045268     libcovrt:libcovrt.dll
 0002:00000270       __imp_covrtCreateStateflowInstanceData 0000000180045270     libcovrt:libcovrt.dll
 0002:00000278       \177libcovrt_NULL_THUNK_DATA 0000000180045278     libcovrt:libcovrt.dll
 0002:00000280       __imp_emlrtNameCaptureMxArrayR2016a 0000000180045280     libemlrt:libemlrt.dll
 0002:00000288       __imp_emlrtPushHeapReferenceStackR2021a 0000000180045288     libemlrt:libemlrt.dll
 0002:00000290       __imp_emlrtHeapReferenceStackLeaveFcnR2012b 0000000180045290     libemlrt:libemlrt.dll
 0002:00000298       __imp_emlrtHeapReferenceStackEnterFcnR2012b 0000000180045298     libemlrt:libemlrt.dll
 0002:000002a0       __imp_emlrtFreeMex         00000001800452a0     libemlrt:libemlrt.dll
 0002:000002a8       __imp_emlrtMallocMex       00000001800452a8     libemlrt:libemlrt.dll
 0002:000002b0       __imp_emlrtHeapAllocationErrorR2012b 00000001800452b0     libemlrt:libemlrt.dll
 0002:000002b8       __imp_emlrtNonNegativeCheckR2012b 00000001800452b8     libemlrt:libemlrt.dll
 0002:000002c0       __imp_emlrtIntegerCheckR2012b 00000001800452c0     libemlrt:libemlrt.dll
 0002:000002c8       __imp_emlrtSubAssignSizeCheck1dR2017a 00000001800452c8     libemlrt:libemlrt.dll
 0002:000002d0       __imp_emlrtSubAssignSizeCheckR2012b 00000001800452d0     libemlrt:libemlrt.dll
 0002:000002d8       __imp_emlrtSizeMulR2012b   00000001800452d8     libemlrt:libemlrt.dll
 0002:000002e0       __imp_emlrtDynamicBoundsCheckR2012b 00000001800452e0     libemlrt:libemlrt.dll
 0002:000002e8       __imp_emlrtLicenseCheckR2022a 00000001800452e8     libemlrt:libemlrt.dll
 0002:000002f0       __imp_emlrtDimSizeImpxCheckR2021b 00000001800452f0     libemlrt:libemlrt.dll
 0002:000002f8       \177libemlrt_NULL_THUNK_DATA 00000001800452f8     libemlrt:libemlrt.dll
 0002:00000300       __imp_mexWarnMsgTxt_800    0000000180045300     libmex:libmex.dll
 0002:00000308       __imp_mexCallMATLAB_800    0000000180045308     libmex:libmex.dll
 0002:00000310       __imp_mexLock_800          0000000180045310     libmex:libmex.dll
 0002:00000318       __imp_mexUnlock_800        0000000180045318     libmex:libmex.dll
 0002:00000320       __imp_mexErrMsgTxt_800     0000000180045320     libmex:libmex.dll
 0002:00000328       __imp_mexIsLocked_800      0000000180045328     libmex:libmex.dll
 0002:00000330       __imp_mexMakeArrayPersistent_800 0000000180045330     libmex:libmex.dll
 0002:00000338       \177libmex_NULL_THUNK_DATA 0000000180045338     libmex:libmex.dll
 0002:00000340       __imp_muDoubleScalarAbs    0000000180045340     libmwmathutil:libmwmathutil.dll
 0002:00000348       __imp_muDoubleScalarIsInf  0000000180045348     libmwmathutil:libmwmathutil.dll
 0002:00000350       __imp_muDoubleScalarRound  0000000180045350     libmwmathutil:libmwmathutil.dll
 0002:00000358       __imp_muDoubleScalarFloor  0000000180045358     libmwmathutil:libmwmathutil.dll
 0002:00000360       __imp_muDoubleScalarIsNaN  0000000180045360     libmwmathutil:libmwmathutil.dll
 0002:00000368       __imp_muDoubleScalarRem    0000000180045368     libmwmathutil:libmwmathutil.dll
 0002:00000370       __imp_muDoubleScalarSqrt   0000000180045370     libmwmathutil:libmwmathutil.dll
 0002:00000378       __imp_muDoubleScalarMin    0000000180045378     libmwmathutil:libmwmathutil.dll
 0002:00000380       __imp_muDoubleScalarMax    0000000180045380     libmwmathutil:libmwmathutil.dll
 0002:00000388       __imp_muDoubleScalarCeil   0000000180045388     libmwmathutil:libmwmathutil.dll
 0002:00000390       __imp_muDoubleScalarAtan2  0000000180045390     libmwmathutil:libmwmathutil.dll
 0002:00000398       \177libmwmathutil_NULL_THUNK_DATA 0000000180045398     libmwmathutil:libmwmathutil.dll
 0002:000003a0       __imp_mxGetScalar_800      00000001800453a0     libmx:libmx.dll
 0002:000003a8       __imp_mxGetPr_800          00000001800453a8     libmx:libmx.dll
 0002:000003b0       __imp_mxDestroyArray_800   00000001800453b0     libmx:libmx.dll
 0002:000003b8       __imp_mxCreateDoubleMatrix_800 00000001800453b8     libmx:libmx.dll
 0002:000003c0       __imp_mxCreateDoubleScalar_800 00000001800453c0     libmx:libmx.dll
 0002:000003c8       __imp_mxGetN_800           00000001800453c8     libmx:libmx.dll
 0002:000003d0       __imp_mxIsComplex_800      00000001800453d0     libmx:libmx.dll
 0002:000003d8       __imp_mxIsNumeric_800      00000001800453d8     libmx:libmx.dll
 0002:000003e0       __imp_mxGetClassID_800     00000001800453e0     libmx:libmx.dll
 0002:000003e8       __imp_mxGetM_800           00000001800453e8     libmx:libmx.dll
 0002:000003f0       __imp_mxCalloc_800         00000001800453f0     libmx:libmx.dll
 0002:000003f8       __imp_mxGetNaN_800         00000001800453f8     libmx:libmx.dll
 0002:00000400       __imp_mxGetInf_800         0000000180045400     libmx:libmx.dll
 0002:00000408       __imp_mxCreateStructMatrix_800 0000000180045408     libmx:libmx.dll
 0002:00000410       __imp_mxCreateCellMatrix_800 0000000180045410     libmx:libmx.dll
 0002:00000418       __imp_mxCreateString_800   0000000180045418     libmx:libmx.dll
 0002:00000420       __imp_mxSetField_800       0000000180045420     libmx:libmx.dll
 0002:00000428       __imp_mxSetCell_800        0000000180045428     libmx:libmx.dll
 0002:00000430       __imp_mxIsEmpty_800        0000000180045430     libmx:libmx.dll
 0002:00000438       __imp_mxDuplicateArray_800 0000000180045438     libmx:libmx.dll
 0002:00000440       __imp_mxGetString_800      0000000180045440     libmx:libmx.dll
 0002:00000448       __imp_mxIsChar_800         0000000180045448     libmx:libmx.dll
 0002:00000450       \177libmx_NULL_THUNK_DATA  0000000180045450     libmx:libmx.dll
 0002:00000458       __imp_utFree               0000000180045458     libut:libut.dll
 0002:00000460       __imp_utMalloc             0000000180045460     libut:libut.dll
 0002:00000468       \177libut_NULL_THUNK_DATA  0000000180045468     libut:libut.dll
 0002:00000470       __imp_sf_mex_decode        0000000180045470     sf_runtime:sf_runtime.dll
 0002:00000478       __imp_sf_clear_error_manager_info 0000000180045478     sf_runtime:sf_runtime.dll
 0002:00000480       __imp_sf_mex_error_direct_call 0000000180045480     sf_runtime:sf_runtime.dll
 0002:00000488       __imp_getRuntimeInstanceInfoAsVoid 0000000180045488     sf_runtime:sf_runtime.dll
 0002:00000490       __imp_call_sf_machine_global_method_dispatcher 0000000180045490     sf_runtime:sf_runtime.dll
 0002:00000498       __imp_callMdlMethodAndReportError 0000000180045498     sf_runtime:sf_runtime.dll
 0002:000004a0       __imp_sf_get_hasSeparateUpdateOutputs 00000001800454a0     sf_runtime:sf_runtime.dll
 0002:000004a8       __imp_sf_get_ChartInfoStruct_CodeGen 00000001800454a8     sf_runtime:sf_runtime.dll
 0002:000004b0       __imp_ssGetOutputPortSignal_wrapper 00000001800454b0     sf_runtime:sf_runtime.dll
 0002:000004b8       __imp_ssGetInputPortSignal_wrapper 00000001800454b8     sf_runtime:sf_runtime.dll
 0002:000004c0       __imp_sf_mex_get_dimension 00000001800454c0     sf_runtime:sf_runtime.dll
 0002:000004c8       __imp_sf_mex_import_vs     00000001800454c8     sf_runtime:sf_runtime.dll
 0002:000004d0       __imp_sf_mex_import        00000001800454d0     sf_runtime:sf_runtime.dll
 0002:000004d8       __imp_sf_mex_destroy       00000001800454d8     sf_runtime:sf_runtime.dll
 0002:000004e0       __imp_sf_mex_dup           00000001800454e0     sf_runtime:sf_runtime.dll
 0002:000004e8       __imp_sf_mex_assign        00000001800454e8     sf_runtime:sf_runtime.dll
 0002:000004f0       __imp_sf_mex_getcell       00000001800454f0     sf_runtime:sf_runtime.dll
 0002:000004f8       __imp_sf_mex_setcell       00000001800454f8     sf_runtime:sf_runtime.dll
 0002:00000500       __imp_sf_mex_createcellmatrix 0000000180045500     sf_runtime:sf_runtime.dll
 0002:00000508       __imp_sf_mex_create        0000000180045508     sf_runtime:sf_runtime.dll
 0002:00000510       __imp_sf_mex_createstruct  0000000180045510     sf_runtime:sf_runtime.dll
 0002:00000518       __imp_sf_mex_check_struct  0000000180045518     sf_runtime:sf_runtime.dll
 0002:00000520       __imp_sf_mex_setfieldbyindex 0000000180045520     sf_runtime:sf_runtime.dll
 0002:00000528       __imp_sf_mex_getfield      0000000180045528     sf_runtime:sf_runtime.dll
 0002:00000530       __imp_sf_mex_error_message 0000000180045530     sf_runtime:sf_runtime.dll
 0002:00000538       __imp_sf_mex_call          0000000180045538     sf_runtime:sf_runtime.dll
 0002:00000540       __imp_sfListenerReportChartEnableDisable 0000000180045540     sf_runtime:sf_runtime.dll
 0002:00000548       __imp_sfListenerReportLineNumber 0000000180045548     sf_runtime:sf_runtime.dll
 0002:00000550       __imp_sfListenerPushScopeForChartJitOff 0000000180045550     sf_runtime:sf_runtime.dll
 0002:00000558       __imp_sfListenerPushScopeForDynamicMatricesJitOff 0000000180045558     sf_runtime:sf_runtime.dll
 0002:00000560       __imp_sfListenerReportEndingSection 0000000180045560     sf_runtime:sf_runtime.dll
 0002:00000568       __imp_sfListenerReportStartingSection 0000000180045568     sf_runtime:sf_runtime.dll
 0002:00000570       __imp_sfListenerReportScriptName 0000000180045570     sf_runtime:sf_runtime.dll
 0002:00000578       __imp_sfListenerInitializeRuntimeFcnVarsJitOff 0000000180045578     sf_runtime:sf_runtime.dll
 0002:00000580       __imp_sfListenerInitializeIsStmtByStmtModeVar 0000000180045580     sf_runtime:sf_runtime.dll
 0002:00000588       __imp_sfListenerInitializeRuntimeVars 0000000180045588     sf_runtime:sf_runtime.dll
 0002:00000590       __imp_sfListenerTerminate  0000000180045590     sf_runtime:sf_runtime.dll
 0002:00000598       __imp_sfListenerInitializeUsingSimStruct 0000000180045598     sf_runtime:sf_runtime.dll
 0002:000005a0       __imp_mdlProcessParamsCommon 00000001800455a0     sf_runtime:sf_runtime.dll
 0002:000005a8       __imp_supportsLegacyBehaviorForPersistentVarInContinuousTime 00000001800455a8     sf_runtime:sf_runtime.dll
 0002:000005b0       __imp_sfHasContStates      00000001800455b0     sf_runtime:sf_runtime.dll
 0002:000005b8       __imp_sf_error_out_about_continuous_sample_time_with_persistent_vars 00000001800455b8     sf_runtime:sf_runtime.dll
 0002:000005c0       __imp_sf_set_work_widths   00000001800455c0     sf_runtime:sf_runtime.dll
 0002:000005c8       __imp_setDataBrowseFcn     00000001800455c8     sf_runtime:sf_runtime.dll
 0002:000005d0       __imp_sf_get_time          00000001800455d0     sf_runtime:sf_runtime.dll
 0002:000005d8       __imp_sf_clear_rtw_identifier 00000001800455d8     sf_runtime:sf_runtime.dll
 0002:000005e0       __imp_sim_mode_is_external 00000001800455e0     sf_runtime:sf_runtime.dll
 0002:000005e8       __imp_sim_mode_is_rtw_gen  00000001800455e8     sf_runtime:sf_runtime.dll
 0002:000005f0       __imp_sfSetAnimationVectors 00000001800455f0     sf_runtime:sf_runtime.dll
 0002:000005f8       __imp_sf_get_chart_instance_ptr 00000001800455f8     sf_runtime:sf_runtime.dll
 0002:00000600       __imp_sfrtGetCovrtInstance 0000000180045600     sf_runtime:sf_runtime.dll
 0002:00000608       __imp_sfrtGetEmlrtCtx      0000000180045608     sf_runtime:sf_runtime.dll
 0002:00000610       __imp_sf_reset_warnings_ChartRunTimeInfo 0000000180045610     sf_runtime:sf_runtime.dll
 0002:00000618       __imp_sf_free_ChartRunTimeInfo 0000000180045618     sf_runtime:sf_runtime.dll
 0002:00000620       __imp_sf_init_ChartRunTimeInfo 0000000180045620     sf_runtime:sf_runtime.dll
 0002:00000628       __imp_sf_load_rtw_optimization_info 0000000180045628     sf_runtime:sf_runtime.dll
 0002:00000630       \177sf_runtime_NULL_THUNK_DATA 0000000180045630     sf_runtime:sf_runtime.dll
 0002:00000638       __guard_check_icall_fptr   0000000180045638     MSVCRT:guard_support.obj
 0002:00000640       __guard_xfg_check_icall_fptr 0000000180045640     MSVCRT:guard_support.obj
 0002:00000648       __guard_dispatch_icall_fptr 0000000180045648     MSVCRT:guard_support.obj
 0002:00000650       __guard_xfg_dispatch_icall_fptr 0000000180045650     MSVCRT:guard_support.obj
 0002:00000658       __guard_xfg_table_dispatch_icall_fptr 0000000180045658     MSVCRT:guard_support.obj
 0002:00000660       __castguard_check_failure_os_handled_fptr 0000000180045660     MSVCRT:guard_support.obj
 0002:00000668       __guard_memcpy_fptr        0000000180045668     vcruntime:softmemtag.obj
 0002:00000670       __xc_a                     0000000180045670     MSVCRT:initializers.obj
 0002:00000678       __xc_z                     0000000180045678     MSVCRT:initializers.obj
 0002:00000680       __xi_a                     0000000180045680     MSVCRT:initializers.obj
 0002:00000688       __xi_z                     0000000180045688     MSVCRT:initializers.obj
 0002:00000690       __xp_a                     0000000180045690     MSVCRT:initializers.obj
 0002:00000698       __xp_z                     0000000180045698     MSVCRT:initializers.obj
 0002:000006a0       __xt_a                     00000001800456a0     MSVCRT:initializers.obj
 0002:000006a8       __xt_z                     00000001800456a8     MSVCRT:initializers.obj
 0002:000006b0       __real@41c0050b17000000    00000001800456b0     sl_groundvehicleDynamics_sfun.obj
 0002:000006b8       __real@41c4630a94000000    00000001800456b8     sl_groundvehicleDynamics_sfun.obj
 0002:000006c0       __real@41c70de207000000    00000001800456c0     sl_groundvehicleDynamics_sfun.obj
 0002:000006c8       __real@41cae01e13800000    00000001800456c8     sl_groundvehicleDynamics_sfun.obj
 0002:000006d0       __real@41d0daa001000000    00000001800456d0     sl_groundvehicleDynamics_sfun.obj
 0002:000006d8       __real@41e4689d9c800000    00000001800456d8     sl_groundvehicleDynamics_sfun.obj
 0002:000006e0       __real@41e6332854600000    00000001800456e0     sl_groundvehicleDynamics_sfun.obj
 0002:000006e8       __real@41e82baba6e00000    00000001800456e8     sl_groundvehicleDynamics_sfun.obj
 0002:000006f0       __real@41e85b21b2000000    00000001800456f0     sl_groundvehicleDynamics_sfun.obj
 0002:000006f8       __real@41eba5ed82800000    00000001800456f8     sl_groundvehicleDynamics_sfun.obj
 0002:00000700       __real@41ecfca157800000    0000000180045700     sl_groundvehicleDynamics_sfun.obj
 0002:00000708       __real@41ed6991ae400000    0000000180045708     sl_groundvehicleDynamics_sfun.obj
 0002:00000750       __real@0000000000000000    0000000180045750     c5_sl_groundvehicleDynamics.obj
 0002:00000758       __real@0000000000000001    0000000180045758     c5_sl_groundvehicleDynamics.obj
 0002:00000760       __real@0020000000000000    0000000180045760     c5_sl_groundvehicleDynamics.obj
 0002:00000768       __real@3f1a36e2eb1c432d    0000000180045768     c5_sl_groundvehicleDynamics.obj
 0002:00000770       __real@3fa999999999999a    0000000180045770     c5_sl_groundvehicleDynamics.obj
 0002:00000778       __real@3fe4cccccccccccd    0000000180045778     c5_sl_groundvehicleDynamics.obj
 0002:00000780       __real@3ff0000000000000    0000000180045780     c5_sl_groundvehicleDynamics.obj
 0002:00000788       __real@3ff11eb851eb851f    0000000180045788     c5_sl_groundvehicleDynamics.obj
 0002:00000790       __real@4000000000000000    0000000180045790     c5_sl_groundvehicleDynamics.obj
 0002:00000798       __real@4008000000000000    0000000180045798     c5_sl_groundvehicleDynamics.obj
 0002:000007a0       __real@4010000000000000    00000001800457a0     c5_sl_groundvehicleDynamics.obj
 0002:000007a8       __real@4014000000000000    00000001800457a8     c5_sl_groundvehicleDynamics.obj
 0002:000007b0       __real@401c000000000000    00000001800457b0     c5_sl_groundvehicleDynamics.obj
 0002:000007b8       __real@4020000000000000    00000001800457b8     c5_sl_groundvehicleDynamics.obj
 0002:000007c0       __real@4024000000000000    00000001800457c0     c5_sl_groundvehicleDynamics.obj
 0002:000007c8       __real@4044800000000000    00000001800457c8     c5_sl_groundvehicleDynamics.obj
 0002:000007d0       __real@404a000000000000    00000001800457d0     c5_sl_groundvehicleDynamics.obj
 0002:000007d8       __real@406f400000000000    00000001800457d8     c5_sl_groundvehicleDynamics.obj
 0002:000007e0       __real@4079900000000000    00000001800457e0     c5_sl_groundvehicleDynamics.obj
 0002:000007e8       __real@4079a00000000000    00000001800457e8     c5_sl_groundvehicleDynamics.obj
 0002:000007f0       __real@4079b00000000000    00000001800457f0     c5_sl_groundvehicleDynamics.obj
 0002:000007f8       __real@4080380000000000    00000001800457f8     c5_sl_groundvehicleDynamics.obj
 0002:00000800       __real@4080400000000000    0000000180045800     c5_sl_groundvehicleDynamics.obj
 0002:00000808       __real@40c3880000000000    0000000180045808     c5_sl_groundvehicleDynamics.obj
 0002:00000810       __real@410a068000000000    0000000180045810     c5_sl_groundvehicleDynamics.obj
 0002:00000818       __real@4190a5f4e8000000    0000000180045818     c5_sl_groundvehicleDynamics.obj
 0002:00000820       __real@41c0059c43000000    0000000180045820     c5_sl_groundvehicleDynamics.obj
 0002:00000828       __real@41e322b779400000    0000000180045828     c5_sl_groundvehicleDynamics.obj
 0002:00000830       __real@41e72f5ef6000000    0000000180045830     c5_sl_groundvehicleDynamics.obj
 0002:00000838       __real@bfe0000000000000    0000000180045838     c5_sl_groundvehicleDynamics.obj
 0002:00000840       __real@bff0000000000000    0000000180045840     c5_sl_groundvehicleDynamics.obj
 0002:00000850       __xmm@80000000000000008000000000000000 0000000180045850     c5_sl_groundvehicleDynamics.obj
 0002:00000860       DYNAMIC_DIMENSION_DEF      0000000180045860     sl_groundvehicleDynamics_sfun_registry.obj
 0002:00000878       __real@41602cbca0000000    0000000180045878     sl_groundvehicleDynamics_sfun_registry.obj
 0002:00000890       ??_7exception@std@@6B@     0000000180045890     priorityqueue_api.obj
 0002:000008a0       ??_C@_0BC@EOODALEL@Unknown?5exception@ 00000001800458a0     priorityqueue_api.obj
 0002:000008c0       ??_7bad_alloc@std@@6B@     00000001800458c0     priorityqueue_api.obj
 0002:000008d8       ??_7bad_array_new_length@std@@6B@ 00000001800458d8     priorityqueue_api.obj
 0002:000008e8       ??_C@_0BF@KINCDENJ@bad?5array?5new?5length@ 00000001800458e8     priorityqueue_api.obj
 0002:00000900       ?_Min_buckets@?$_Hash@V?$_Umap_traits@HV?$vector@NV?$allocator@N@std@@@std@@V?$_Uhash_compare@HU?$hash@H@std@@U?$equal_to@H@2@@2@V?$allocator@U?$pair@$$CBHV?$vector@NV?$allocator@N@std@@@std@@@std@@@2@$0A@@std@@@std@@2_KB 0000000180045900     priorityqueue_api.obj
 0002:00000910       ??_C@_1JC@BAEHGAKK@?$AAC?$AA?3?$AA?2?$AAP?$AAr?$AAo?$AAg?$AAr?$AAa?$AAm?$AA?5?$AAF?$AAi?$AAl?$AAe@ 0000000180045910     priorityqueue_api.obj
 0002:000009a8       ??_C@_1BK@HMDPMLHC@?$AAd?$AAa?$AAt?$AAa?$AAD?$AAi?$AAm?$AA?5?$AA?$DO?$AA?$DN?$AA?5?$AA0@ 00000001800459a8     priorityqueue_api.obj
 0002:000009c8       ?_Min_buckets@?$_Hash@V?$_Umap_traits@HHV?$_Uhash_compare@HU?$hash@H@std@@U?$equal_to@H@2@@std@@V?$allocator@U?$pair@$$CBHH@std@@@2@$0A@@std@@@std@@2_KB 00000001800459c8     priorityqueue_api.obj
 0002:000009d0       ??_C@_1CK@EPDBDGNJ@?$AAD?$AAa?$AAt?$AAa?$AAD?$AAi?$AAm?$AA?5?$AA?$DO?$AA?5?$AAP?$AAr?$AAi?$AAm?$AAe@ 00000001800459d0     priorityqueue_api.obj
 0002:00000a00       ??_C@_1CA@GIHBCFAE@?$AAP?$AAr?$AAi?$AAm?$AAe?$AAI?$AAn?$AAd?$AAe?$AAx?$AA?5?$AA?$DO?$AA?$DN?$AA?5?$AA0@ 0000000180045a00     priorityqueue_api.obj
 0002:00000a20       ??_C@_0BL@GOIGLPKN@unordered_map?1set?5too?5long@ 0000000180045a20     priorityqueue_api.obj
 0002:00000a40       ??_C@_0BK@OGNNAFAB@invalid?5hash?5bucket?5count@ 0000000180045a40     priorityqueue_api.obj
 0002:00000a60       ??_C@_0BA@FOIKENOD@vector?5too?5long@ 0000000180045a60     priorityqueue_api.obj
 0002:00000a70       __real@3f800000            0000000180045a70     priorityqueue_api.obj
 0002:00000a74       __real@5f000000            0000000180045a74     priorityqueue_api.obj
 0002:00000a78       __real@7ff8000000000000    0000000180045a78     priorityqueue_api.obj
 0002:00000a98       ??_7type_info@@6B@         0000000180045a98     MSVCRT:std_type_info_static.obj
 0002:00000aa0       _pDefaultRawDllMain        0000000180045aa0     MSVCRT:dll_dllmain.obj
 0002:00000aa0       _pRawDllMain               0000000180045aa0     MSVCRT:dll_dllmain.obj
 0002:00000aa8       ??_C@_0P@GHFPNOJB@bad?5allocation@ 0000000180045aa8     MSVCRT:throw_bad_alloc.obj
 0002:00000ac0       __xmm@ffffffffffffffffffffffffffffffff 0000000180045ac0     MSVCRT:utility.obj
 0002:00000ad0       _load_config_used          0000000180045ad0     MSVCRT:loadcfg.obj
 0002:00000c80       __CastGuardVftablesStart   0000000180045c80     MSVCRT:guard_support.obj
 0002:00000d00       __CastGuardVftablesEnd     0000000180045d00     MSVCRT:guard_support.obj
 0002:00000d80       ??_R4exception@std@@6B@    0000000180045d80     priorityqueue_api.obj
 0002:00000da8       ??_R3exception@std@@8      0000000180045da8     priorityqueue_api.obj
 0002:00000dc0       ??_R2exception@std@@8      0000000180045dc0     priorityqueue_api.obj
 0002:00000dd0       ??_R1A@?0A@EA@exception@std@@8 0000000180045dd0     priorityqueue_api.obj
 0002:00000df8       ??_R4bad_alloc@std@@6B@    0000000180045df8     priorityqueue_api.obj
 0002:00000e20       ??_R3bad_alloc@std@@8      0000000180045e20     priorityqueue_api.obj
 0002:00000e38       ??_R2bad_alloc@std@@8      0000000180045e38     priorityqueue_api.obj
 0002:00000e50       ??_R1A@?0A@EA@bad_alloc@std@@8 0000000180045e50     priorityqueue_api.obj
 0002:00000e78       ??_R4bad_array_new_length@std@@6B@ 0000000180045e78     priorityqueue_api.obj
 0002:00000ea0       ??_R3bad_array_new_length@std@@8 0000000180045ea0     priorityqueue_api.obj
 0002:00000eb8       ??_R2bad_array_new_length@std@@8 0000000180045eb8     priorityqueue_api.obj
 0002:00000ed8       ??_R1A@?0A@EA@bad_array_new_length@std@@8 0000000180045ed8     priorityqueue_api.obj
 0002:00000f00       ??_R4type_info@@6B@        0000000180045f00     MSVCRT:std_type_info_static.obj
 0002:00000f28       ??_R3type_info@@8          0000000180045f28     MSVCRT:std_type_info_static.obj
 0002:00000f40       ??_R2type_info@@8          0000000180045f40     MSVCRT:std_type_info_static.obj
 0002:00000f50       ??_R1A@?0A@EA@type_info@@8 0000000180045f50     MSVCRT:std_type_info_static.obj
 0002:00000f74       __volatile_metadata        0000000180045f74     <linker-defined>
 0002:000014d8       __rtc_iaa                  00000001800464d8     MSVCRT:initsect.obj
 0002:000014e0       __rtc_izz                  00000001800464e0     MSVCRT:initsect.obj
 0002:000014e8       __rtc_taa                  00000001800464e8     MSVCRT:initsect.obj
 0002:000014f0       __rtc_tzz                  00000001800464f0     MSVCRT:initsect.obj
 0002:00003790       _CT??_R0?AVexception@std@@@8??0exception@std@@QEAA@AEBV01@@Z24 0000000180048790     priorityqueue_api.obj
 0002:000037b8       _TI3?AVbad_array_new_length@std@@ 00000001800487b8     priorityqueue_api.obj
 0002:000037d8       _CTA3?AVbad_array_new_length@std@@ 00000001800487d8     priorityqueue_api.obj
 0002:000037f8       _CT??_R0?AVbad_array_new_length@std@@@8??0bad_array_new_length@std@@QEAA@AEBV01@@Z24 00000001800487f8     priorityqueue_api.obj
 0002:00003820       _CT??_R0?AVbad_alloc@std@@@8??0bad_alloc@std@@QEAA@AEBV01@@Z24 0000000180048820     priorityqueue_api.obj
 0002:00003848       _TI2?AVbad_alloc@std@@     0000000180048848     MSVCRT:throw_bad_alloc.obj
 0002:00003868       _CTA2?AVbad_alloc@std@@    0000000180048868     MSVCRT:throw_bad_alloc.obj
 0002:00003908       __IMPORT_DESCRIPTOR_sf_runtime 0000000180048908     sf_runtime:sf_runtime.dll
 0002:0000391c       __IMPORT_DESCRIPTOR_libmx  000000018004891c     libmx:libmx.dll
 0002:00003930       __IMPORT_DESCRIPTOR_libmex 0000000180048930     libmex:libmex.dll
 0002:00003944       __IMPORT_DESCRIPTOR_libut  0000000180048944     libut:libut.dll
 0002:00003958       __IMPORT_DESCRIPTOR_libmwmathutil 0000000180048958     libmwmathutil:libmwmathutil.dll
 0002:0000396c       __IMPORT_DESCRIPTOR_libemlrt 000000018004896c     libemlrt:libemlrt.dll
 0002:00003980       __IMPORT_DESCRIPTOR_libcovrt 0000000180048980     libcovrt:libcovrt.dll
 0002:00003994       __IMPORT_DESCRIPTOR_MSVCP140 0000000180048994     msvcprt:MSVCP140.dll
 0002:000039a8       __IMPORT_DESCRIPTOR_KERNEL32 00000001800489a8     kernel32:KERNEL32.dll
 0002:000039bc       __IMPORT_DESCRIPTOR_VCRUNTIME140 00000001800489bc     vcruntime:VCRUNTIME140.dll
 0002:000039d0       __IMPORT_DESCRIPTOR_VCRUNTIME140_1 00000001800489d0     vcruntime:VCRUNTIME140_1.dll
 0002:000039e4       __IMPORT_DESCRIPTOR_api-ms-win-crt-string-l1-1-0 00000001800489e4     ucrt:api-ms-win-crt-string-l1-1-0.dll
 0002:000039f8       __IMPORT_DESCRIPTOR_api-ms-win-crt-math-l1-1-0 00000001800489f8     ucrt:api-ms-win-crt-math-l1-1-0.dll
 0002:00003a0c       __IMPORT_DESCRIPTOR_api-ms-win-crt-stdio-l1-1-0 0000000180048a0c     ucrt:api-ms-win-crt-stdio-l1-1-0.dll
 0002:00003a20       __IMPORT_DESCRIPTOR_api-ms-win-crt-heap-l1-1-0 0000000180048a20     ucrt:api-ms-win-crt-heap-l1-1-0.dll
 0002:00003a34       __IMPORT_DESCRIPTOR_api-ms-win-crt-runtime-l1-1-0 0000000180048a34     ucrt:api-ms-win-crt-runtime-l1-1-0.dll
 0002:00003a48       __NULL_IMPORT_DESCRIPTOR   0000000180048a48     sf_runtime:sf_runtime.dll
 0003:000142e0       DYNAMIC_DIMENSION          000000018005f2e0     sl_groundvehicleDynamics_sfun_registry.obj
 0003:000169c0       __security_cookie          00000001800619c0     MSVCRT:gs_cookie.obj
 0003:00016a00       __security_cookie_complement 0000000180061a00     MSVCRT:gs_cookie.obj
 0003:00016a08       _fltused                   0000000180061a08     MSVCRT:fltused.obj
 0003:00016a10       __scrt_native_dllmain_reason 0000000180061a10     MSVCRT:utility.obj
 0003:00016a18       __isa_available            0000000180061a18     MSVCRT:cpu_disp.obj
 0003:00016a1c       __isa_enabled              0000000180061a1c     MSVCRT:cpu_disp.obj
 0003:00016a20       __memset_fast_string_threshold 0000000180061a20     MSVCRT:cpu_disp.obj
 0003:00016a28       __memset_nt_threshold      0000000180061a28     MSVCRT:cpu_disp.obj
 0003:00016a30       __scrt_ucrt_dll_is_in_use  0000000180061a30     MSVCRT:ucrt_stubs.obj
 0003:00016a38       ??_R0?AVexception@std@@@8  0000000180061a38     priorityqueue_api.obj
 0003:00016a60       ??_R0?AVbad_array_new_length@std@@@8 0000000180061a60     priorityqueue_api.obj
 0003:00016a90       ??_R0?AVbad_alloc@std@@@8  0000000180061a90     priorityqueue_api.obj
 0003:00016ab8       ??_R0?AVtype_info@@@8      0000000180061ab8     MSVCRT:std_type_info_static.obj
 0003:00017930       ?__type_info_root_node@@3U__type_info_node@@A 0000000180062930     MSVCRT:tncleanup.obj
 0003:00017940       ?_OptionsStorage@?1??__local_stdio_printf_options@@9@4_KA 0000000180062940     MSVCRT:default_local_stdio_options.obj
 0003:00017948       ?_OptionsStorage@?1??__local_stdio_scanf_options@@9@4_KA 0000000180062948     MSVCRT:default_local_stdio_options.obj
 0003:00017950       __scrt_current_native_startup_state 0000000180062950     MSVCRT:utility.obj
 0003:00017958       __scrt_native_startup_lock 0000000180062958     MSVCRT:utility.obj
 0003:00017998       __scrt_debugger_hook_flag  0000000180062998     MSVCRT:utility_desktop.obj
 0003:000179a0       __castguard_check_failure_user_handled_fptr 00000001800629a0     MSVCRT:guard_support.obj
 0003:000179a8       __favor                    00000001800629a8     MSVCRT:cpu_disp.obj
 0003:000179b0       ?_OptionsStorage@?1??__local_stdio_printf_options@@9@9 00000001800629b0     <common>
 0003:000179b8       __dyn_tls_init_callback    00000001800629b8     <common>

 entry point at        0001:0004212c

 Static symbols

 0000:00000000       _volmd                     0000000180000000     c5_sl_groundvehicleDynamics.obj
 0000:00000000       _volmd                     0000000180000000     priorityqueue_api.obj
 0000:00000000       _volmd                     0000000180000000     priorityqueue_api.obj
 0000:00000000       _volmd                     0000000180000000     priorityqueue_api.obj
 0000:00000000       .debug$S                   0000000180000000     sl_groundvehicleDynamics_sfun.exp
 0000:00000000       _volmd                     0000000180000000     sl_groundvehicleDynamics_sfun.obj
 0000:00000000       _volmd                     0000000180000000     sl_groundvehicleDynamics_sfun_registry.obj
 0000:00000000       .debug$S                   0000000180000000     ucrt:api-ms-win-crt-heap-l1-1-0.dll
 0000:00000000       .debug$S                   0000000180000000     ucrt:api-ms-win-crt-heap-l1-1-0.dll
 0000:00000000       .debug$S                   0000000180000000     ucrt:api-ms-win-crt-heap-l1-1-0.dll
 0000:00000000       .debug$S                   0000000180000000     ucrt:api-ms-win-crt-math-l1-1-0.dll
 0000:00000000       .debug$S                   0000000180000000     ucrt:api-ms-win-crt-math-l1-1-0.dll
 0000:00000000       .debug$S                   0000000180000000     ucrt:api-ms-win-crt-math-l1-1-0.dll
 0000:00000000       .debug$S                   0000000180000000     ucrt:api-ms-win-crt-runtime-l1-1-0.dll
 0000:00000000       .debug$S                   0000000180000000     ucrt:api-ms-win-crt-runtime-l1-1-0.dll
 0000:00000000       .debug$S                   0000000180000000     ucrt:api-ms-win-crt-runtime-l1-1-0.dll
 0000:00000000       .debug$S                   0000000180000000     ucrt:api-ms-win-crt-runtime-l1-1-0.dll
 0000:00000000       .debug$S                   0000000180000000     ucrt:api-ms-win-crt-runtime-l1-1-0.dll
 0000:00000000       .debug$S                   0000000180000000     ucrt:api-ms-win-crt-runtime-l1-1-0.dll
 0000:00000000       .debug$S                   0000000180000000     ucrt:api-ms-win-crt-runtime-l1-1-0.dll
 0000:00000000       .debug$S                   0000000180000000     ucrt:api-ms-win-crt-runtime-l1-1-0.dll
 0000:00000000       .debug$S                   0000000180000000     ucrt:api-ms-win-crt-runtime-l1-1-0.dll
 0000:00000000       .debug$S                   0000000180000000     ucrt:api-ms-win-crt-runtime-l1-1-0.dll
 0000:00000000       .debug$S                   0000000180000000     ucrt:api-ms-win-crt-runtime-l1-1-0.dll
 0000:00000000       .debug$S                   0000000180000000     ucrt:api-ms-win-crt-runtime-l1-1-0.dll
 0000:00000000       .debug$S                   0000000180000000     ucrt:api-ms-win-crt-runtime-l1-1-0.dll
 0000:00000000       .debug$S                   0000000180000000     ucrt:api-ms-win-crt-runtime-l1-1-0.dll
 0000:00000000       .debug$S                   0000000180000000     ucrt:api-ms-win-crt-stdio-l1-1-0.dll
 0000:00000000       .debug$S                   0000000180000000     ucrt:api-ms-win-crt-string-l1-1-0.dll
 0000:00000000       .debug$S                   0000000180000000     ucrt:api-ms-win-crt-string-l1-1-0.dll
 0000:00000000       .debug$S                   0000000180000000     ucrt:api-ms-win-crt-string-l1-1-0.dll
 0000:00000000       .debug$S                   0000000180000000     kernel32:KERNEL32.dll
 0000:00000000       .debug$S                   0000000180000000     kernel32:KERNEL32.dll
 0000:00000000       .debug$S                   0000000180000000     kernel32:KERNEL32.dll
 0000:00000000       .debug$S                   0000000180000000     kernel32:KERNEL32.dll
 0000:00000000       .debug$S                   0000000180000000     kernel32:KERNEL32.dll
 0000:00000000       .debug$S                   0000000180000000     kernel32:KERNEL32.dll
 0000:00000000       .debug$S                   0000000180000000     kernel32:KERNEL32.dll
 0000:00000000       .debug$S                   0000000180000000     kernel32:KERNEL32.dll
 0000:00000000       .debug$S                   0000000180000000     kernel32:KERNEL32.dll
 0000:00000000       .debug$S                   0000000180000000     kernel32:KERNEL32.dll
 0000:00000000       .debug$S                   0000000180000000     kernel32:KERNEL32.dll
 0000:00000000       .debug$S                   0000000180000000     kernel32:KERNEL32.dll
 0000:00000000       .debug$S                   0000000180000000     kernel32:KERNEL32.dll
 0000:00000000       .debug$S                   0000000180000000     kernel32:KERNEL32.dll
 0000:00000000       .debug$S                   0000000180000000     kernel32:KERNEL32.dll
 0000:00000000       .debug$S                   0000000180000000     kernel32:KERNEL32.dll
 0000:00000000       .debug$S                   0000000180000000     kernel32:KERNEL32.dll
 0000:00000000       .debug$S                   0000000180000000     libcovrt:libcovrt.dll
 0000:00000000       .debug$S                   0000000180000000     libcovrt:libcovrt.dll
 0000:00000000       .debug$S                   0000000180000000     libcovrt:libcovrt.dll
 0000:00000000       .debug$S                   0000000180000000     libcovrt:libcovrt.dll
 0000:00000000       .debug$S                   0000000180000000     libcovrt:libcovrt.dll
 0000:00000000       .debug$S                   0000000180000000     libcovrt:libcovrt.dll
 0000:00000000       .debug$S                   0000000180000000     libcovrt:libcovrt.dll
 0000:00000000       .debug$S                   0000000180000000     libcovrt:libcovrt.dll
 0000:00000000       .debug$S                   0000000180000000     libcovrt:libcovrt.dll
 0000:00000000       .debug$S                   0000000180000000     libcovrt:libcovrt.dll
 0000:00000000       .debug$S                   0000000180000000     libcovrt:libcovrt.dll
 0000:00000000       .debug$S                   0000000180000000     libcovrt:libcovrt.dll
 0000:00000000       .debug$S                   0000000180000000     libcovrt:libcovrt.dll
 0000:00000000       .debug$S                   0000000180000000     libcovrt:libcovrt.dll
 0000:00000000       .debug$S                   0000000180000000     libcovrt:libcovrt.dll
 0000:00000000       .debug$S                   0000000180000000     libcovrt:libcovrt.dll
 0000:00000000       .debug$S                   0000000180000000     libemlrt:libemlrt.dll
 0000:00000000       .debug$S                   0000000180000000     libemlrt:libemlrt.dll
 0000:00000000       .debug$S                   0000000180000000     libemlrt:libemlrt.dll
 0000:00000000       .debug$S                   0000000180000000     libemlrt:libemlrt.dll
 0000:00000000       .debug$S                   0000000180000000     libemlrt:libemlrt.dll
 0000:00000000       .debug$S                   0000000180000000     libemlrt:libemlrt.dll
 0000:00000000       .debug$S                   0000000180000000     libemlrt:libemlrt.dll
 0000:00000000       .debug$S                   0000000180000000     libemlrt:libemlrt.dll
 0000:00000000       .debug$S                   0000000180000000     libemlrt:libemlrt.dll
 0000:00000000       .debug$S                   0000000180000000     libemlrt:libemlrt.dll
 0000:00000000       .debug$S                   0000000180000000     libemlrt:libemlrt.dll
 0000:00000000       .debug$S                   0000000180000000     libemlrt:libemlrt.dll
 0000:00000000       .debug$S                   0000000180000000     libemlrt:libemlrt.dll
 0000:00000000       .debug$S                   0000000180000000     libemlrt:libemlrt.dll
 0000:00000000       .debug$S                   0000000180000000     libemlrt:libemlrt.dll
 0000:00000000       .debug$S                   0000000180000000     libmex:libmex.dll
 0000:00000000       .debug$S                   0000000180000000     libmex:libmex.dll
 0000:00000000       .debug$S                   0000000180000000     libmex:libmex.dll
 0000:00000000       .debug$S                   0000000180000000     libmex:libmex.dll
 0000:00000000       .debug$S                   0000000180000000     libmex:libmex.dll
 0000:00000000       .debug$S                   0000000180000000     libmex:libmex.dll
 0000:00000000       .debug$S                   0000000180000000     libmex:libmex.dll
 0000:00000000       .debug$S                   0000000180000000     libmwmathutil:libmwmathutil.dll
 0000:00000000       .debug$S                   0000000180000000     libmwmathutil:libmwmathutil.dll
 0000:00000000       .debug$S                   0000000180000000     libmwmathutil:libmwmathutil.dll
 0000:00000000       .debug$S                   0000000180000000     libmwmathutil:libmwmathutil.dll
 0000:00000000       .debug$S                   0000000180000000     libmwmathutil:libmwmathutil.dll
 0000:00000000       .debug$S                   0000000180000000     libmwmathutil:libmwmathutil.dll
 0000:00000000       .debug$S                   0000000180000000     libmwmathutil:libmwmathutil.dll
 0000:00000000       .debug$S                   0000000180000000     libmwmathutil:libmwmathutil.dll
 0000:00000000       .debug$S                   0000000180000000     libmwmathutil:libmwmathutil.dll
 0000:00000000       .debug$S                   0000000180000000     libmwmathutil:libmwmathutil.dll
 0000:00000000       .debug$S                   0000000180000000     libmwmathutil:libmwmathutil.dll
 0000:00000000       .debug$S                   0000000180000000     libmx:libmx.dll
 0000:00000000       .debug$S                   0000000180000000     libmx:libmx.dll
 0000:00000000       .debug$S                   0000000180000000     libmx:libmx.dll
 0000:00000000       .debug$S                   0000000180000000     libmx:libmx.dll
 0000:00000000       .debug$S                   0000000180000000     libmx:libmx.dll
 0000:00000000       .debug$S                   0000000180000000     libmx:libmx.dll
 0000:00000000       .debug$S                   0000000180000000     libmx:libmx.dll
 0000:00000000       .debug$S                   0000000180000000     libmx:libmx.dll
 0000:00000000       .debug$S                   0000000180000000     libmx:libmx.dll
 0000:00000000       .debug$S                   0000000180000000     libmx:libmx.dll
 0000:00000000       .debug$S                   0000000180000000     libmx:libmx.dll
 0000:00000000       .debug$S                   0000000180000000     libmx:libmx.dll
 0000:00000000       .debug$S                   0000000180000000     libmx:libmx.dll
 0000:00000000       .debug$S                   0000000180000000     libmx:libmx.dll
 0000:00000000       .debug$S                   0000000180000000     libmx:libmx.dll
 0000:00000000       .debug$S                   0000000180000000     libmx:libmx.dll
 0000:00000000       .debug$S                   0000000180000000     libmx:libmx.dll
 0000:00000000       .debug$S                   0000000180000000     libmx:libmx.dll
 0000:00000000       .debug$S                   0000000180000000     libmx:libmx.dll
 0000:00000000       .debug$S                   0000000180000000     libmx:libmx.dll
 0000:00000000       .debug$S                   0000000180000000     libmx:libmx.dll
 0000:00000000       .debug$S                   0000000180000000     libmx:libmx.dll
 0000:00000000       .debug$S                   0000000180000000     libut:libut.dll
 0000:00000000       .debug$S                   0000000180000000     libut:libut.dll
 0000:00000000       .debug$S                   0000000180000000     sf_runtime:sf_runtime.dll
 0000:00000000       .debug$S                   0000000180000000     sf_runtime:sf_runtime.dll
 0000:00000000       .debug$S                   0000000180000000     sf_runtime:sf_runtime.dll
 0000:00000000       .debug$S                   0000000180000000     sf_runtime:sf_runtime.dll
 0000:00000000       .debug$S                   0000000180000000     sf_runtime:sf_runtime.dll
 0000:00000000       .debug$S                   0000000180000000     sf_runtime:sf_runtime.dll
 0000:00000000       .debug$S                   0000000180000000     sf_runtime:sf_runtime.dll
 0000:00000000       .debug$S                   0000000180000000     sf_runtime:sf_runtime.dll
 0000:00000000       .debug$S                   0000000180000000     sf_runtime:sf_runtime.dll
 0000:00000000       .debug$S                   0000000180000000     sf_runtime:sf_runtime.dll
 0000:00000000       .debug$S                   0000000180000000     sf_runtime:sf_runtime.dll
 0000:00000000       .debug$S                   0000000180000000     sf_runtime:sf_runtime.dll
 0000:00000000       .debug$S                   0000000180000000     sf_runtime:sf_runtime.dll
 0000:00000000       .debug$S                   0000000180000000     sf_runtime:sf_runtime.dll
 0000:00000000       .debug$S                   0000000180000000     sf_runtime:sf_runtime.dll
 0000:00000000       .debug$S                   0000000180000000     sf_runtime:sf_runtime.dll
 0000:00000000       .debug$S                   0000000180000000     sf_runtime:sf_runtime.dll
 0000:00000000       .debug$S                   0000000180000000     sf_runtime:sf_runtime.dll
 0000:00000000       .debug$S                   0000000180000000     sf_runtime:sf_runtime.dll
 0000:00000000       .debug$S                   0000000180000000     sf_runtime:sf_runtime.dll
 0000:00000000       .debug$S                   0000000180000000     sf_runtime:sf_runtime.dll
 0000:00000000       .debug$S                   0000000180000000     sf_runtime:sf_runtime.dll
 0000:00000000       .debug$S                   0000000180000000     sf_runtime:sf_runtime.dll
 0000:00000000       .debug$S                   0000000180000000     sf_runtime:sf_runtime.dll
 0000:00000000       .debug$S                   0000000180000000     sf_runtime:sf_runtime.dll
 0000:00000000       .debug$S                   0000000180000000     sf_runtime:sf_runtime.dll
 0000:00000000       .debug$S                   0000000180000000     sf_runtime:sf_runtime.dll
 0000:00000000       .debug$S                   0000000180000000     sf_runtime:sf_runtime.dll
 0000:00000000       .debug$S                   0000000180000000     sf_runtime:sf_runtime.dll
 0000:00000000       .debug$S                   0000000180000000     sf_runtime:sf_runtime.dll
 0000:00000000       .debug$S                   0000000180000000     sf_runtime:sf_runtime.dll
 0000:00000000       .debug$S                   0000000180000000     sf_runtime:sf_runtime.dll
 0000:00000000       .debug$S                   0000000180000000     sf_runtime:sf_runtime.dll
 0000:00000000       .debug$S                   0000000180000000     sf_runtime:sf_runtime.dll
 0000:00000000       .debug$S                   0000000180000000     sf_runtime:sf_runtime.dll
 0000:00000000       .debug$S                   0000000180000000     sf_runtime:sf_runtime.dll
 0000:00000000       .debug$S                   0000000180000000     sf_runtime:sf_runtime.dll
 0000:00000000       .debug$S                   0000000180000000     sf_runtime:sf_runtime.dll
 0000:00000000       .debug$S                   0000000180000000     sf_runtime:sf_runtime.dll
 0000:00000000       .debug$S                   0000000180000000     sf_runtime:sf_runtime.dll
 0000:00000000       .debug$S                   0000000180000000     sf_runtime:sf_runtime.dll
 0000:00000000       .debug$S                   0000000180000000     sf_runtime:sf_runtime.dll
 0000:00000000       .debug$S                   0000000180000000     sf_runtime:sf_runtime.dll
 0000:00000000       .debug$S                   0000000180000000     sf_runtime:sf_runtime.dll
 0000:00000000       .debug$S                   0000000180000000     sf_runtime:sf_runtime.dll
 0000:00000000       .debug$S                   0000000180000000     sf_runtime:sf_runtime.dll
 0000:00000000       .debug$S                   0000000180000000     sf_runtime:sf_runtime.dll
 0000:00000000       .debug$S                   0000000180000000     sf_runtime:sf_runtime.dll
 0000:00000000       .debug$S                   0000000180000000     sf_runtime:sf_runtime.dll
 0000:00000000       .debug$S                   0000000180000000     sf_runtime:sf_runtime.dll
 0000:00000000       .debug$S                   0000000180000000     sf_runtime:sf_runtime.dll
 0000:00000000       .debug$S                   0000000180000000     sf_runtime:sf_runtime.dll
 0000:00000000       .debug$S                   0000000180000000     sf_runtime:sf_runtime.dll
 0000:00000000       .debug$S                   0000000180000000     sf_runtime:sf_runtime.dll
 0000:00000000       .debug$S                   0000000180000000     sf_runtime:sf_runtime.dll
 0000:00000000       .debug$S                   0000000180000000     sf_runtime:sf_runtime.dll
 0000:00000000       _volmd                     0000000180000000     MSVCRT:cpu_disp.obj
 0002:fffbb000       __guard_ehcont_?dllmain_dispatch@@YAHQEAUHINSTANCE__@@KQEAX@Z 0000000180000000     MSVCRT:dll_dllmain.obj
 0002:fffbb000       __guard_fids_?dllmain_dispatch@@YAHQEAUHINSTANCE__@@KQEAX@Z 0000000180000000     MSVCRT:dll_dllmain.obj
 0000:00000000       _volmd                     0000000180000000     MSVCRT:gs_report.obj
 0000:00000000       _volmd                     0000000180000000     MSVCRT:gs_report.obj
 0000:00000000       _volmd                     0000000180000000     MSVCRT:gs_report.obj
 0002:fffbb000       __guard_fids__             0000000180000000     MSVCRT:guard_support.obj
 0002:fffbb000       __guard_fids__             0000000180000000     MSVCRT:guard_support.obj
 0002:fffbb000       __guard_fids__guard_icall_checks_enforced 0000000180000000     MSVCRT:guard_support.obj
 0000:00000000       _volmd                     0000000180000000     MSVCRT:guard_support.obj
 0000:00000000       _volmd                     0000000180000000     MSVCRT:guard_support.obj
 0000:00000000       _volmd                     0000000180000000     MSVCRT:guard_support.obj
 0000:00000000       _volmd                     0000000180000000     MSVCRT:guard_support.obj
 0000:00000000       _volmd                     0000000180000000     MSVCRT:guard_support.obj
 0000:00000000       _volmd                     0000000180000000     MSVCRT:guard_support.obj
 0000:00000000       _volmd                     0000000180000000     MSVCRT:guard_support.obj
 0000:00000000       _volmd                     0000000180000000     MSVCRT:guard_support.obj
 0000:00000000       _volmd                     0000000180000000     MSVCRT:guard_support.obj
 0000:00000000       _volmd                     0000000180000000     MSVCRT:guard_support.obj
 0002:fffbb000       __guard_fids__             0000000180000000     MSVCRT:std_type_info_static.obj
 0002:fffbb000       $unwind$??0bad_alloc@std@@QEAA@AEBV01@@Z 0000000180000000     MSVCRT:throw_bad_alloc.obj
 0002:fffbb000       $unwind$??0bad_array_new_length@std@@QEAA@AEBV01@@Z 0000000180000000     MSVCRT:throw_bad_alloc.obj
 0002:fffbb000       $unwind$??0exception@std@@QEAA@AEBV01@@Z 0000000180000000     MSVCRT:throw_bad_alloc.obj
 0002:fffbb000       $unwind$??_Gbad_alloc@std@@UEAAPEAXI@Z 0000000180000000     MSVCRT:throw_bad_alloc.obj
 0002:fffbb000       $unwind$??_Gbad_array_new_length@std@@UEAAPEAXI@Z 0000000180000000     MSVCRT:throw_bad_alloc.obj
 0002:fffbb000       $unwind$??_Gexception@std@@UEAAPEAXI@Z 0000000180000000     MSVCRT:throw_bad_alloc.obj
 0002:fffbb000       __guard_fids__             0000000180000000     MSVCRT:throw_bad_alloc.obj
 0002:fffbb000       __guard_fids__             0000000180000000     MSVCRT:throw_bad_alloc.obj
 0002:fffbb000       __guard_fids__             0000000180000000     MSVCRT:throw_bad_alloc.obj
 0002:fffbb000       __guard_ehcont___scrt_is_nonwritable_in_current_image 0000000180000000     MSVCRT:utility.obj
 0000:00000000       _volmd                     0000000180000000     MSVCRT:utility.obj
 0000:00000000       _volmd                     0000000180000000     MSVCRT:utility.obj
 0000:00000000       _volmd                     0000000180000000     MSVCRT:utility.obj
 0002:fffbb000       __guard_fids___scrt_set_unhandled_exception_filter 0000000180000000     MSVCRT:utility_desktop.obj
 0000:00000000       _volmd                     0000000180000000     MSVCRT:utility_desktop.obj
 0000:00000000       .debug$S                   0000000180000000     msvcprt:MSVCP140.dll
 0002:fffbb000       __guard_fids__             0000000180000000     vcruntime:softmemtag.obj
 0000:00000000       .debug$S                   0000000180000000     vcruntime:VCRUNTIME140.dll
 0000:00000000       .debug$S                   0000000180000000     vcruntime:VCRUNTIME140.dll
 0000:00000000       .debug$S                   0000000180000000     vcruntime:VCRUNTIME140.dll
 0000:00000000       .debug$S                   0000000180000000     vcruntime:VCRUNTIME140.dll
 0000:00000000       .debug$S                   0000000180000000     vcruntime:VCRUNTIME140.dll
 0000:00000000       .debug$S                   0000000180000000     vcruntime:VCRUNTIME140.dll
 0000:00000000       .debug$S                   0000000180000000     vcruntime:VCRUNTIME140.dll
 0000:00000000       .debug$S                   0000000180000000     vcruntime:VCRUNTIME140.dll
 0000:00000000       .debug$S                   0000000180000000     vcruntime:VCRUNTIME140.dll
 0000:00000000       .debug$S                   0000000180000000     vcruntime:VCRUNTIME140.dll
 0000:00000000       .debug$S                   0000000180000000     vcruntime:VCRUNTIME140.dll
 0000:00000000       .debug$S                   0000000180000000     vcruntime:VCRUNTIME140_1.dll
 0000:00000010       _volmd                     0000000180000010     c5_sl_groundvehicleDynamics.obj
 0000:00000010       _volmd                     0000000180000010     sl_groundvehicleDynamics_sfun.obj
 0000:00000010       _volmd                     0000000180000010     sl_groundvehicleDynamics_sfun_registry.obj
 0000:00000020       _volmd                     0000000180000020     c5_sl_groundvehicleDynamics.obj
 0000:00000020       _volmd                     0000000180000020     sl_groundvehicleDynamics_sfun.obj
 0000:00000020       _volmd                     0000000180000020     sl_groundvehicleDynamics_sfun_registry.obj
 0000:00000030       _volmd                     0000000180000030     c5_sl_groundvehicleDynamics.obj
 0000:00000030       _volmd                     0000000180000030     sl_groundvehicleDynamics_sfun.obj
 0000:00000030       _volmd                     0000000180000030     sl_groundvehicleDynamics_sfun_registry.obj
 0000:00000040       _volmd                     0000000180000040     c5_sl_groundvehicleDynamics.obj
 0000:00000040       _volmd                     0000000180000040     sl_groundvehicleDynamics_sfun.obj
 0000:00000040       _volmd                     0000000180000040     sl_groundvehicleDynamics_sfun_registry.obj
 0000:00000050       _volmd                     0000000180000050     c5_sl_groundvehicleDynamics.obj
 0000:00000050       _volmd                     0000000180000050     sl_groundvehicleDynamics_sfun.obj
 0000:00000050       _volmd                     0000000180000050     sl_groundvehicleDynamics_sfun_registry.obj
 0000:00000060       _volmd                     0000000180000060     c5_sl_groundvehicleDynamics.obj
 0000:00000060       _volmd                     0000000180000060     sl_groundvehicleDynamics_sfun_registry.obj
 0000:00000070       _volmd                     0000000180000070     c5_sl_groundvehicleDynamics.obj
 0000:00000070       _volmd                     0000000180000070     sl_groundvehicleDynamics_sfun_registry.obj
 0000:00000080       _volmd                     0000000180000080     c5_sl_groundvehicleDynamics.obj
 0000:00000080       _volmd                     0000000180000080     sl_groundvehicleDynamics_sfun_registry.obj
 0000:00000090       _volmd                     0000000180000090     c5_sl_groundvehicleDynamics.obj
 0000:00000090       _volmd                     0000000180000090     sl_groundvehicleDynamics_sfun_registry.obj
 0000:000000a0       _volmd                     00000001800000a0     c5_sl_groundvehicleDynamics.obj
 0000:000000a0       _volmd                     00000001800000a0     sl_groundvehicleDynamics_sfun_registry.obj
 0000:000000b0       _volmd                     00000001800000b0     c5_sl_groundvehicleDynamics.obj
 0000:000000b0       _volmd                     00000001800000b0     sl_groundvehicleDynamics_sfun_registry.obj
 0000:000000c0       _volmd                     00000001800000c0     c5_sl_groundvehicleDynamics.obj
 0000:000000c0       _volmd                     00000001800000c0     sl_groundvehicleDynamics_sfun_registry.obj
 0000:000000d0       _volmd                     00000001800000d0     c5_sl_groundvehicleDynamics.obj
 0000:000000d0       _volmd                     00000001800000d0     sl_groundvehicleDynamics_sfun_registry.obj
 0000:000000e0       _volmd                     00000001800000e0     c5_sl_groundvehicleDynamics.obj
 0000:000000e0       _volmd                     00000001800000e0     sl_groundvehicleDynamics_sfun_registry.obj
 0000:000000f0       _volmd                     00000001800000f0     c5_sl_groundvehicleDynamics.obj
 0000:000000f0       _volmd                     00000001800000f0     sl_groundvehicleDynamics_sfun_registry.obj
 0000:00000100       _volmd                     0000000180000100     c5_sl_groundvehicleDynamics.obj
 0000:00000100       _volmd                     0000000180000100     sl_groundvehicleDynamics_sfun_registry.obj
 0000:00000110       _volmd                     0000000180000110     c5_sl_groundvehicleDynamics.obj
 0000:00000120       _volmd                     0000000180000120     c5_sl_groundvehicleDynamics.obj
 0000:00000130       _volmd                     0000000180000130     c5_sl_groundvehicleDynamics.obj
 0000:00000140       _volmd                     0000000180000140     c5_sl_groundvehicleDynamics.obj
 0000:00000150       _volmd                     0000000180000150     c5_sl_groundvehicleDynamics.obj
 0000:00000160       _volmd                     0000000180000160     c5_sl_groundvehicleDynamics.obj
 0000:00000170       _volmd                     0000000180000170     c5_sl_groundvehicleDynamics.obj
 0000:00000180       _volmd                     0000000180000180     c5_sl_groundvehicleDynamics.obj
 0000:00000190       _volmd                     0000000180000190     c5_sl_groundvehicleDynamics.obj
 0000:000001a0       _volmd                     00000001800001a0     c5_sl_groundvehicleDynamics.obj
 0000:000001b0       _volmd                     00000001800001b0     c5_sl_groundvehicleDynamics.obj
 0000:000001c0       _volmd                     00000001800001c0     c5_sl_groundvehicleDynamics.obj
 0000:000001d0       _volmd                     00000001800001d0     c5_sl_groundvehicleDynamics.obj
 0000:000001e0       _volmd                     00000001800001e0     c5_sl_groundvehicleDynamics.obj
 0000:000001f0       _volmd                     00000001800001f0     c5_sl_groundvehicleDynamics.obj
 0000:00000200       _volmd                     0000000180000200     c5_sl_groundvehicleDynamics.obj
 0000:00000210       _volmd                     0000000180000210     c5_sl_groundvehicleDynamics.obj
 0000:00000220       _volmd                     0000000180000220     c5_sl_groundvehicleDynamics.obj
 0000:00000230       _volmd                     0000000180000230     c5_sl_groundvehicleDynamics.obj
 0000:00000240       _volmd                     0000000180000240     c5_sl_groundvehicleDynamics.obj
 0000:00000250       _volmd                     0000000180000250     c5_sl_groundvehicleDynamics.obj
 0000:00000260       _volmd                     0000000180000260     c5_sl_groundvehicleDynamics.obj
 0001:00001150       initialize_c5_sl_groundvehicleDynamics 0000000180002150 f   c5_sl_groundvehicleDynamics.obj
 0001:00001260       initialize_params_c5_sl_groundvehicleDynamics 0000000180002260 f   c5_sl_groundvehicleDynamics.obj
 0001:00001270       mdl_start_c5_sl_groundvehicleDynamics 0000000180002270 f   c5_sl_groundvehicleDynamics.obj
 0001:000012d0       mdl_terminate_c5_sl_groundvehicleDynamics 00000001800022d0 f   c5_sl_groundvehicleDynamics.obj
 0001:00001320       mdl_setup_runtime_resources_c5_sl_groundvehicleDynamics 0000000180002320 f   c5_sl_groundvehicleDynamics.obj
 0001:00001cc0       mdl_cleanup_runtime_resources_c5_sl_groundvehicleDynamics 0000000180002cc0 f   c5_sl_groundvehicleDynamics.obj
 0001:00001d00       enable_c5_sl_groundvehicleDynamics 0000000180002d00 f   c5_sl_groundvehicleDynamics.obj
 0001:00001d50       disable_c5_sl_groundvehicleDynamics 0000000180002d50 f   c5_sl_groundvehicleDynamics.obj
 0001:00001da0       sf_gateway_c5_sl_groundvehicleDynamics 0000000180002da0 f   c5_sl_groundvehicleDynamics.obj
 0001:000079f0       get_sim_state_c5_sl_groundvehicleDynamics 00000001800089f0 f   c5_sl_groundvehicleDynamics.obj
 0001:00008140       set_sim_state_c5_sl_groundvehicleDynamics 0000000180009140 f   c5_sl_groundvehicleDynamics.obj
 0001:00008660       c5_initialize_debuginfo_c5_sl_groundvehicleDynamics 0000000180009660 f   c5_sl_groundvehicleDynamics.obj
 0001:000089f0       c5_path_gen                00000001800099f0 f   c5_sl_groundvehicleDynamics.obj
 0001:00009d00       c5_binaryOccupancyMap_binaryOccupancyMap 000000018000ad00 f   c5_sl_groundvehicleDynamics.obj
 0001:0000a2c0       c5_binaryOccupancyMap_inflate 000000018000b2c0 f   c5_sl_groundvehicleDynamics.obj
 0001:0000bae0       c5_MapLayer_getValueAllImpl 000000018000cae0 f   c5_sl_groundvehicleDynamics.obj
 0001:0000c870       c5_allinrange              000000018000d870 f   c5_sl_groundvehicleDynamics.obj
 0001:0000c970       c5_MapInterface_world2grid 000000018000d970 f   c5_sl_groundvehicleDynamics.obj
 0001:0000ca30       c5_MapInterface_local2gridImpl 000000018000da30 f   c5_sl_groundvehicleDynamics.obj
 0001:0000d420       c5_b_MapInterface_world2grid 000000018000e420 f   c5_sl_groundvehicleDynamics.obj
 0001:0000d4f0       c5_plannerAStarGrid_plannerAStarGrid 000000018000e4f0 f   c5_sl_groundvehicleDynamics.obj
 0001:0000e240       c5_plannerAStarGrid_setInputState 000000018000f240 f   c5_sl_groundvehicleDynamics.obj
 0001:0000e7e0       c5_ind2sub                 000000018000f7e0 f   c5_sl_groundvehicleDynamics.obj
 0001:0000eb80       c5_validateAStarBuiltinCostFunction 000000018000fb80 f   c5_sl_groundvehicleDynamics.obj
 0001:0000f130       c5_plannerAStarGrid_plan   0000000180010130 f   c5_sl_groundvehicleDynamics.obj
 0001:00010f60       c5_plannerAStarGrid_validateStartGoal 0000000180011f60 f   c5_sl_groundvehicleDynamics.obj
 0001:00013410       c5_plannerAStarGrid_getNodeCostOMDefault 0000000180014410 f   c5_sl_groundvehicleDynamics.obj
 0001:000138b0       c5_plannerAStarGrid_initializeInternalPlanner 00000001800148b0 f   c5_sl_groundvehicleDynamics.obj
 0001:00013ff0       c5_b_plannerAStarGrid_plannerAStarGrid 0000000180014ff0 f   c5_sl_groundvehicleDynamics.obj
 0001:000144b0       c5_b_ind2sub               00000001800154b0 f   c5_sl_groundvehicleDynamics.obj
 0001:000146e0       c5_plannerAStarGrid_runPlan 00000001800156e0 f   c5_sl_groundvehicleDynamics.obj
 0001:0001a1e0       c5_plannerAStarGrid_getHeuristicMatrix 000000018001b1e0 f   c5_sl_groundvehicleDynamics.obj
 0001:0001b350       c5_plannerAStarGrid_Chebyshev 000000018001c350 f   c5_sl_groundvehicleDynamics.obj
 0001:0001b7d0       c5_plannerAStarGrid_Euclidean 000000018001c7d0 f   c5_sl_groundvehicleDynamics.obj
 0001:0001bb70       c5_sumColumnB              000000018001cb70 f   c5_sl_groundvehicleDynamics.obj
 0001:0001bbd0       c5_plannerAStarGrid_getNeighbors 000000018001cbd0 f   c5_sl_groundvehicleDynamics.obj
 0001:0001bd50       c5_plannerAStarGrid_reconstructPath 000000018001cd50 f   c5_sl_groundvehicleDynamics.obj
 0001:0001cdf0       c5_plannerAStarGrid_gcostValue 000000018001ddf0 f   c5_sl_groundvehicleDynamics.obj
 0001:0001dab0       c5_indexShapeCheck         000000018001eab0 f   c5_sl_groundvehicleDynamics.obj
 0001:0001dac0       c5_plannerAStarGrid_getEssentialOutput 000000018001eac0 f   c5_sl_groundvehicleDynamics.obj
 0001:0001f120       c5_warning                 0000000180020120 f   c5_sl_groundvehicleDynamics.obj
 0001:0001f2e0       c5_plannerAStarGrid_getPathOutput 00000001800202e0 f   c5_sl_groundvehicleDynamics.obj
 0001:000215c0       c5_MapInterface_grid2worldImpl 00000001800225c0 f   c5_sl_groundvehicleDynamics.obj
 0001:000217a0       c5_MapInterface_grid2localImpl 00000001800227a0 f   c5_sl_groundvehicleDynamics.obj
 0001:00022420       c5_MapInterface_local2worldImpl 0000000180023420 f   c5_sl_groundvehicleDynamics.obj
 0001:000225c0       c5_MapInterface_grid2world 00000001800235c0 f   c5_sl_groundvehicleDynamics.obj
 0001:000231b0       c5_b_MapInterface_grid2worldImpl 00000001800241b0 f   c5_sl_groundvehicleDynamics.obj
 0001:000233b0       c5_b_MapInterface_grid2localImpl 00000001800243b0 f   c5_sl_groundvehicleDynamics.obj
 0001:00024110       c5_b_path_gen              0000000180025110 f   c5_sl_groundvehicleDynamics.obj
 0001:00025440       c5_mod                     0000000180026440 f   c5_sl_groundvehicleDynamics.obj
 0001:00025550       c5_handle_matlabCodegenDestructor 0000000180026550 f   c5_sl_groundvehicleDynamics.obj
 0001:000255a0       c5_emlrt_marshallOut       00000001800265a0 f   c5_sl_groundvehicleDynamics.obj
 0001:00025630       c5_b_emlrt_marshallOut     0000000180026630 f   c5_sl_groundvehicleDynamics.obj
 0001:000256c0       c5_c_emlrt_marshallOut     00000001800266c0 f   c5_sl_groundvehicleDynamics.obj
 0001:00025750       c5_emlrt_marshallIn        0000000180026750 f   c5_sl_groundvehicleDynamics.obj
 0001:000257c0       c5_b_emlrt_marshallIn      00000001800267c0 f   c5_sl_groundvehicleDynamics.obj
 0001:000258c0       c5_c_emlrt_marshallIn      00000001800268c0 f   c5_sl_groundvehicleDynamics.obj
 0001:00025930       c5_d_emlrt_marshallIn      0000000180026930 f   c5_sl_groundvehicleDynamics.obj
 0001:000259c0       c5_e_emlrt_marshallIn      00000001800269c0 f   c5_sl_groundvehicleDynamics.obj
 0001:00025a40       c5_f_emlrt_marshallIn      0000000180026a40 f   c5_sl_groundvehicleDynamics.obj
 0001:00025b00       c5_g_emlrt_marshallIn      0000000180026b00 f   c5_sl_groundvehicleDynamics.obj
 0001:00025b80       c5_h_emlrt_marshallIn      0000000180026b80 f   c5_sl_groundvehicleDynamics.obj
 0001:00025db0       c5_sf_marshallOut_real_T_persistent 0000000180026db0 f   c5_sl_groundvehicleDynamics.obj
 0001:00025ed0       c5_sf_marshallIn_real_T_persistent 0000000180026ed0 f   c5_sl_groundvehicleDynamics.obj
 0001:00025f90       c5_sf_marshallOut_dynamicmatrix_persistent 0000000180026f90 f   c5_sl_groundvehicleDynamics.obj
 0001:000261c0       c5_sf_marshallIn_dynamicmatrix_persistent 00000001800271c0 f   c5_sl_groundvehicleDynamics.obj
 0001:00026390       c5_sf_marshallOut_matrix4_real_T 0000000180027390 f   c5_sl_groundvehicleDynamics.obj
 0001:000264a0       c5_i_emlrt_marshallIn      00000001800274a0 f   c5_sl_groundvehicleDynamics.obj
 0001:00026590       c5_sf_marshallIn_matrix4_real_T 0000000180027590 f   c5_sl_groundvehicleDynamics.obj
 0001:00026690       c5_sf_marshallOut_matrix410x520_boolean_T 0000000180027690 f   c5_sl_groundvehicleDynamics.obj
 0001:000267e0       c5_j_emlrt_marshallIn      00000001800277e0 f   c5_sl_groundvehicleDynamics.obj
 0001:000268d0       c5_sf_marshallIn_matrix410x520_boolean_T 00000001800278d0 f   c5_sl_groundvehicleDynamics.obj
 0001:00026a10       c5_sf_marshallOut_real_T_1 0000000180027a10 f   c5_sl_groundvehicleDynamics.obj
 0001:00026ac0       c5_sf_marshallIn_real_T_1  0000000180027ac0 f   c5_sl_groundvehicleDynamics.obj
 0001:00026b70       c5_sf_marshallOut_matrix1x2_real_T 0000000180027b70 f   c5_sl_groundvehicleDynamics.obj
 0001:00026c70       c5_k_emlrt_marshallIn      0000000180027c70 f   c5_sl_groundvehicleDynamics.obj
 0001:00026d50       c5_sf_marshallIn_matrix1x2_real_T 0000000180027d50 f   c5_sl_groundvehicleDynamics.obj
 0001:00026e30       c5_sf_marshallOut_s_Y7g3XIg0UrmNkIXtokcBk 0000000180027e30 f   c5_sl_groundvehicleDynamics.obj
 0001:000271c0       c5_l_emlrt_marshallIn      00000001800281c0 f   c5_sl_groundvehicleDynamics.obj
 0001:00027310       c5_m_emlrt_marshallIn      0000000180028310 f   c5_sl_groundvehicleDynamics.obj
 0001:000274e0       c5_sf_marshallIn_s_Y7g3XIg0UrmNkIXtokcBk 00000001800284e0 f   c5_sl_groundvehicleDynamics.obj
 0001:00027630       c5_sf_marshallOut_dynamicmatrix_1 0000000180028630 f   c5_sl_groundvehicleDynamics.obj
 0001:00027850       c5_n_emlrt_marshallIn      0000000180028850 f   c5_sl_groundvehicleDynamics.obj
 0001:00027ab0       c5_sf_marshallIn_dynamicmatrix_1 0000000180028ab0 f   c5_sl_groundvehicleDynamics.obj
 0001:00027cf0       c5_sf_marshallOut_dynamicmatrix_2 0000000180028cf0 f   c5_sl_groundvehicleDynamics.obj
 0001:00027ee0       c5_o_emlrt_marshallIn      0000000180028ee0 f   c5_sl_groundvehicleDynamics.obj
 0001:00028130       c5_sf_marshallIn_dynamicmatrix_2 0000000180029130 f   c5_sl_groundvehicleDynamics.obj
 0001:00028350       c5_chart_data_browse_helper 0000000180029350 f   c5_sl_groundvehicleDynamics.obj
 0001:00028748       $LN15                      0000000180029748     c5_sl_groundvehicleDynamics.obj
 0001:000287b0       c5_hold                    00000001800297b0 f   c5_sl_groundvehicleDynamics.obj
 0001:00028840       c5_plot                    0000000180029840 f   c5_sl_groundvehicleDynamics.obj
 0001:00028940       c5_b_hold                  0000000180029940 f   c5_sl_groundvehicleDynamics.obj
 0001:000289d0       c5_b_plot                  00000001800299d0 f   c5_sl_groundvehicleDynamics.obj
 0001:00028ad0       c5_sprintf                 0000000180029ad0 f   c5_sl_groundvehicleDynamics.obj
 0001:00028ba0       c5_feval                   0000000180029ba0 f   c5_sl_groundvehicleDynamics.obj
 0001:00028c70       c5_b_feval                 0000000180029c70 f   c5_sl_groundvehicleDynamics.obj
 0001:00028d10       c5_b_sqrt                  0000000180029d10 f   c5_sl_groundvehicleDynamics.obj
 0001:00028f90       c5_or                      0000000180029f90 f   c5_sl_groundvehicleDynamics.obj
 0001:00029210       c5_array_real_T_SetSize    000000018002a210 f   c5_sl_groundvehicleDynamics.obj
 0001:00029390       c5_array_real_T_2D_SetSize 000000018002a390 f   c5_sl_groundvehicleDynamics.obj
 0001:00029550       c5_array_int32_T_SetSize   000000018002a550 f   c5_sl_groundvehicleDynamics.obj
 0001:000296d0       c5_array_real_T_Constructor 000000018002a6d0 f   c5_sl_groundvehicleDynamics.obj
 0001:00029730       c5_array_real_T_Destructor 000000018002a730 f   c5_sl_groundvehicleDynamics.obj
 0001:00029770       c5_array_s_Y7g3XIg0UrmNkIXtokcBk_C 000000018002a770 f   c5_sl_groundvehicleDynamics.obj
 0001:000297c0       c5_array_s_Y7g3XIg0UrmNkIXtokcBk_D 000000018002a7c0 f   c5_sl_groundvehicleDynamics.obj
 0001:00029810       c5_array_real_T_2D_Constructor 000000018002a810 f   c5_sl_groundvehicleDynamics.obj
 0001:00029880       c5_array_real_T_2D_Destructor 000000018002a880 f   c5_sl_groundvehicleDynamics.obj
 0001:000298c0       c5_array_int32_T_Constructor 000000018002a8c0 f   c5_sl_groundvehicleDynamics.obj
 0001:00029920       c5_array_int32_T_Destructor 000000018002a920 f   c5_sl_groundvehicleDynamics.obj
 0001:00029960       c5_array_cell_wrap_36_2s_Construct 000000018002a960 f   c5_sl_groundvehicleDynamics.obj
 0001:000299c0       c5_array_cell_wrap_36_Constructor 000000018002a9c0 f   c5_sl_groundvehicleDynamics.obj
 0001:000299f0       c5_array_cell_wrap_36_2s_Destructo 000000018002a9f0 f   c5_sl_groundvehicleDynamics.obj
 0001:00029a50       c5_array_cell_wrap_36_Destructor 000000018002aa50 f   c5_sl_groundvehicleDynamics.obj
 0001:00029a80       c5_b_array_s_Y7g3XIg0UrmNkIXtokcBk_C 000000018002aa80 f   c5_sl_groundvehicleDynamics.obj
 0001:00029b00       c5_array_real_T_Copy       000000018002ab00 f   c5_sl_groundvehicleDynamics.obj
 0001:00029ba0       c5_div_nzp_s32             000000018002aba0 f   c5_sl_groundvehicleDynamics.obj
 0001:00029c80       c5_div_s32_ndbzs           000000018002ac80 f   c5_sl_groundvehicleDynamics.obj
 0001:00029d90       init_dsm_address_info      000000018002ad90 f   c5_sl_groundvehicleDynamics.obj
 0001:00029da0       init_simulink_io_address   000000018002ada0 f   c5_sl_groundvehicleDynamics.obj
 0001:0002a120       sf_get_sim_state_info_c5_sl_groundvehicleDynamics 000000018002b120 f   c5_sl_groundvehicleDynamics.obj
 0001:0002a1e0       sf_opaque_initialize_c5_sl_groundvehicleDynamics 000000018002b1e0 f   c5_sl_groundvehicleDynamics.obj
 0001:0002a210       sf_opaque_enable_c5_sl_groundvehicleDynamics 000000018002b210 f   c5_sl_groundvehicleDynamics.obj
 0001:0002a230       sf_opaque_disable_c5_sl_groundvehicleDynamics 000000018002b230 f   c5_sl_groundvehicleDynamics.obj
 0001:0002a250       sf_opaque_gateway_c5_sl_groundvehicleDynamics 000000018002b250 f   c5_sl_groundvehicleDynamics.obj
 0001:0002a270       sf_opaque_get_sim_state_c5_sl_groundvehicleDynamics 000000018002b270 f   c5_sl_groundvehicleDynamics.obj
 0001:0002a2a0       sf_opaque_set_sim_state_c5_sl_groundvehicleDynamics 000000018002b2a0 f   c5_sl_groundvehicleDynamics.obj
 0001:0002a2d0       sf_opaque_cleanup_runtime_resources_c5_sl_groundvehicleDynamics 000000018002b2d0 f   c5_sl_groundvehicleDynamics.obj
 0001:0002a370       sf_opaque_mdl_start_c5_sl_groundvehicleDynamics 000000018002b370 f   c5_sl_groundvehicleDynamics.obj
 0001:0002a3b0       sf_opaque_mdl_terminate_c5_sl_groundvehicleDynamics 000000018002b3b0 f   c5_sl_groundvehicleDynamics.obj
 0001:0002a3d0       mdlProcessParameters_c5_sl_groundvehicleDynamics 000000018002b3d0 f   c5_sl_groundvehicleDynamics.obj
 0001:0002a650       mdlSetWorkWidths_c5_sl_groundvehicleDynamics 000000018002b650 f   c5_sl_groundvehicleDynamics.obj
 0001:0002a6e0       mdlRTW_c5_sl_groundvehicleDynamics 000000018002b6e0 f   c5_sl_groundvehicleDynamics.obj
 0001:0002a720       mdlSetupRuntimeResources_c5_sl_groundvehicleDynamics 000000018002b720 f   c5_sl_groundvehicleDynamics.obj
 0001:0002d1d4       $LN197                     000000018002e1d4     sl_groundvehicleDynamics_sfun_registry.obj
 0001:0002e034       $LN22                      000000018002f034     sl_groundvehicleDynamics_sfun_registry.obj
 0001:0002e734       $LN26                      000000018002f734     sl_groundvehicleDynamics_sfun_registry.obj
 0001:0002ee14       $LN24                      000000018002fe14     sl_groundvehicleDynamics_sfun_registry.obj
 0001:0002fb4c       $LN30                      0000000180030b4c     sl_groundvehicleDynamics_sfun_registry.obj
 0001:00033160       ProcessMexSfunctionCmdLineCall 0000000180034160 f   sl_groundvehicleDynamics_sfun_registry.obj
 0001:00033410       mdlSetWorkWidths           0000000180034410 f   sl_groundvehicleDynamics_sfun_registry.obj
 0001:00033460       mdlProcessParameters       0000000180034460 f   sl_groundvehicleDynamics_sfun_registry.obj
 0001:00033490       mdl_setup_runtime_resources_processing 0000000180034490 f   sl_groundvehicleDynamics_sfun_registry.obj
 0001:000334f0       mdlSetupRuntimeResources   00000001800344f0 f   sl_groundvehicleDynamics_sfun_registry.obj
 0001:00033520       mdl_cleanup_runtime_resources_processing 0000000180034520 f   sl_groundvehicleDynamics_sfun_registry.obj
 0001:000335e0       mdlCleanupRuntimeResources 00000001800345e0 f   sl_groundvehicleDynamics_sfun_registry.obj
 0001:00033610       mdl_start_processing       0000000180034610 f   sl_groundvehicleDynamics_sfun_registry.obj
 0001:00033650       mdlStart                   0000000180034650 f   sl_groundvehicleDynamics_sfun_registry.obj
 0001:00033680       mdl_terminate_processing   0000000180034680 f   sl_groundvehicleDynamics_sfun_registry.obj
 0001:000336c0       mdlTerminate               00000001800346c0 f   sl_groundvehicleDynamics_sfun_registry.obj
 0001:000336f0       mdlInitializeSizes         00000001800346f0 f   sl_groundvehicleDynamics_sfun_registry.obj
 0001:00033720       mdlInitializeSampleTimes   0000000180034720 f   sl_groundvehicleDynamics_sfun_registry.obj
 0001:00033750       mdl_outputs_continuous_legacy 0000000180034750 f   sl_groundvehicleDynamics_sfun_registry.obj
 0001:00033850       mdl_outputs_processing     0000000180034850 f   sl_groundvehicleDynamics_sfun_registry.obj
 0001:00033990       mdl_zeroCrossings_processing 0000000180034990 f   sl_groundvehicleDynamics_sfun_registry.obj
 0001:000339d0       mdlZeroCrossings           00000001800349d0 f   sl_groundvehicleDynamics_sfun_registry.obj
 0001:00033a00       mdl_derivatives_processing 0000000180034a00 f   sl_groundvehicleDynamics_sfun_registry.obj
 0001:00033a50       mdlDerivatives             0000000180034a50 f   sl_groundvehicleDynamics_sfun_registry.obj
 0001:00033a80       mdl_initialize_conditions_processing 0000000180034a80 f   sl_groundvehicleDynamics_sfun_registry.obj
 0001:00033ad0       mdlInitializeConditions    0000000180034ad0 f   sl_groundvehicleDynamics_sfun_registry.obj
 0001:00033b00       mdl_ext_mode_exec_processing 0000000180034b00 f   sl_groundvehicleDynamics_sfun_registry.obj
 0001:00033b40       mdlExtModeExec             0000000180034b40 f   sl_groundvehicleDynamics_sfun_registry.obj
 0001:00033b70       mdlRTW                     0000000180034b70 f   sl_groundvehicleDynamics_sfun_registry.obj
 0001:00033bb0       mdl_enable_processing      0000000180034bb0 f   sl_groundvehicleDynamics_sfun_registry.obj
 0001:00033bf0       mdlEnable                  0000000180034bf0 f   sl_groundvehicleDynamics_sfun_registry.obj
 0001:00033c20       mdl_disable_processing     0000000180034c20 f   sl_groundvehicleDynamics_sfun_registry.obj
 0001:00033c60       mdlDisable                 0000000180034c60 f   sl_groundvehicleDynamics_sfun_registry.obj
 0001:00033c90       mdlOutputs                 0000000180034c90 f   sl_groundvehicleDynamics_sfun_registry.obj
 0001:00033cc0       mdl_update_processing      0000000180034cc0 f   sl_groundvehicleDynamics_sfun_registry.obj
 0001:00033d10       mdlUpdate                  0000000180034d10 f   sl_groundvehicleDynamics_sfun_registry.obj
 0001:00033f00       mdlGetTimeOfNextVarHit     0000000180034f00 f   sl_groundvehicleDynamics_sfun_registry.obj
 0001:00033f50       _RegNumInputPortsCB        0000000180034f50 f   sl_groundvehicleDynamics_sfun_registry.obj
 0001:00033fd0       _RegNumOutputPortsCB       0000000180034fd0 f   sl_groundvehicleDynamics_sfun_registry.obj
 0001:00034050       _CreateSimStruct           0000000180035050 f   sl_groundvehicleDynamics_sfun_registry.obj
 0001:00034280       _ProcessMexSfunctionCmdLineCall 0000000180035280 f   sl_groundvehicleDynamics_sfun_registry.obj
 0001:00034cf0       ReportIndexOutOfBoundsError 0000000180035cf0 f   sl_groundvehicleDynamics_sfun_registry.obj
 0001:00041b7c       capture_current_context    0000000180042b7c f   MSVCRT:gs_report.obj
 0001:00041bec       capture_previous_context   0000000180042bec f   MSVCRT:gs_report.obj
 0001:00041ce0       $$000000                   0000000180042ce0     MSVCRT:amdsecgs.obj
 0001:00041d10       $$000000                   0000000180042d10     MSVCRT:chkstk.obj
 0001:00041dec       ?dllmain_crt_dispatch@@YAHQEAUHINSTANCE__@@KQEAX@Z 0000000180042dec f   MSVCRT:dll_dllmain.obj
 0001:00041e3c       ?dllmain_crt_process_attach@@YAHQEAUHINSTANCE__@@QEAX@Z 0000000180042e3c f   MSVCRT:dll_dllmain.obj
 0001:00041f54       ?dllmain_crt_process_detach@@YAH_N@Z 0000000180042f54 f   MSVCRT:dll_dllmain.obj
 0001:00041fd4       ?dllmain_dispatch@@YAHQEAUHINSTANCE__@@KQEAX@Z 0000000180042fd4 f   MSVCRT:dll_dllmain.obj
 0001:00042108       ?dllmain_raw@@YAHQEAUHINSTANCE__@@KQEAX@Z 0000000180043108 f   MSVCRT:dll_dllmain.obj
 0001:000421d4       __get_entropy              00000001800431d4 f   MSVCRT:gs_support.obj
 0001:00042364       ?find_pe_section@@YAPEAU_IMAGE_SECTION_HEADER@@QEAE_K@Z 0000000180043364 f   MSVCRT:utility.obj
 0001:000423b8       ?is_potentially_valid_image_base@@YA_NQEAX@Z 00000001800433b8 f   MSVCRT:utility.obj
 0001:00042ae4       __castguard_check_failure_os_handled_wrapper 0000000180043ae4 f   MSVCRT:guard_support.obj
 0001:00042b34       __castguard_check_failure_user_handled_wrapper 0000000180043b34 f   MSVCRT:guard_support.obj
 0001:00042b50       __castguard_compat_check   0000000180043b50 f   MSVCRT:guard_support.obj
 0001:00042c8c       __castguard_slow_path_compat_check 0000000180043c8c f   MSVCRT:guard_support.obj
 0001:00042ff0       $$000000                   0000000180043ff0     MSVCRT:guard_dispatch.obj
 0001:00043010       $$000000                   0000000180044010     MSVCRT:guard_xfg_dispatch.obj
 0001:00043030       priorityqueuecodegen_constructPQ$dtor$0 0000000180044030 f   priorityqueue_api.obj
 0001:0004304d       priorityqueuecodegen_constructNodeMap$dtor$0 000000018004404d f   priorityqueue_api.obj
 0001:0004306a       priorityqueuecodegen_constructSimpleMap$dtor$0 000000018004406a f   priorityqueue_api.obj
 0001:00043090       ?dtor$0@?0???$?0AEBUpiecewise_construct_t@std@@V?$tuple@AEBH@1@V?$tuple@$$V@1@@?$_List_node_emplace_op2@V?$allocator@U?$_List_node@U?$pair@$$CBHH@std@@PEAX@std@@@std@@@std@@QEAA@AEAV?$allocator@U?$_List_node@U?$pair@$$CBHH@std@@PEAX@std@@@1@AEBUpiecewise_construct_t@1@$$QEAV?$tuple@AEBH@1@$$QEAV?$tuple@$$V@1@@Z@4HA 0000000180044090 f   priorityqueue_api.obj
 0001:000430b0       ?dtor$0@?0???$?0AEBUpiecewise_construct_t@std@@V?$tuple@AEBH@1@V?$tuple@$$V@1@@?$_List_node_emplace_op2@V?$allocator@U?$_List_node@U?$pair@$$CBHV?$vector@NV?$allocator@N@std@@@std@@@std@@PEAX@std@@@std@@@std@@QEAA@AEAV?$allocator@U?$_List_node@U?$pair@$$CBHV?$vector@NV?$allocator@N@std@@@std@@@std@@PEAX@std@@@1@AEBUpiecewise_construct_t@1@$$QEAV?$tuple@AEBH@1@$$QEAV?$tuple@$$V@1@@Z@4HA 00000001800440b0 f   priorityqueue_api.obj
 0001:000430d0       ?dtor$0@?0???$_Construct_n@AEBN@?$vector@NV?$allocator@N@std@@@std@@AEAAX_KAEBN@Z@4HA 00000001800440d0 f   priorityqueue_api.obj
 0001:000430f0       ?dtor$0@?0???$_Construct_n@AEBQEANAEBQEAN@?$vector@NV?$allocator@N@std@@@std@@AEAAX_KAEBQEAN1@Z@4HA 00000001800440f0 f   priorityqueue_api.obj
 0001:00043110       ?dtor$0@?0???$_Construct_n@PEBNPEBN@?$vector@NV?$allocator@N@std@@@std@@AEAAX_K$$QEAPEBN1@Z@4HA 0000000180044110 f   priorityqueue_api.obj
 0001:00043130       ?catch$0@?0???$_Emplace_reallocate@AEAHV?$vector@NV?$allocator@N@std@@@std@@@?$vector@U?$pair@HV?$vector@NV?$allocator@N@std@@@std@@@std@@V?$allocator@U?$pair@HV?$vector@NV?$allocator@N@std@@@std@@@std@@@2@@std@@AEAAPEAU?$pair@HV?$vector@NV?$allocator@N@std@@@std@@@1@QEAU21@AEAH$$QEAV?$vector@NV?$allocator@N@std@@@1@@Z@4HA 0000000180044130 f   priorityqueue_api.obj
 0001:0004313d       __catch$??$_Emplace_reallocate@AEAHV?$vector@NV?$allocator@N@std@@@std@@@?$vector@U?$pair@HV?$vector@NV?$allocator@N@std@@@std@@@std@@V?$allocator@U?$pair@HV?$vector@NV?$allocator@N@std@@@std@@@std@@@2@@std@@AEAAPEAU?$pair@HV?$vector@NV?$allocator@N@std@@@std@@@1@QEAU21@AEAH$$QEAV?$vector@NV?$allocator@N@std@@@1@@Z$0 000000018004413d f   priorityqueue_api.obj
 0001:00043180       ?catch$0@?0???$_Emplace_reallocate@AEBHN@?$vector@V?$vector@NV?$allocator@N@std@@@std@@V?$allocator@V?$vector@NV?$allocator@N@std@@@std@@@2@@std@@AEAAPEAV?$vector@NV?$allocator@N@std@@@1@QEAV21@AEBH$$QEAN@Z@4HA 0000000180044180 f   priorityqueue_api.obj
 0001:0004318d       __catch$??$_Emplace_reallocate@AEBHN@?$vector@V?$vector@NV?$allocator@N@std@@@std@@V?$allocator@V?$vector@NV?$allocator@N@std@@@std@@@2@@std@@AEAAPEAV?$vector@NV?$allocator@N@std@@@1@QEAV21@AEBH$$QEAN@Z$0 000000018004418d f   priorityqueue_api.obj
 0001:000431d0       ?catch$0@?0???$_Emplace_reallocate@AEBV?$vector@NV?$allocator@N@std@@@std@@@?$vector@V?$vector@NV?$allocator@N@std@@@std@@V?$allocator@V?$vector@NV?$allocator@N@std@@@std@@@2@@std@@AEAAPEAV?$vector@NV?$allocator@N@std@@@1@QEAV21@AEBV21@@Z@4HA 00000001800441d0 f   priorityqueue_api.obj
 0001:000431dd       __catch$??$_Emplace_reallocate@AEBV?$vector@NV?$allocator@N@std@@@std@@@?$vector@V?$vector@NV?$allocator@N@std@@@std@@V?$allocator@V?$vector@NV?$allocator@N@std@@@std@@@2@@std@@AEAAPEAV?$vector@NV?$allocator@N@std@@@1@QEAV21@AEBV21@@Z$0 00000001800441dd f   priorityqueue_api.obj
 0001:00043220       ?dtor$0@?0???$_Pop_heap_unchecked@PEAU?$pair@HV?$vector@NV?$allocator@N@std@@@std@@@std@@Ucomparator@PriorityQueueImpl@nav@@@std@@YAXPEAU?$pair@HV?$vector@NV?$allocator@N@std@@@std@@@0@0Ucomparator@PriorityQueueImpl@nav@@@Z@4HA 0000000180044220 f   priorityqueue_api.obj
 0001:00043240       ?dtor$0@?0???$_Try_emplace@AEBH$$V@?$_Hash@V?$_Umap_traits@HHV?$_Uhash_compare@HU?$hash@H@std@@U?$equal_to@H@2@@std@@V?$allocator@U?$pair@$$CBHH@std@@@2@$0A@@std@@@std@@IEAA?AU?$pair@PEAU?$_List_node@U?$pair@$$CBHH@std@@PEAX@std@@_N@1@AEBH@Z@4HA 0000000180044240 f   priorityqueue_api.obj
 0001:00043260       ?dtor$0@?0???$_Try_emplace@AEBH$$V@?$_Hash@V?$_Umap_traits@HV?$vector@NV?$allocator@N@std@@@std@@V?$_Uhash_compare@HU?$hash@H@std@@U?$equal_to@H@2@@2@V?$allocator@U?$pair@$$CBHV?$vector@NV?$allocator@N@std@@@std@@@std@@@2@$0A@@std@@@std@@IEAA?AU?$pair@PEAU?$_List_node@U?$pair@$$CBHV?$vector@NV?$allocator@N@std@@@std@@@std@@PEAX@std@@_N@1@AEBH@Z@4HA 0000000180044260 f   priorityqueue_api.obj
 0001:00043280       ?dtor$0@?0???$_Uninitialized_copy@PEANPEANV?$allocator@N@std@@@std@@YAPEANPEAN00AEAV?$allocator@N@0@@Z@4HA 0000000180044280 f   priorityqueue_api.obj
 0001:000432a0       ?dtor$0@?0???$_Uninitialized_copy@PEBNPEBNV?$allocator@N@std@@@std@@YAPEANPEBN0PEANAEAV?$allocator@N@0@@Z@4HA 00000001800442a0 f   priorityqueue_api.obj
 0001:000432c0       ?dtor$0@?0???$_Uninitialized_fill_n@V?$allocator@N@std@@@std@@YAPEANPEAN_KAEBNAEAV?$allocator@N@0@@Z@4HA 00000001800442c0 f   priorityqueue_api.obj
 0001:000432e0       ?dtor$0@?0???$_Uninitialized_move@PEAU?$pair@HV?$vector@NV?$allocator@N@std@@@std@@@std@@V?$allocator@U?$pair@HV?$vector@NV?$allocator@N@std@@@std@@@std@@@2@@std@@YAPEAU?$pair@HV?$vector@NV?$allocator@N@std@@@std@@@0@QEAU10@0PEAU10@AEAV?$allocator@U?$pair@HV?$vector@NV?$allocator@N@std@@@std@@@std@@@0@@Z@4HA 00000001800442e0 f   priorityqueue_api.obj
 0001:00043300       ?dtor$0@?0???$_Uninitialized_move@PEAV?$vector@NV?$allocator@N@std@@@std@@V?$allocator@V?$vector@NV?$allocator@N@std@@@std@@@2@@std@@YAPEAV?$vector@NV?$allocator@N@std@@@0@QEAV10@0PEAV10@AEAV?$allocator@V?$vector@NV?$allocator@N@std@@@std@@@0@@Z@4HA 0000000180044300 f   priorityqueue_api.obj
 0001:00043320       ?dtor$0@?0???$push_heap@V?$_Vector_iterator@V?$_Vector_val@U?$_Simple_types@U?$pair@HV?$vector@NV?$allocator@N@std@@@std@@@std@@@std@@@std@@@std@@Ucomparator@PriorityQueueImpl@nav@@@std@@YAXV?$_Vector_iterator@V?$_Vector_val@U?$_Simple_types@U?$pair@HV?$vector@NV?$allocator@N@std@@@std@@@std@@@std@@@std@@@0@0Ucomparator@PriorityQueueImpl@nav@@@Z@4HA 0000000180044320 f   priorityqueue_api.obj
 0001:00043340       ?dtor$0@?0???$uninitialized_fill@PEAV?$_List_unchecked_iterator@V?$_List_val@U?$_List_simple_types@U?$pair@$$CBHH@std@@@std@@@std@@@std@@V12@@std@@YAXQEAV?$_List_unchecked_iterator@V?$_List_val@U?$_List_simple_types@U?$pair@$$CBHH@std@@@std@@@std@@@0@0AEBV10@@Z@4HA 0000000180044340 f   priorityqueue_api.obj
 0001:00043360       ?dtor$0@?0???$uninitialized_fill@PEAV?$_List_unchecked_iterator@V?$_List_val@U?$_List_simple_types@U?$pair@$$CBHV?$vector@NV?$allocator@N@std@@@std@@@std@@@std@@@std@@@std@@V12@@std@@YAXQEAV?$_List_unchecked_iterator@V?$_List_val@U?$_List_simple_types@U?$pair@$$CBHV?$vector@NV?$allocator@N@std@@@std@@@std@@@std@@@std@@@0@0AEBV10@@Z@4HA 0000000180044360 f   priorityqueue_api.obj
 0001:00043380       ?dtor$0@?0???0?$_Hash@V?$_Umap_traits@HHV?$_Uhash_compare@HU?$hash@H@std@@U?$equal_to@H@2@@std@@V?$allocator@U?$pair@$$CBHH@std@@@2@$0A@@std@@@std@@IEAA@AEBV?$_Uhash_compare@HU?$hash@H@std@@U?$equal_to@H@2@@1@AEBV?$allocator@U?$pair@$$CBHH@std@@@1@@Z@4HA 0000000180044380 f   priorityqueue_api.obj
 0001:000433a0       ?dtor$1@?0???0?$_Hash@V?$_Umap_traits@HHV?$_Uhash_compare@HU?$hash@H@std@@U?$equal_to@H@2@@std@@V?$allocator@U?$pair@$$CBHH@std@@@2@$0A@@std@@@std@@IEAA@AEBV?$_Uhash_compare@HU?$hash@H@std@@U?$equal_to@H@2@@1@AEBV?$allocator@U?$pair@$$CBHH@std@@@1@@Z@4HA 00000001800443a0 f   priorityqueue_api.obj
 0001:000433c0       ?dtor$0@?0???0?$_Hash@V?$_Umap_traits@HV?$vector@NV?$allocator@N@std@@@std@@V?$_Uhash_compare@HU?$hash@H@std@@U?$equal_to@H@2@@2@V?$allocator@U?$pair@$$CBHV?$vector@NV?$allocator@N@std@@@std@@@std@@@2@$0A@@std@@@std@@IEAA@AEBV?$_Uhash_compare@HU?$hash@H@std@@U?$equal_to@H@2@@1@AEBV?$allocator@U?$pair@$$CBHV?$vector@NV?$allocator@N@std@@@std@@@std@@@1@@Z@4HA 00000001800443c0 f   priorityqueue_api.obj
 0001:000433e0       ?dtor$1@?0???0?$_Hash@V?$_Umap_traits@HV?$vector@NV?$allocator@N@std@@@std@@V?$_Uhash_compare@HU?$hash@H@std@@U?$equal_to@H@2@@2@V?$allocator@U?$pair@$$CBHV?$vector@NV?$allocator@N@std@@@std@@@std@@@2@$0A@@std@@@std@@IEAA@AEBV?$_Uhash_compare@HU?$hash@H@std@@U?$equal_to@H@2@@1@AEBV?$allocator@U?$pair@$$CBHV?$vector@NV?$allocator@N@std@@@std@@@std@@@1@@Z@4HA 00000001800443e0 f   priorityqueue_api.obj
 0001:00043400       ?dtor$0@?0???0?$priority_queue@U?$pair@HV?$vector@NV?$allocator@N@std@@@std@@@std@@V?$vector@U?$pair@HV?$vector@NV?$allocator@N@std@@@std@@@std@@V?$allocator@U?$pair@HV?$vector@NV?$allocator@N@std@@@std@@@std@@@2@@2@Ucomparator@PriorityQueueImpl@nav@@@std@@QEAA@XZ@4HA 0000000180044400 f   priorityqueue_api.obj
 0001:00043420       ?dtor$0@?0???0NodeMap@nav@@QEAA@H@Z@4HA 0000000180044420 f   priorityqueue_api.obj
 0001:00043440       ?dtor$1@?0???0NodeMap@nav@@QEAA@H@Z@4HA 0000000180044440 f   priorityqueue_api.obj
 0001:00043460       ?dtor$0@?0???0PriorityQueueImpl@nav@@QEAA@HH@Z@4HA 0000000180044460 f   priorityqueue_api.obj
 0001:00043480       ?dtor$0@?0???0SimpleMap@nav@@QEAA@H@Z@4HA 0000000180044480 f   priorityqueue_api.obj
 0001:000434a0       ?dtor$0@?0??insertData@SimpleMap@nav@@QEAAXHPEBN@Z@4HA 00000001800444a0 f   priorityqueue_api.obj
 0001:000434c0       ?dtor$0@?0??insertNode@NodeMap@nav@@QEAAHPEBNH@Z@4HA 00000001800444c0 f   priorityqueue_api.obj
 0001:000434e0       ?dtor$0@?0??push@PriorityQueueImpl@nav@@QEAAHPEBN@Z@4HA 00000001800444e0 f   priorityqueue_api.obj
 0001:00043500       ?dtor$0@?0??traceBack@NodeMap@nav@@QEAA?AV?$vector@V?$vector@NV?$allocator@N@std@@@std@@V?$allocator@V?$vector@NV?$allocator@N@std@@@std@@@2@@std@@H@Z@4HA 0000000180044500 f   priorityqueue_api.obj
 0001:00043518       ?fin$0@?0??dllmain_crt_process_attach@@YAHQEAUHINSTANCE__@@QEAX@Z@4HA 0000000180044518 f   MSVCRT:dll_dllmain.obj
 0001:0004352f       ?fin$0@?0??dllmain_crt_process_detach@@YAH_N@Z@4HA 000000018004452f f   MSVCRT:dll_dllmain.obj
 0001:00043548       ?fin$1@?0??dllmain_crt_process_detach@@YAH_N@Z@4HA 0000000180044548 f   MSVCRT:dll_dllmain.obj
 0001:0004355c       ?filt$0@?0??dllmain_dispatch@@YAHQEAUHINSTANCE__@@KQEAX@Z@4HA 000000018004455c f   MSVCRT:dll_dllmain.obj
 0001:00043592       __scrt_is_nonwritable_in_current_image$filt$0 0000000180044592 f   MSVCRT:utility.obj
 0002:00000710       ?c5_b_postfixPredicateTree@?1??mdl_setup_runtime_resources_c5_sl_groundvehicleDynamics@@9@9 0000000180045710     c5_sl_groundvehicleDynamics.obj
 0002:0000071c       ?c5_decisionTxtEndIdx@?1??mdl_setup_runtime_resources_c5_sl_groundvehicleDynamics@@9@9 000000018004571c     c5_sl_groundvehicleDynamics.obj
 0002:00000720       ?c5_postfixPredicateTree@?1??mdl_setup_runtime_resources_c5_sl_groundvehicleDynamics@@9@9 0000000180045720     c5_sl_groundvehicleDynamics.obj
 0002:0000072c       ?c5_decisionTxtStartIdx@?1??mdl_setup_runtime_resources_c5_sl_groundvehicleDynamics@@9@9 000000018004572c     c5_sl_groundvehicleDynamics.obj
 0002:00000730       ?c5_b_condTxtEndIdx@?1??mdl_setup_runtime_resources_c5_sl_groundvehicleDynamics@@9@9 0000000180045730     c5_sl_groundvehicleDynamics.obj
 0002:00000738       ?c5_b_condTxtStartIdx@?1??mdl_setup_runtime_resources_c5_sl_groundvehicleDynamics@@9@9 0000000180045738     c5_sl_groundvehicleDynamics.obj
 0002:00000740       ?c5_condTxtEndIdx@?1??mdl_setup_runtime_resources_c5_sl_groundvehicleDynamics@@9@9 0000000180045740     c5_sl_groundvehicleDynamics.obj
 0002:00000748       ?c5_condTxtStartIdx@?1??mdl_setup_runtime_resources_c5_sl_groundvehicleDynamics@@9@9 0000000180045748     c5_sl_groundvehicleDynamics.obj
 0002:00000880       ?piecewise_construct@std@@3Upiecewise_construct_t@1@B 0000000180045880     priorityqueue_api.obj
 0002:00000881       ?_Fake_alloc@std@@3U_Fake_allocator@1@B 0000000180045881     priorityqueue_api.obj
 0002:00000a80       GS_ExceptionPointers       0000000180045a80     MSVCRT:gs_report.obj
 0002:000014f8       $unwind$load_sl_groundvehicleDynamics_optimization_info 00000001800464f8     sl_groundvehicleDynamics_sfun.obj
 0002:00001500       $unwind$unload_sl_groundvehicleDynamics_optimization_info 0000000180046500     sl_groundvehicleDynamics_sfun.obj
 0002:00001508       $unwind$sf_sl_groundvehicleDynamics_method_dispatcher 0000000180046508     sl_groundvehicleDynamics_sfun.obj
 0002:00001510       $unwind$sf_sl_groundvehicleDynamics_process_check_sum_call 0000000180046510     sl_groundvehicleDynamics_sfun.obj
 0002:00001520       $unwind$sf_sl_groundvehicleDynamics_get_eml_resolved_functions_info 0000000180046520     sl_groundvehicleDynamics_sfun.obj
 0002:00001530       $unwind$sf_sl_groundvehicleDynamics_third_party_uses_info 0000000180046530     sl_groundvehicleDynamics_sfun.obj
 0002:00001540       $unwind$sf_sl_groundvehicleDynamics_jit_fallback_info 0000000180046540     sl_groundvehicleDynamics_sfun.obj
 0002:00001550       $unwind$sf_sl_groundvehicleDynamics_get_post_codegen_info 0000000180046550     sl_groundvehicleDynamics_sfun.obj
 0002:00001560       $unwind$sf_sl_groundvehicleDynamics_updateBuildInfo_args_info 0000000180046560     sl_groundvehicleDynamics_sfun.obj
 0002:00001570       $unwind$sf_c5_sl_groundvehicleDynamics_get_eml_resolved_functions_info 0000000180046570     c5_sl_groundvehicleDynamics.obj
 0002:00001580       $unwind$sf_c5_sl_groundvehicleDynamics_get_check_sum 0000000180046580     c5_sl_groundvehicleDynamics.obj
 0002:00001588       $unwind$c5_sl_groundvehicleDynamics_method_dispatcher 0000000180046588     c5_sl_groundvehicleDynamics.obj
 0002:00001590       $unwind$initialize_c5_sl_groundvehicleDynamics 0000000180046590     c5_sl_groundvehicleDynamics.obj
 0002:00001598       $unwind$mdl_start_c5_sl_groundvehicleDynamics 0000000180046598     c5_sl_groundvehicleDynamics.obj
 0002:000015a0       $unwind$mdl_terminate_c5_sl_groundvehicleDynamics 00000001800465a0     c5_sl_groundvehicleDynamics.obj
 0002:000015a8       $unwind$mdl_setup_runtime_resources_c5_sl_groundvehicleDynamics 00000001800465a8     c5_sl_groundvehicleDynamics.obj
 0002:000015b0       $unwind$mdl_cleanup_runtime_resources_c5_sl_groundvehicleDynamics 00000001800465b0     c5_sl_groundvehicleDynamics.obj
 0002:000015b8       $unwind$enable_c5_sl_groundvehicleDynamics 00000001800465b8     c5_sl_groundvehicleDynamics.obj
 0002:000015c0       $unwind$disable_c5_sl_groundvehicleDynamics 00000001800465c0     c5_sl_groundvehicleDynamics.obj
 0002:000015c8       $unwind$sf_gateway_c5_sl_groundvehicleDynamics 00000001800465c8     c5_sl_groundvehicleDynamics.obj
 0002:000015d8       $unwind$get_sim_state_c5_sl_groundvehicleDynamics 00000001800465d8     c5_sl_groundvehicleDynamics.obj
 0002:000015e0       $unwind$set_sim_state_c5_sl_groundvehicleDynamics 00000001800465e0     c5_sl_groundvehicleDynamics.obj
 0002:000015f0       $unwind$c5_initialize_debuginfo_c5_sl_groundvehicleDynamics 00000001800465f0     c5_sl_groundvehicleDynamics.obj
 0002:00001600       $unwind$c5_path_gen        0000000180046600     c5_sl_groundvehicleDynamics.obj
 0002:00001610       $unwind$c5_binaryOccupancyMap_binaryOccupancyMap 0000000180046610     c5_sl_groundvehicleDynamics.obj
 0002:00001618       $unwind$c5_binaryOccupancyMap_inflate 0000000180046618     c5_sl_groundvehicleDynamics.obj
 0002:00001628       $unwind$c5_MapLayer_getValueAllImpl 0000000180046628     c5_sl_groundvehicleDynamics.obj
 0002:00001630       $unwind$c5_allinrange      0000000180046630     c5_sl_groundvehicleDynamics.obj
 0002:00001638       $unwind$c5_MapInterface_world2grid 0000000180046638     c5_sl_groundvehicleDynamics.obj
 0002:00001640       $unwind$c5_MapInterface_local2gridImpl 0000000180046640     c5_sl_groundvehicleDynamics.obj
 0002:00001650       $unwind$c5_b_MapInterface_world2grid 0000000180046650     c5_sl_groundvehicleDynamics.obj
 0002:00001658       $unwind$c5_plannerAStarGrid_plannerAStarGrid 0000000180046658     c5_sl_groundvehicleDynamics.obj
 0002:00001668       $unwind$c5_plannerAStarGrid_setInputState 0000000180046668     c5_sl_groundvehicleDynamics.obj
 0002:00001670       $unwind$c5_ind2sub         0000000180046670     c5_sl_groundvehicleDynamics.obj
 0002:00001678       $unwind$c5_validateAStarBuiltinCostFunction 0000000180046678     c5_sl_groundvehicleDynamics.obj
 0002:0000168c       $unwind$c5_plannerAStarGrid_plan 000000018004668c     c5_sl_groundvehicleDynamics.obj
 0002:00001694       $unwind$c5_plannerAStarGrid_validateStartGoal 0000000180046694     c5_sl_groundvehicleDynamics.obj
 0002:000016a4       $unwind$c5_plannerAStarGrid_getNodeCostOMDefault 00000001800466a4     c5_sl_groundvehicleDynamics.obj
 0002:000016ac       $unwind$c5_plannerAStarGrid_initializeInternalPlanner 00000001800466ac     c5_sl_groundvehicleDynamics.obj
 0002:000016b4       $unwind$c5_b_plannerAStarGrid_plannerAStarGrid 00000001800466b4     c5_sl_groundvehicleDynamics.obj
 0002:000016bc       $unwind$c5_b_ind2sub       00000001800466bc     c5_sl_groundvehicleDynamics.obj
 0002:000016c4       $unwind$c5_plannerAStarGrid_runPlan 00000001800466c4     c5_sl_groundvehicleDynamics.obj
 0002:000016d4       $unwind$c5_plannerAStarGrid_getHeuristicMatrix 00000001800466d4     c5_sl_groundvehicleDynamics.obj
 0002:000016dc       $unwind$c5_plannerAStarGrid_Chebyshev 00000001800466dc     c5_sl_groundvehicleDynamics.obj
 0002:000016e4       $unwind$c5_plannerAStarGrid_Euclidean 00000001800466e4     c5_sl_groundvehicleDynamics.obj
 0002:000016ec       $unwind$c5_sumColumnB      00000001800466ec     c5_sl_groundvehicleDynamics.obj
 0002:000016f4       $unwind$c5_plannerAStarGrid_getNeighbors 00000001800466f4     c5_sl_groundvehicleDynamics.obj
 0002:000016fc       $unwind$c5_plannerAStarGrid_reconstructPath 00000001800466fc     c5_sl_groundvehicleDynamics.obj
 0002:0000170c       $unwind$c5_plannerAStarGrid_gcostValue 000000018004670c     c5_sl_groundvehicleDynamics.obj
 0002:00001714       $unwind$c5_plannerAStarGrid_getEssentialOutput 0000000180046714     c5_sl_groundvehicleDynamics.obj
 0002:00001724       $unwind$c5_warning         0000000180046724     c5_sl_groundvehicleDynamics.obj
 0002:0000172c       $unwind$c5_plannerAStarGrid_getPathOutput 000000018004672c     c5_sl_groundvehicleDynamics.obj
 0002:0000173c       $unwind$c5_MapInterface_grid2worldImpl 000000018004673c     c5_sl_groundvehicleDynamics.obj
 0002:0000174c       $unwind$c5_MapInterface_grid2localImpl 000000018004674c     c5_sl_groundvehicleDynamics.obj
 0002:0000175c       $unwind$c5_MapInterface_local2worldImpl 000000018004675c     c5_sl_groundvehicleDynamics.obj
 0002:00001764       $unwind$c5_MapInterface_grid2world 0000000180046764     c5_sl_groundvehicleDynamics.obj
 0002:00001774       $unwind$c5_b_MapInterface_grid2worldImpl 0000000180046774     c5_sl_groundvehicleDynamics.obj
 0002:00001784       $unwind$c5_b_MapInterface_grid2localImpl 0000000180046784     c5_sl_groundvehicleDynamics.obj
 0002:00001794       $unwind$c5_b_path_gen      0000000180046794     c5_sl_groundvehicleDynamics.obj
 0002:000017a4       $unwind$c5_mod             00000001800467a4     c5_sl_groundvehicleDynamics.obj
 0002:000017ac       $unwind$c5_handle_matlabCodegenDestructor 00000001800467ac     c5_sl_groundvehicleDynamics.obj
 0002:000017b4       $unwind$c5_emlrt_marshallOut 00000001800467b4     c5_sl_groundvehicleDynamics.obj
 0002:000017bc       $unwind$c5_b_emlrt_marshallOut 00000001800467bc     c5_sl_groundvehicleDynamics.obj
 0002:000017c4       $unwind$c5_c_emlrt_marshallOut 00000001800467c4     c5_sl_groundvehicleDynamics.obj
 0002:000017cc       $unwind$c5_emlrt_marshallIn 00000001800467cc     c5_sl_groundvehicleDynamics.obj
 0002:000017d4       $unwind$c5_b_emlrt_marshallIn 00000001800467d4     c5_sl_groundvehicleDynamics.obj
 0002:000017e4       $unwind$c5_c_emlrt_marshallIn 00000001800467e4     c5_sl_groundvehicleDynamics.obj
 0002:000017ec       $unwind$c5_d_emlrt_marshallIn 00000001800467ec     c5_sl_groundvehicleDynamics.obj
 0002:000017f4       $unwind$c5_e_emlrt_marshallIn 00000001800467f4     c5_sl_groundvehicleDynamics.obj
 0002:000017fc       $unwind$c5_f_emlrt_marshallIn 00000001800467fc     c5_sl_groundvehicleDynamics.obj
 0002:00001804       $unwind$c5_g_emlrt_marshallIn 0000000180046804     c5_sl_groundvehicleDynamics.obj
 0002:0000180c       $unwind$c5_h_emlrt_marshallIn 000000018004680c     c5_sl_groundvehicleDynamics.obj
 0002:0000181c       $unwind$c5_sf_marshallOut_real_T_persistent 000000018004681c     c5_sl_groundvehicleDynamics.obj
 0002:00001824       $unwind$c5_sf_marshallIn_real_T_persistent 0000000180046824     c5_sl_groundvehicleDynamics.obj
 0002:0000182c       $unwind$c5_sf_marshallOut_dynamicmatrix_persistent 000000018004682c     c5_sl_groundvehicleDynamics.obj
 0002:0000183c       $unwind$c5_sf_marshallIn_dynamicmatrix_persistent 000000018004683c     c5_sl_groundvehicleDynamics.obj
 0002:0000184c       $unwind$c5_sf_marshallOut_matrix4_real_T 000000018004684c     c5_sl_groundvehicleDynamics.obj
 0002:0000185c       $unwind$c5_i_emlrt_marshallIn 000000018004685c     c5_sl_groundvehicleDynamics.obj
 0002:0000186c       $unwind$c5_sf_marshallIn_matrix4_real_T 000000018004686c     c5_sl_groundvehicleDynamics.obj
 0002:0000187c       $unwind$c5_sf_marshallOut_matrix410x520_boolean_T 000000018004687c     c5_sl_groundvehicleDynamics.obj
 0002:00001884       $unwind$c5_j_emlrt_marshallIn 0000000180046884     c5_sl_groundvehicleDynamics.obj
 0002:0000188c       $unwind$c5_sf_marshallIn_matrix410x520_boolean_T 000000018004688c     c5_sl_groundvehicleDynamics.obj
 0002:00001894       $unwind$c5_sf_marshallOut_real_T_1 0000000180046894     c5_sl_groundvehicleDynamics.obj
 0002:0000189c       $unwind$c5_sf_marshallIn_real_T_1 000000018004689c     c5_sl_groundvehicleDynamics.obj
 0002:000018a4       $unwind$c5_sf_marshallOut_matrix1x2_real_T 00000001800468a4     c5_sl_groundvehicleDynamics.obj
 0002:000018ac       $unwind$c5_k_emlrt_marshallIn 00000001800468ac     c5_sl_groundvehicleDynamics.obj
 0002:000018b4       $unwind$c5_sf_marshallIn_matrix1x2_real_T 00000001800468b4     c5_sl_groundvehicleDynamics.obj
 0002:000018bc       $unwind$c5_sf_marshallOut_s_Y7g3XIg0UrmNkIXtokcBk 00000001800468bc     c5_sl_groundvehicleDynamics.obj
 0002:000018cc       $unwind$c5_l_emlrt_marshallIn 00000001800468cc     c5_sl_groundvehicleDynamics.obj
 0002:000018d4       $unwind$c5_m_emlrt_marshallIn 00000001800468d4     c5_sl_groundvehicleDynamics.obj
 0002:000018e4       $unwind$c5_sf_marshallIn_s_Y7g3XIg0UrmNkIXtokcBk 00000001800468e4     c5_sl_groundvehicleDynamics.obj
 0002:000018f4       $unwind$c5_sf_marshallOut_dynamicmatrix_1 00000001800468f4     c5_sl_groundvehicleDynamics.obj
 0002:00001904       $unwind$c5_n_emlrt_marshallIn 0000000180046904     c5_sl_groundvehicleDynamics.obj
 0002:00001914       $unwind$c5_sf_marshallIn_dynamicmatrix_1 0000000180046914     c5_sl_groundvehicleDynamics.obj
 0002:00001924       $unwind$c5_sf_marshallOut_dynamicmatrix_2 0000000180046924     c5_sl_groundvehicleDynamics.obj
 0002:00001934       $unwind$c5_o_emlrt_marshallIn 0000000180046934     c5_sl_groundvehicleDynamics.obj
 0002:00001944       $unwind$c5_sf_marshallIn_dynamicmatrix_2 0000000180046944     c5_sl_groundvehicleDynamics.obj
 0002:00001954       $unwind$c5_chart_data_browse_helper 0000000180046954     c5_sl_groundvehicleDynamics.obj
 0002:0000195c       $unwind$c5_hold            000000018004695c     c5_sl_groundvehicleDynamics.obj
 0002:00001964       $unwind$c5_plot            0000000180046964     c5_sl_groundvehicleDynamics.obj
 0002:0000196c       $unwind$c5_b_hold          000000018004696c     c5_sl_groundvehicleDynamics.obj
 0002:00001974       $unwind$c5_b_plot          0000000180046974     c5_sl_groundvehicleDynamics.obj
 0002:0000197c       $unwind$c5_sprintf         000000018004697c     c5_sl_groundvehicleDynamics.obj
 0002:00001984       $unwind$c5_feval           0000000180046984     c5_sl_groundvehicleDynamics.obj
 0002:0000198c       $unwind$c5_b_feval         000000018004698c     c5_sl_groundvehicleDynamics.obj
 0002:00001994       $unwind$c5_b_sqrt          0000000180046994     c5_sl_groundvehicleDynamics.obj
 0002:0000199c       $unwind$c5_or              000000018004699c     c5_sl_groundvehicleDynamics.obj
 0002:000019ac       $unwind$c5_array_real_T_SetSize 00000001800469ac     c5_sl_groundvehicleDynamics.obj
 0002:000019b4       $unwind$c5_array_real_T_2D_SetSize 00000001800469b4     c5_sl_groundvehicleDynamics.obj
 0002:000019bc       $unwind$c5_array_int32_T_SetSize 00000001800469bc     c5_sl_groundvehicleDynamics.obj
 0002:000019c4       $unwind$c5_array_real_T_Destructor 00000001800469c4     c5_sl_groundvehicleDynamics.obj
 0002:000019cc       $unwind$c5_array_s_Y7g3XIg0UrmNkIXtokcBk_C 00000001800469cc     c5_sl_groundvehicleDynamics.obj
 0002:000019d4       $unwind$c5_array_s_Y7g3XIg0UrmNkIXtokcBk_D 00000001800469d4     c5_sl_groundvehicleDynamics.obj
 0002:000019dc       $unwind$c5_array_real_T_2D_Destructor 00000001800469dc     c5_sl_groundvehicleDynamics.obj
 0002:000019e4       $unwind$c5_array_int32_T_Destructor 00000001800469e4     c5_sl_groundvehicleDynamics.obj
 0002:000019ec       $unwind$c5_array_cell_wrap_36_2s_Construct 00000001800469ec     c5_sl_groundvehicleDynamics.obj
 0002:000019f4       $unwind$c5_array_cell_wrap_36_Constructor 00000001800469f4     c5_sl_groundvehicleDynamics.obj
 0002:000019fc       $unwind$c5_array_cell_wrap_36_2s_Destructo 00000001800469fc     c5_sl_groundvehicleDynamics.obj
 0002:00001a04       $unwind$c5_array_cell_wrap_36_Destructor 0000000180046a04     c5_sl_groundvehicleDynamics.obj
 0002:00001a0c       $unwind$c5_b_array_s_Y7g3XIg0UrmNkIXtokcBk_C 0000000180046a0c     c5_sl_groundvehicleDynamics.obj
 0002:00001a14       $unwind$c5_array_real_T_Copy 0000000180046a14     c5_sl_groundvehicleDynamics.obj
 0002:00001a1c       $unwind$c5_div_nzp_s32     0000000180046a1c     c5_sl_groundvehicleDynamics.obj
 0002:00001a24       $unwind$c5_div_s32_ndbzs   0000000180046a24     c5_sl_groundvehicleDynamics.obj
 0002:00001a2c       $unwind$init_simulink_io_address 0000000180046a2c     c5_sl_groundvehicleDynamics.obj
 0002:00001a34       $unwind$sf_c5_sl_groundvehicleDynamics_third_party_uses_info 0000000180046a34     c5_sl_groundvehicleDynamics.obj
 0002:00001a3c       $unwind$sf_c5_sl_groundvehicleDynamics_jit_fallback_info 0000000180046a3c     c5_sl_groundvehicleDynamics.obj
 0002:00001a4c       $unwind$sf_c5_sl_groundvehicleDynamics_updateBuildInfo_args_info 0000000180046a4c     c5_sl_groundvehicleDynamics.obj
 0002:00001a54       $unwind$sf_get_sim_state_info_c5_sl_groundvehicleDynamics 0000000180046a54     c5_sl_groundvehicleDynamics.obj
 0002:00001a5c       $unwind$sf_opaque_initialize_c5_sl_groundvehicleDynamics 0000000180046a5c     c5_sl_groundvehicleDynamics.obj
 0002:00001a64       $unwind$sf_opaque_enable_c5_sl_groundvehicleDynamics 0000000180046a64     c5_sl_groundvehicleDynamics.obj
 0002:00001a6c       $unwind$sf_opaque_disable_c5_sl_groundvehicleDynamics 0000000180046a6c     c5_sl_groundvehicleDynamics.obj
 0002:00001a74       $unwind$sf_opaque_gateway_c5_sl_groundvehicleDynamics 0000000180046a74     c5_sl_groundvehicleDynamics.obj
 0002:00001a7c       $unwind$sf_opaque_get_sim_state_c5_sl_groundvehicleDynamics 0000000180046a7c     c5_sl_groundvehicleDynamics.obj
 0002:00001a84       $unwind$sf_opaque_set_sim_state_c5_sl_groundvehicleDynamics 0000000180046a84     c5_sl_groundvehicleDynamics.obj
 0002:00001a8c       $unwind$sf_opaque_cleanup_runtime_resources_c5_sl_groundvehicleDynamics 0000000180046a8c     c5_sl_groundvehicleDynamics.obj
 0002:00001a94       $unwind$sf_opaque_mdl_start_c5_sl_groundvehicleDynamics 0000000180046a94     c5_sl_groundvehicleDynamics.obj
 0002:00001a9c       $unwind$sf_opaque_mdl_terminate_c5_sl_groundvehicleDynamics 0000000180046a9c     c5_sl_groundvehicleDynamics.obj
 0002:00001aa4       $unwind$mdlProcessParameters_c5_sl_groundvehicleDynamics 0000000180046aa4     c5_sl_groundvehicleDynamics.obj
 0002:00001aac       $unwind$sf_c5_sl_groundvehicleDynamics_get_post_codegen_info 0000000180046aac     c5_sl_groundvehicleDynamics.obj
 0002:00001abc       $unwind$mdlSetWorkWidths_c5_sl_groundvehicleDynamics 0000000180046abc     c5_sl_groundvehicleDynamics.obj
 0002:00001ac4       $unwind$mdlRTW_c5_sl_groundvehicleDynamics 0000000180046ac4     c5_sl_groundvehicleDynamics.obj
 0002:00001acc       $unwind$mdlSetupRuntimeResources_c5_sl_groundvehicleDynamics 0000000180046acc     c5_sl_groundvehicleDynamics.obj
 0002:00001ad4       $unwind$_vsnprintf_l       0000000180046ad4     sl_groundvehicleDynamics_sfun_registry.obj
 0002:00001adc       $unwind$_vsprintf_l        0000000180046adc     sl_groundvehicleDynamics_sfun_registry.obj
 0002:00001ae4       $unwind$sprintf            0000000180046ae4     sl_groundvehicleDynamics_sfun_registry.obj
 0002:00001aec       $unwind$mexFunction        0000000180046aec     sl_groundvehicleDynamics_sfun_registry.obj
 0002:00001afc       $unwind$_ssSetInputPortDirectFeedThroughFcn 0000000180046afc     sl_groundvehicleDynamics_sfun_registry.obj
 0002:00001b0c       $unwind$_ssSetRWorkValueFcn 0000000180046b0c     sl_groundvehicleDynamics_sfun_registry.obj
 0002:00001b14       $unwind$_ssGetRWorkValueFcn 0000000180046b14     sl_groundvehicleDynamics_sfun_registry.obj
 0002:00001b1c       $unwind$_ssSetIWorkValueFcn 0000000180046b1c     sl_groundvehicleDynamics_sfun_registry.obj
 0002:00001b24       $unwind$_ssGetIWorkValueFcn 0000000180046b24     sl_groundvehicleDynamics_sfun_registry.obj
 0002:00001b2c       $unwind$_ssSetPWorkValueFcn 0000000180046b2c     sl_groundvehicleDynamics_sfun_registry.obj
 0002:00001b34       $unwind$_ssGetPWorkValueFcn 0000000180046b34     sl_groundvehicleDynamics_sfun_registry.obj
 0002:00001b3c       $unwind$_ssGetInputPortSignalFcn 0000000180046b3c     sl_groundvehicleDynamics_sfun_registry.obj
 0002:00001b4c       $unwind$_ssGetInputPortBufferDstPortFcn 0000000180046b4c     sl_groundvehicleDynamics_sfun_registry.obj
 0002:00001b54       $unwind$_ssGetInputPortSignalPtrsFcn 0000000180046b54     sl_groundvehicleDynamics_sfun_registry.obj
 0002:00001b64       $unwind$ssGetParameterTuningCompliance 0000000180046b64     sl_groundvehicleDynamics_sfun_registry.obj
 0002:00001b6c       $unwind$_ssReadInputStringFcn 0000000180046b6c     sl_groundvehicleDynamics_sfun_registry.obj
 0002:00001b74       $unwind$ssGetDTypeIdFromMxArray 0000000180046b74     sl_groundvehicleDynamics_sfun_registry.obj
 0002:00001b7c       $unwind$ssWriteRTWMx2dMatParam 0000000180046b7c     sl_groundvehicleDynamics_sfun_registry.obj
 0002:00001b84       $unwind$ssWriteRTWMxVectParam 0000000180046b84     sl_groundvehicleDynamics_sfun_registry.obj
 0002:00001b8c       $unwind$ssWriteRTWParameters 0000000180046b8c     sl_groundvehicleDynamics_sfun_registry.obj
 0002:00001b94       $unwind$ssWriteRTWParamSettings 0000000180046b94     sl_groundvehicleDynamics_sfun_registry.obj
 0002:00001b9c       $unwind$ssWriteRTWStr      0000000180046b9c     sl_groundvehicleDynamics_sfun_registry.obj
 0002:00001ba4       $unwind$ssWriteRTWWorkVect 0000000180046ba4     sl_groundvehicleDynamics_sfun_registry.obj
 0002:00001bb8       $unwind$ssWarning          0000000180046bb8     sl_groundvehicleDynamics_sfun_registry.obj
 0002:00001bcc       $unwind$ssGetRootSS        0000000180046bcc     sl_groundvehicleDynamics_sfun_registry.obj
 0002:00001bd4       $unwind$ssGetParentSS      0000000180046bd4     sl_groundvehicleDynamics_sfun_registry.obj
 0002:00001bdc       $unwind$ssWriteRTWNameValuePair 0000000180046bdc     sl_groundvehicleDynamics_sfun_registry.obj
 0002:00001be4       $unwind$_ssSetInputPortMatrixDimensions 0000000180046be4     sl_groundvehicleDynamics_sfun_registry.obj
 0002:00001bf0       $unwind$_ssSetOutputPortMatrixDimensions 0000000180046bf0     sl_groundvehicleDynamics_sfun_registry.obj
 0002:00001bfc       $unwind$_ssSetInputPortVectorDimension 0000000180046bfc     sl_groundvehicleDynamics_sfun_registry.obj
 0002:00001c08       $unwind$_ssSetOutputPortVectorDimension 0000000180046c08     sl_groundvehicleDynamics_sfun_registry.obj
 0002:00001c14       $unwind$ssIsRunTimeParamTunable 0000000180046c14     sl_groundvehicleDynamics_sfun_registry.obj
 0002:00001c1c       $unwind$ssGetSFuncBlockHandle 0000000180046c1c     sl_groundvehicleDynamics_sfun_registry.obj
 0002:00001c24       $unwind$_ssGetCallSystemNumFcnCallDestinations 0000000180046c24     sl_groundvehicleDynamics_sfun_registry.obj
 0002:00001c2c       $unwind$_ssGetCurrentInputPortWidth 0000000180046c2c     sl_groundvehicleDynamics_sfun_registry.obj
 0002:00001c34       $unwind$_ssGetCurrentOutputPortWidth 0000000180046c34     sl_groundvehicleDynamics_sfun_registry.obj
 0002:00001c3c       $unwind$ssGetIsZeroCrossControlDisabled 0000000180046c3c     sl_groundvehicleDynamics_sfun_registry.obj
 0002:00001c44       $unwind$ssSetIsInputPortUsedForContZcSignal 0000000180046c44     sl_groundvehicleDynamics_sfun_registry.obj
 0002:00001c4c       $unwind$ssSetZcSignalIsZcElementDisc 0000000180046c4c     sl_groundvehicleDynamics_sfun_registry.obj
 0002:00001c5c       $unwind$ssSetZcSignalName  0000000180046c5c     sl_groundvehicleDynamics_sfun_registry.obj
 0002:00001c64       $unwind$ssSetZcSignalWidth 0000000180046c64     sl_groundvehicleDynamics_sfun_registry.obj
 0002:00001c6c       $unwind$ssSetZcSignalZcEventType 0000000180046c6c     sl_groundvehicleDynamics_sfun_registry.obj
 0002:00001c74       $unwind$ssSetZcSignalType  0000000180046c74     sl_groundvehicleDynamics_sfun_registry.obj
 0002:00001c7c       $unwind$ssSetZcSignalZcTol 0000000180046c7c     sl_groundvehicleDynamics_sfun_registry.obj
 0002:00001c84       $unwind$ssSetZcSignalNeedsEventNotification 0000000180046c84     sl_groundvehicleDynamics_sfun_registry.obj
 0002:00001c8c       $unwind$ssCreateAndAddZcSignalInfo 0000000180046c8c     sl_groundvehicleDynamics_sfun_registry.obj
 0002:00001c94       $unwind$ssCloneAndAddZcSignalInfo 0000000180046c94     sl_groundvehicleDynamics_sfun_registry.obj
 0002:00001c9c       $unwind$ssGetNumZcSignals  0000000180046c9c     sl_groundvehicleDynamics_sfun_registry.obj
 0002:00001ca4       $unwind$ssGetZcSignalVector 0000000180046ca4     sl_groundvehicleDynamics_sfun_registry.obj
 0002:00001cac       $unwind$ssGetZcSignalName  0000000180046cac     sl_groundvehicleDynamics_sfun_registry.obj
 0002:00001cb4       $unwind$ssGetZcSignalWidth 0000000180046cb4     sl_groundvehicleDynamics_sfun_registry.obj
 0002:00001cbc       $unwind$ssGetZcSignalZcEventType 0000000180046cbc     sl_groundvehicleDynamics_sfun_registry.obj
 0002:00001cc4       $unwind$ssGetZcSignalZcEvents 0000000180046cc4     sl_groundvehicleDynamics_sfun_registry.obj
 0002:00001ccc       $unwind$ssGetZcSignalType  0000000180046ccc     sl_groundvehicleDynamics_sfun_registry.obj
 0002:00001cd4       $unwind$ssGetZcSignalZcTol 0000000180046cd4     sl_groundvehicleDynamics_sfun_registry.obj
 0002:00001cdc       $unwind$ssGetZcSignalNeedsEventNotification 0000000180046cdc     sl_groundvehicleDynamics_sfun_registry.obj
 0002:00001ce4       $unwind$ssGetZcSignalIsZcElementDisc 0000000180046ce4     sl_groundvehicleDynamics_sfun_registry.obj
 0002:00001cf4       $unwind$ssGetIsInputPortElementContinuous 0000000180046cf4     sl_groundvehicleDynamics_sfun_registry.obj
 0002:00001d04       $unwind$_ssGetAbsTol       0000000180046d04     sl_groundvehicleDynamics_sfun_registry.obj
 0002:00001d0c       $unwind$_ssSetInputPortReusableFcn 0000000180046d0c     sl_groundvehicleDynamics_sfun_registry.obj
 0002:00001d14       $unwind$_ssSetOutputPortReusableFcn 0000000180046d14     sl_groundvehicleDynamics_sfun_registry.obj
 0002:00001d1c       $unwind$_ssSetSymbolicDimsSupport 0000000180046d1c     sl_groundvehicleDynamics_sfun_registry.obj
 0002:00001d24       $unwind$_ssRegisterSymbolicDimsExpr 0000000180046d24     sl_groundvehicleDynamics_sfun_registry.obj
 0002:00001d2c       $unwind$_ssRegisterSymbolicDimsMATLABExpr 0000000180046d2c     sl_groundvehicleDynamics_sfun_registry.obj
 0002:00001d34       $unwind$_ssRegisterSymbolicDims 0000000180046d34     sl_groundvehicleDynamics_sfun_registry.obj
 0002:00001d3c       $unwind$_ssRegisterSymbolicDimsString 0000000180046d3c     sl_groundvehicleDynamics_sfun_registry.obj
 0002:00001d44       $unwind$_ssRegisterSymbolicDimsIntValue 0000000180046d44     sl_groundvehicleDynamics_sfun_registry.obj
 0002:00001d4c       $unwind$_ssRegisterSymbolicEqualRelation 0000000180046d4c     sl_groundvehicleDynamics_sfun_registry.obj
 0002:00001d54       $unwind$_ssRegisterSymbolicEqualValue 0000000180046d54     sl_groundvehicleDynamics_sfun_registry.obj
 0002:00001d5c       $unwind$_ssAmendLeadingSymbolicDims 0000000180046d5c     sl_groundvehicleDynamics_sfun_registry.obj
 0002:00001d64       $unwind$_ssAmendTrailingSymbolicDims 0000000180046d64     sl_groundvehicleDynamics_sfun_registry.obj
 0002:00001d6c       $unwind$_ssRegisterSymbolicDimsPlus 0000000180046d6c     sl_groundvehicleDynamics_sfun_registry.obj
 0002:00001d74       $unwind$_ssRegisterSymbolicDimsMinus 0000000180046d74     sl_groundvehicleDynamics_sfun_registry.obj
 0002:00001d7c       $unwind$_ssRegisterSymbolicDimsMultiply 0000000180046d7c     sl_groundvehicleDynamics_sfun_registry.obj
 0002:00001d84       $unwind$_ssRegisterSymbolicDimsDivide 0000000180046d84     sl_groundvehicleDynamics_sfun_registry.obj
 0002:00001d8c       $unwind$_ssGetNumSymbolicDims 0000000180046d8c     sl_groundvehicleDynamics_sfun_registry.obj
 0002:00001d94       $unwind$_ssGetSymbolicDim  0000000180046d94     sl_groundvehicleDynamics_sfun_registry.obj
 0002:00001d9c       $unwind$_ssSetInputPortSymbolicDimsId 0000000180046d9c     sl_groundvehicleDynamics_sfun_registry.obj
 0002:00001da4       $unwind$_ssGetCompInputPortSymbolicDimsId 0000000180046da4     sl_groundvehicleDynamics_sfun_registry.obj
 0002:00001dac       $unwind$_ssSetCompInputPortSymbolicDimsId 0000000180046dac     sl_groundvehicleDynamics_sfun_registry.obj
 0002:00001db4       $unwind$_ssSetOutputPortSymbolicDimsId 0000000180046db4     sl_groundvehicleDynamics_sfun_registry.obj
 0002:00001dbc       $unwind$_ssGetCompOutputPortSymbolicDimsId 0000000180046dbc     sl_groundvehicleDynamics_sfun_registry.obj
 0002:00001dc4       $unwind$_ssSetCompOutputPortSymbolicDimsId 0000000180046dc4     sl_groundvehicleDynamics_sfun_registry.obj
 0002:00001dcc       $unwind$_ssGetDWorkSymbolicDimsId 0000000180046dcc     sl_groundvehicleDynamics_sfun_registry.obj
 0002:00001dd4       $unwind$_ssSetDWorkSymbolicDimsId 0000000180046dd4     sl_groundvehicleDynamics_sfun_registry.obj
 0002:00001ddc       $unwind$_ssGetCompDWorkSymbolicDimsId 0000000180046ddc     sl_groundvehicleDynamics_sfun_registry.obj
 0002:00001de4       $unwind$_ssSetCompDWorkSymbolicDimsId 0000000180046de4     sl_groundvehicleDynamics_sfun_registry.obj
 0002:00001dec       $unwind$_ssCreateSLCGStringBuffer 0000000180046dec     sl_groundvehicleDynamics_sfun_registry.obj
 0002:00001df4       $unwind$_ssAddToSLCGStringBuffer 0000000180046df4     sl_groundvehicleDynamics_sfun_registry.obj
 0002:00001dfc       $unwind$_ssGetPointerContainedData 0000000180046dfc     sl_groundvehicleDynamics_sfun_registry.obj
 0002:00001e04       $unwind$_ssGetPointerContainedDataWidth 0000000180046e04     sl_groundvehicleDynamics_sfun_registry.obj
 0002:00001e0c       $unwind$_ssRegisterDynamicArrayDataTypeFcn 0000000180046e0c     sl_groundvehicleDynamics_sfun_registry.obj
 0002:00001e14       $unwind$_ssGetDynamicArrayContainedDataCurrentWidthFcn 0000000180046e14     sl_groundvehicleDynamics_sfun_registry.obj
 0002:00001e1c       $unwind$_ssGetDynamicArrayContainedDataFcn 0000000180046e1c     sl_groundvehicleDynamics_sfun_registry.obj
 0002:00001e24       $unwind$_ssGetInputPortDynamicArrayDataFcn 0000000180046e24     sl_groundvehicleDynamics_sfun_registry.obj
 0002:00001e2c       $unwind$_ssGetOutputPortDynamicArrayDataFcn 0000000180046e2c     sl_groundvehicleDynamics_sfun_registry.obj
 0002:00001e34       $unwind$_ssGetInputPortDynamicArrayContainedDataFcn 0000000180046e34     sl_groundvehicleDynamics_sfun_registry.obj
 0002:00001e3c       $unwind$_ssGetOutputPortDynamicArrayContainedDataFcn 0000000180046e3c     sl_groundvehicleDynamics_sfun_registry.obj
 0002:00001e44       $unwind$_ssGetDynamicArrayDWorkContainedDataFcn 0000000180046e44     sl_groundvehicleDynamics_sfun_registry.obj
 0002:00001e4c       $unwind$sf_process_check_sum_call 0000000180046e4c     sl_groundvehicleDynamics_sfun_registry.obj
 0002:00001e54       $unwind$sf_process_get_third_party_uses_info_call 0000000180046e54     sl_groundvehicleDynamics_sfun_registry.obj
 0002:00001e64       $unwind$sf_process_get_jit_fallback_info_call 0000000180046e64     sl_groundvehicleDynamics_sfun_registry.obj
 0002:00001e74       $unwind$sf_process_get_post_codegen_info_call 0000000180046e74     sl_groundvehicleDynamics_sfun_registry.obj
 0002:00001e84       $unwind$sf_process_get_updateBuildInfo_args_info_call 0000000180046e84     sl_groundvehicleDynamics_sfun_registry.obj
 0002:00001e94       $unwind$sf_process_get_eml_resolved_functions_info_call 0000000180046e94     sl_groundvehicleDynamics_sfun_registry.obj
 0002:00001ea4       $unwind$sf_mex_unlock_call 0000000180046ea4     sl_groundvehicleDynamics_sfun_registry.obj
 0002:00001eb4       $unwind$ProcessMexSfunctionCmdLineCall 0000000180046eb4     sl_groundvehicleDynamics_sfun_registry.obj
 0002:00001ebc       $unwind$sf_machine_global_initializer_called 0000000180046ebc     sl_groundvehicleDynamics_sfun_registry.obj
 0002:00001ec4       $unwind$sf_machine_global_method_dispatcher 0000000180046ec4     sl_groundvehicleDynamics_sfun_registry.obj
 0002:00001ecc       $unwind$sf_machine_global_terminator 0000000180046ecc     sl_groundvehicleDynamics_sfun_registry.obj
 0002:00001ed4       $unwind$sf_machine_global_initializer 0000000180046ed4     sl_groundvehicleDynamics_sfun_registry.obj
 0002:00001edc       $unwind$mdlGetSimState     0000000180046edc     sl_groundvehicleDynamics_sfun_registry.obj
 0002:00001ee4       $unwind$mdlSetSimState     0000000180046ee4     sl_groundvehicleDynamics_sfun_registry.obj
 0002:00001eec       $unwind$mdlSetWorkWidths   0000000180046eec     sl_groundvehicleDynamics_sfun_registry.obj
 0002:00001ef4       $unwind$mdlProcessParameters 0000000180046ef4     sl_groundvehicleDynamics_sfun_registry.obj
 0002:00001efc       $unwind$mdl_setup_runtime_resources_processing 0000000180046efc     sl_groundvehicleDynamics_sfun_registry.obj
 0002:00001f04       $unwind$mdlSetupRuntimeResources 0000000180046f04     sl_groundvehicleDynamics_sfun_registry.obj
 0002:00001f0c       $unwind$mdl_cleanup_runtime_resources_processing 0000000180046f0c     sl_groundvehicleDynamics_sfun_registry.obj
 0002:00001f14       $unwind$mdlCleanupRuntimeResources 0000000180046f14     sl_groundvehicleDynamics_sfun_registry.obj
 0002:00001f1c       $unwind$mdl_start_processing 0000000180046f1c     sl_groundvehicleDynamics_sfun_registry.obj
 0002:00001f24       $unwind$mdlStart           0000000180046f24     sl_groundvehicleDynamics_sfun_registry.obj
 0002:00001f2c       $unwind$mdl_terminate_processing 0000000180046f2c     sl_groundvehicleDynamics_sfun_registry.obj
 0002:00001f34       $unwind$mdlTerminate       0000000180046f34     sl_groundvehicleDynamics_sfun_registry.obj
 0002:00001f3c       $unwind$mdlInitializeSizes 0000000180046f3c     sl_groundvehicleDynamics_sfun_registry.obj
 0002:00001f44       $unwind$mdlInitializeSampleTimes 0000000180046f44     sl_groundvehicleDynamics_sfun_registry.obj
 0002:00001f4c       $unwind$mdl_outputs_continuous_legacy 0000000180046f4c     sl_groundvehicleDynamics_sfun_registry.obj
 0002:00001f54       $unwind$mdl_outputs_processing 0000000180046f54     sl_groundvehicleDynamics_sfun_registry.obj
 0002:00001f5c       $unwind$mdl_zeroCrossings_processing 0000000180046f5c     sl_groundvehicleDynamics_sfun_registry.obj
 0002:00001f64       $unwind$mdlZeroCrossings   0000000180046f64     sl_groundvehicleDynamics_sfun_registry.obj
 0002:00001f6c       $unwind$mdl_derivatives_processing 0000000180046f6c     sl_groundvehicleDynamics_sfun_registry.obj
 0002:00001f74       $unwind$mdlDerivatives     0000000180046f74     sl_groundvehicleDynamics_sfun_registry.obj
 0002:00001f7c       $unwind$mdl_initialize_conditions_processing 0000000180046f7c     sl_groundvehicleDynamics_sfun_registry.obj
 0002:00001f84       $unwind$mdlInitializeConditions 0000000180046f84     sl_groundvehicleDynamics_sfun_registry.obj
 0002:00001f8c       $unwind$mdl_ext_mode_exec_processing 0000000180046f8c     sl_groundvehicleDynamics_sfun_registry.obj
 0002:00001f94       $unwind$mdlExtModeExec     0000000180046f94     sl_groundvehicleDynamics_sfun_registry.obj
 0002:00001f9c       $unwind$mdlRTW             0000000180046f9c     sl_groundvehicleDynamics_sfun_registry.obj
 0002:00001fa4       $unwind$mdl_enable_processing 0000000180046fa4     sl_groundvehicleDynamics_sfun_registry.obj
 0002:00001fac       $unwind$mdlEnable          0000000180046fac     sl_groundvehicleDynamics_sfun_registry.obj
 0002:00001fb4       $unwind$mdl_disable_processing 0000000180046fb4     sl_groundvehicleDynamics_sfun_registry.obj
 0002:00001fbc       $unwind$mdlDisable         0000000180046fbc     sl_groundvehicleDynamics_sfun_registry.obj
 0002:00001fc4       $unwind$mdlOutputs         0000000180046fc4     sl_groundvehicleDynamics_sfun_registry.obj
 0002:00001fcc       $unwind$mdl_update_processing 0000000180046fcc     sl_groundvehicleDynamics_sfun_registry.obj
 0002:00001fd4       $unwind$mdlUpdate          0000000180046fd4     sl_groundvehicleDynamics_sfun_registry.obj
 0002:00001fdc       $unwind$ProcessMexSfunctionEveryCall 0000000180046fdc     sl_groundvehicleDynamics_sfun_registry.obj
 0002:00001fe4       $unwind$_RegNumInputPortsCB 0000000180046fe4     sl_groundvehicleDynamics_sfun_registry.obj
 0002:00001fec       $unwind$_RegNumOutputPortsCB 0000000180046fec     sl_groundvehicleDynamics_sfun_registry.obj
 0002:00001ff4       $unwind$_CreateSimStruct   0000000180046ff4     sl_groundvehicleDynamics_sfun_registry.obj
 0002:00001ffc       $unwind$_ProcessMexSfunctionCmdLineCall 0000000180046ffc     sl_groundvehicleDynamics_sfun_registry.obj
 0002:0000200c       $unwind$ReportIndexOutOfBoundsError 000000018004700c     sl_groundvehicleDynamics_sfun_registry.obj
 0002:0000201c       $unwind$?_Fnv1a_append_bytes@std@@YA_K_KQEBE_K@Z 000000018004701c     priorityqueue_api.obj
 0002:00002024       $unwind$??0exception@std@@QEAA@QEBDH@Z 0000000180047024     priorityqueue_api.obj
 0002:0000202c       $unwind$??0exception@std@@QEAA@AEBV01@@Z 000000018004702c     priorityqueue_api.obj
 0002:0000203c       $cppxdata$??0exception@std@@QEAA@AEBV01@@Z 000000018004703c     priorityqueue_api.obj
 0002:00002041       $ip2state$??0exception@std@@QEAA@AEBV01@@Z 0000000180047041     priorityqueue_api.obj
 0002:00002044       $unwind$??1exception@std@@UEAA@XZ 0000000180047044     priorityqueue_api.obj
 0002:00002054       $cppxdata$??1exception@std@@UEAA@XZ 0000000180047054     priorityqueue_api.obj
 0002:00002059       $ip2state$??1exception@std@@UEAA@XZ 0000000180047059     priorityqueue_api.obj
 0002:0000205c       $unwind$?what@exception@std@@UEBAPEBDXZ 000000018004705c     priorityqueue_api.obj
 0002:00002064       $unwind$??_Gexception@std@@UEAAPEAXI@Z 0000000180047064     priorityqueue_api.obj
 0002:0000206c       $unwind$??0bad_alloc@std@@AEAA@QEBD@Z 000000018004706c     priorityqueue_api.obj
 0002:00002074       $unwind$??1bad_alloc@std@@UEAA@XZ 0000000180047074     priorityqueue_api.obj
 0002:0000207c       $unwind$??0bad_alloc@std@@QEAA@AEBV01@@Z 000000018004707c     priorityqueue_api.obj
 0002:00002084       $unwind$??_Gbad_alloc@std@@UEAAPEAXI@Z 0000000180047084     priorityqueue_api.obj
 0002:0000208c       $unwind$??0bad_array_new_length@std@@QEAA@XZ 000000018004708c     priorityqueue_api.obj
 0002:00002094       $unwind$??1bad_array_new_length@std@@UEAA@XZ 0000000180047094     priorityqueue_api.obj
 0002:0000209c       $unwind$??0bad_array_new_length@std@@QEAA@AEBV01@@Z 000000018004709c     priorityqueue_api.obj
 0002:000020a4       $unwind$??_Gbad_array_new_length@std@@UEAAPEAXI@Z 00000001800470a4     priorityqueue_api.obj
 0002:000020ac       $unwind$?_Throw_bad_array_new_length@std@@YAXXZ 00000001800470ac     priorityqueue_api.obj
 0002:000020b4       $unwind$?_Allocate@_Default_allocate_traits@std@@SAPEAX_K@Z 00000001800470b4     priorityqueue_api.obj
 0002:000020bc       $unwind$?_Adjust_manually_vector_aligned@std@@YAXAEAPEAXAEA_K@Z 00000001800470bc     priorityqueue_api.obj
 0002:000020c4       $unwind$?_Floor_of_log_2@std@@YAK_K@Z 00000001800470c4     priorityqueue_api.obj
 0002:000020cc       $unwind$?_Ceiling_of_log_2@std@@YAK_K@Z 00000001800470cc     priorityqueue_api.obj
 0002:000020d4       $unwind$??0?$_Uhash_compare@HU?$hash@H@std@@U?$equal_to@H@2@@std@@QEAA@XZ 00000001800470d4     priorityqueue_api.obj
 0002:000020dc       $unwind$??R?$equal_to@H@std@@QEBA_NAEBH0@Z 00000001800470dc     priorityqueue_api.obj
 0002:000020e4       $unwind$??R?$_Conditionally_enabled_hash@H$00@std@@QEBA_KAEBH@Z 00000001800470e4     priorityqueue_api.obj
 0002:000020ec       $unwind$?_Do_hash@?$hash@H@std@@SA_KAEBH@Z 00000001800470ec     priorityqueue_api.obj
 0002:000020f4       $unwind$?deallocate@?$allocator@U?$_List_node@U?$pair@$$CBHV?$vector@NV?$allocator@N@std@@@std@@@std@@PEAX@std@@@std@@QEAAXQEAU?$_List_node@U?$pair@$$CBHV?$vector@NV?$allocator@N@std@@@std@@@std@@PEAX@2@_K@Z 00000001800470f4     priorityqueue_api.obj
 0002:000020fc       $unwind$?allocate@?$allocator@U?$_List_node@U?$pair@$$CBHV?$vector@NV?$allocator@N@std@@@std@@@std@@PEAX@std@@@std@@QEAAPEAU?$_List_node@U?$pair@$$CBHV?$vector@NV?$allocator@N@std@@@std@@@std@@PEAX@2@_K@Z 00000001800470fc     priorityqueue_api.obj
 0002:00002104       $unwind$?deallocate@?$_Default_allocator_traits@V?$allocator@U?$_List_node@U?$pair@$$CBHV?$vector@NV?$allocator@N@std@@@std@@@std@@PEAX@std@@@std@@@std@@SAXAEAV?$allocator@U?$_List_node@U?$pair@$$CBHV?$vector@NV?$allocator@N@std@@@std@@@std@@PEAX@std@@@2@QEAU?$_List_node@U?$pair@$$CBHV?$vector@NV?$allocator@N@std@@@std@@@std@@PEAX@2@_K@Z 0000000180047104     priorityqueue_api.obj
 0002:0000210c       $unwind$??0?$list@U?$pair@$$CBHV?$vector@NV?$allocator@N@std@@@std@@@std@@V?$allocator@U?$pair@$$CBHV?$vector@NV?$allocator@N@std@@@std@@@std@@@2@@std@@QEAA@AEBV?$allocator@U?$pair@$$CBHV?$vector@NV?$allocator@N@std@@@std@@@std@@@1@@Z 000000018004710c     priorityqueue_api.obj
 0002:00002114       $unwind$?_Swap_val@?$list@U?$pair@$$CBHV?$vector@NV?$allocator@N@std@@@std@@@std@@V?$allocator@U?$pair@$$CBHV?$vector@NV?$allocator@N@std@@@std@@@std@@@2@@std@@AEAAXAEAV12@@Z 0000000180047114     priorityqueue_api.obj
 0002:0000211c       $unwind$??1?$list@U?$pair@$$CBHV?$vector@NV?$allocator@N@std@@@std@@@std@@V?$allocator@U?$pair@$$CBHV?$vector@NV?$allocator@N@std@@@std@@@std@@@2@@std@@QEAA@XZ 000000018004711c     priorityqueue_api.obj
 0002:00002124       $unwind$?end@?$list@U?$pair@$$CBHV?$vector@NV?$allocator@N@std@@@std@@@std@@V?$allocator@U?$pair@$$CBHV?$vector@NV?$allocator@N@std@@@std@@@std@@@2@@std@@QEAA?AV?$_List_iterator@V?$_List_val@U?$_List_simple_types@U?$pair@$$CBHV?$vector@NV?$allocator@N@std@@@std@@@std@@@std@@@std@@@2@XZ 0000000180047124     priorityqueue_api.obj
 0002:0000212c       $unwind$?_Unchecked_begin@?$list@U?$pair@$$CBHV?$vector@NV?$allocator@N@std@@@std@@@std@@V?$allocator@U?$pair@$$CBHV?$vector@NV?$allocator@N@std@@@std@@@std@@@2@@std@@QEAA?AV?$_List_unchecked_iterator@V?$_List_val@U?$_List_simple_types@U?$pair@$$CBHV?$vector@NV?$allocator@N@std@@@std@@@std@@@std@@@std@@@2@XZ 000000018004712c     priorityqueue_api.obj
 0002:00002134       $unwind$?_Unchecked_end@?$list@U?$pair@$$CBHV?$vector@NV?$allocator@N@std@@@std@@@std@@V?$allocator@U?$pair@$$CBHV?$vector@NV?$allocator@N@std@@@std@@@std@@@2@@std@@QEAA?AV?$_List_unchecked_iterator@V?$_List_val@U?$_List_simple_types@U?$pair@$$CBHV?$vector@NV?$allocator@N@std@@@std@@@std@@@std@@@std@@@2@XZ 0000000180047134     priorityqueue_api.obj
 0002:0000213c       $unwind$?_Make_iter@?$list@U?$pair@$$CBHV?$vector@NV?$allocator@N@std@@@std@@@std@@V?$allocator@U?$pair@$$CBHV?$vector@NV?$allocator@N@std@@@std@@@std@@@2@@std@@QEBA?AV?$_List_iterator@V?$_List_val@U?$_List_simple_types@U?$pair@$$CBHV?$vector@NV?$allocator@N@std@@@std@@@std@@@std@@@std@@@2@PEAU?$_List_node@U?$pair@$$CBHV?$vector@NV?$allocator@N@std@@@std@@@std@@PEAX@2@@Z 000000018004713c     priorityqueue_api.obj
 0002:00002144       $unwind$?max_size@?$list@U?$pair@$$CBHV?$vector@NV?$allocator@N@std@@@std@@@std@@V?$allocator@U?$pair@$$CBHV?$vector@NV?$allocator@N@std@@@std@@@std@@@2@@std@@QEBA_KXZ 0000000180047144     priorityqueue_api.obj
 0002:0000214c       $unwind$?clear@?$list@U?$pair@$$CBHV?$vector@NV?$allocator@N@std@@@std@@@std@@V?$allocator@U?$pair@$$CBHV?$vector@NV?$allocator@N@std@@@std@@@std@@@2@@std@@QEAAXXZ 000000018004714c     priorityqueue_api.obj
 0002:00002154       $unwind$?_Tidy@?$list@U?$pair@$$CBHV?$vector@NV?$allocator@N@std@@@std@@@std@@V?$allocator@U?$pair@$$CBHV?$vector@NV?$allocator@N@std@@@std@@@std@@@2@@std@@AEAAXXZ 0000000180047154     priorityqueue_api.obj
 0002:0000215c       $unwind$?_Alloc_sentinel_and_proxy@?$list@U?$pair@$$CBHV?$vector@NV?$allocator@N@std@@@std@@@std@@V?$allocator@U?$pair@$$CBHV?$vector@NV?$allocator@N@std@@@std@@@std@@@2@@std@@AEAAXXZ 000000018004715c     priorityqueue_api.obj
 0002:00002164       $unwind$?_Getal@?$list@U?$pair@$$CBHV?$vector@NV?$allocator@N@std@@@std@@@std@@V?$allocator@U?$pair@$$CBHV?$vector@NV?$allocator@N@std@@@std@@@std@@@2@@std@@AEAAAEAV?$allocator@U?$_List_node@U?$pair@$$CBHV?$vector@NV?$allocator@N@std@@@std@@@std@@PEAX@std@@@2@XZ 0000000180047164     priorityqueue_api.obj
 0002:0000216c       $unwind$?_Getal@?$list@U?$pair@$$CBHV?$vector@NV?$allocator@N@std@@@std@@@std@@V?$allocator@U?$pair@$$CBHV?$vector@NV?$allocator@N@std@@@std@@@std@@@2@@std@@AEBAAEBV?$allocator@U?$_List_node@U?$pair@$$CBHV?$vector@NV?$allocator@N@std@@@std@@@std@@PEAX@std@@@2@XZ 000000018004716c     priorityqueue_api.obj
 0002:00002174       $unwind$?_Unchecked_splice@?$_List_val@U?$_List_simple_types@U?$pair@$$CBHV?$vector@NV?$allocator@N@std@@@std@@@std@@@std@@@std@@SAPEAU?$_List_node@U?$pair@$$CBHV?$vector@NV?$allocator@N@std@@@std@@@std@@PEAX@2@QEAU32@00@Z 0000000180047174     priorityqueue_api.obj
 0002:0000217c       $unwind$??0?$_Hash@V?$_Umap_traits@HV?$vector@NV?$allocator@N@std@@@std@@V?$_Uhash_compare@HU?$hash@H@std@@U?$equal_to@H@2@@2@V?$allocator@U?$pair@$$CBHV?$vector@NV?$allocator@N@std@@@std@@@std@@@2@$0A@@std@@@std@@IEAA@AEBV?$_Uhash_compare@HU?$hash@H@std@@U?$equal_to@H@2@@1@AEBV?$allocator@U?$pair@$$CBHV?$vector@NV?$allocator@N@std@@@std@@@std@@@1@@Z 000000018004717c     priorityqueue_api.obj
 0002:0000218c       $cppxdata$??0?$_Hash@V?$_Umap_traits@HV?$vector@NV?$allocator@N@std@@@std@@V?$_Uhash_compare@HU?$hash@H@std@@U?$equal_to@H@2@@2@V?$allocator@U?$pair@$$CBHV?$vector@NV?$allocator@N@std@@@std@@@std@@@2@$0A@@std@@@std@@IEAA@AEBV?$_Uhash_compare@HU?$hash@H@std@@U?$equal_to@H@2@@1@AEBV?$allocator@U?$pair@$$CBHV?$vector@NV?$allocator@N@std@@@std@@@std@@@1@@Z 000000018004718c     priorityqueue_api.obj
 0002:00002195       $stateUnwindMap$??0?$_Hash@V?$_Umap_traits@HV?$vector@NV?$allocator@N@std@@@std@@V?$_Uhash_compare@HU?$hash@H@std@@U?$equal_to@H@2@@2@V?$allocator@U?$pair@$$CBHV?$vector@NV?$allocator@N@std@@@std@@@std@@@2@$0A@@std@@@std@@IEAA@AEBV?$_Uhash_compare@HU?$hash@H@std@@U?$equal_to@H@2@@1@AEBV?$allocator@U?$pair@$$CBHV?$vector@NV?$allocator@N@std@@@std@@@std@@@1@@Z 0000000180047195     priorityqueue_api.obj
 0002:000021a0       $ip2state$??0?$_Hash@V?$_Umap_traits@HV?$vector@NV?$allocator@N@std@@@std@@V?$_Uhash_compare@HU?$hash@H@std@@U?$equal_to@H@2@@2@V?$allocator@U?$pair@$$CBHV?$vector@NV?$allocator@N@std@@@std@@@std@@@2@$0A@@std@@@std@@IEAA@AEBV?$_Uhash_compare@HU?$hash@H@std@@U?$equal_to@H@2@@1@AEBV?$allocator@U?$pair@$$CBHV?$vector@NV?$allocator@N@std@@@std@@@std@@@1@@Z 00000001800471a0     priorityqueue_api.obj
 0002:000021ac       $unwind$?dtor$0@?0???0?$_Hash@V?$_Umap_traits@HV?$vector@NV?$allocator@N@std@@@std@@V?$_Uhash_compare@HU?$hash@H@std@@U?$equal_to@H@2@@2@V?$allocator@U?$pair@$$CBHV?$vector@NV?$allocator@N@std@@@std@@@std@@@2@$0A@@std@@@std@@IEAA@AEBV?$_Uhash_compare@HU?$hash@H@std@@U?$equal_to@H@2@@1@AEBV?$allocator@U?$pair@$$CBHV?$vector@NV?$allocator@N@std@@@std@@@std@@@1@@Z@4HA 00000001800471ac     priorityqueue_api.obj
 0002:000021b4       $unwind$?dtor$1@?0???0?$_Hash@V?$_Umap_traits@HV?$vector@NV?$allocator@N@std@@@std@@V?$_Uhash_compare@HU?$hash@H@std@@U?$equal_to@H@2@@2@V?$allocator@U?$pair@$$CBHV?$vector@NV?$allocator@N@std@@@std@@@std@@@2@$0A@@std@@@std@@IEAA@AEBV?$_Uhash_compare@HU?$hash@H@std@@U?$equal_to@H@2@@1@AEBV?$allocator@U?$pair@$$CBHV?$vector@NV?$allocator@N@std@@@std@@@std@@@1@@Z@4HA 00000001800471b4     priorityqueue_api.obj
 0002:000021bc       $unwind$?_Swap_val@?$_Hash@V?$_Umap_traits@HV?$vector@NV?$allocator@N@std@@@std@@V?$_Uhash_compare@HU?$hash@H@std@@U?$equal_to@H@2@@2@V?$allocator@U?$pair@$$CBHV?$vector@NV?$allocator@N@std@@@std@@@std@@@2@$0A@@std@@@std@@AEAAXAEAV12@@Z 00000001800471bc     priorityqueue_api.obj
 0002:000021c4       $unwind$?_Pocma_both@?$_Hash@V?$_Umap_traits@HV?$vector@NV?$allocator@N@std@@@std@@V?$_Uhash_compare@HU?$hash@H@std@@U?$equal_to@H@2@@2@V?$allocator@U?$pair@$$CBHV?$vector@NV?$allocator@N@std@@@std@@@std@@@2@$0A@@std@@@std@@AEAAXAEAV12@@Z 00000001800471c4     priorityqueue_api.obj
 0002:000021cc       $unwind$??4?$_Hash@V?$_Umap_traits@HV?$vector@NV?$allocator@N@std@@@std@@V?$_Uhash_compare@HU?$hash@H@std@@U?$equal_to@H@2@@2@V?$allocator@U?$pair@$$CBHV?$vector@NV?$allocator@N@std@@@std@@@std@@@2@$0A@@std@@@std@@QEAAAEAV01@$$QEAV01@@Z 00000001800471cc     priorityqueue_api.obj
 0002:000021d4       $unwind$?end@?$_Hash@V?$_Umap_traits@HV?$vector@NV?$allocator@N@std@@@std@@V?$_Uhash_compare@HU?$hash@H@std@@U?$equal_to@H@2@@2@V?$allocator@U?$pair@$$CBHV?$vector@NV?$allocator@N@std@@@std@@@std@@@2@$0A@@std@@@std@@QEAA?AV?$_List_iterator@V?$_List_val@U?$_List_simple_types@U?$pair@$$CBHV?$vector@NV?$allocator@N@std@@@std@@@std@@@std@@@std@@@2@XZ 00000001800471d4     priorityqueue_api.obj
 0002:000021dc       $unwind$?_Unchecked_begin@?$_Hash@V?$_Umap_traits@HV?$vector@NV?$allocator@N@std@@@std@@V?$_Uhash_compare@HU?$hash@H@std@@U?$equal_to@H@2@@2@V?$allocator@U?$pair@$$CBHV?$vector@NV?$allocator@N@std@@@std@@@std@@@2@$0A@@std@@@std@@QEAA?AV?$_List_unchecked_iterator@V?$_List_val@U?$_List_simple_types@U?$pair@$$CBHV?$vector@NV?$allocator@N@std@@@std@@@std@@@std@@@std@@@2@XZ 00000001800471dc     priorityqueue_api.obj
 0002:000021e4       $unwind$?_Unchecked_end@?$_Hash@V?$_Umap_traits@HV?$vector@NV?$allocator@N@std@@@std@@V?$_Uhash_compare@HU?$hash@H@std@@U?$equal_to@H@2@@2@V?$allocator@U?$pair@$$CBHV?$vector@NV?$allocator@N@std@@@std@@@std@@@2@$0A@@std@@@std@@QEAA?AV?$_List_unchecked_iterator@V?$_List_val@U?$_List_simple_types@U?$pair@$$CBHV?$vector@NV?$allocator@N@std@@@std@@@std@@@std@@@std@@@2@XZ 00000001800471e4     priorityqueue_api.obj
 0002:000021ec       $unwind$?size@?$_Hash@V?$_Umap_traits@HV?$vector@NV?$allocator@N@std@@@std@@V?$_Uhash_compare@HU?$hash@H@std@@U?$equal_to@H@2@@2@V?$allocator@U?$pair@$$CBHV?$vector@NV?$allocator@N@std@@@std@@@std@@@2@$0A@@std@@@std@@QEBA_KXZ 00000001800471ec     priorityqueue_api.obj
 0002:000021f4       $unwind$?bucket@?$_Hash@V?$_Umap_traits@HV?$vector@NV?$allocator@N@std@@@std@@V?$_Uhash_compare@HU?$hash@H@std@@U?$equal_to@H@2@@2@V?$allocator@U?$pair@$$CBHV?$vector@NV?$allocator@N@std@@@std@@@std@@@2@$0A@@std@@@std@@QEBA_KAEBH@Z 00000001800471f4     priorityqueue_api.obj
 0002:000021fc       $unwind$?max_load_factor@?$_Hash@V?$_Umap_traits@HV?$vector@NV?$allocator@N@std@@@std@@V?$_Uhash_compare@HU?$hash@H@std@@U?$equal_to@H@2@@2@V?$allocator@U?$pair@$$CBHV?$vector@NV?$allocator@N@std@@@std@@@std@@@2@$0A@@std@@@std@@QEBAMXZ 00000001800471fc     priorityqueue_api.obj
 0002:00002204       $unwind$?_Unchecked_erase@?$_Hash@V?$_Umap_traits@HV?$vector@NV?$allocator@N@std@@@std@@V?$_Uhash_compare@HU?$hash@H@std@@U?$equal_to@H@2@@2@V?$allocator@U?$pair@$$CBHV?$vector@NV?$allocator@N@std@@@std@@@std@@@2@$0A@@std@@@std@@AEAAPEAU?$_List_node@U?$pair@$$CBHV?$vector@NV?$allocator@N@std@@@std@@@std@@PEAX@2@PEAU32@QEAU32@@Z 0000000180047204     priorityqueue_api.obj
 0002:0000220c       $unwind$?clear@?$_Hash@V?$_Umap_traits@HV?$vector@NV?$allocator@N@std@@@std@@V?$_Uhash_compare@HU?$hash@H@std@@U?$equal_to@H@2@@2@V?$allocator@U?$pair@$$CBHV?$vector@NV?$allocator@N@std@@@std@@@std@@@2@$0A@@std@@@std@@QEAAXXZ 000000018004720c     priorityqueue_api.obj
 0002:0000221c       $cppxdata$?clear@?$_Hash@V?$_Umap_traits@HV?$vector@NV?$allocator@N@std@@@std@@V?$_Uhash_compare@HU?$hash@H@std@@U?$equal_to@H@2@@2@V?$allocator@U?$pair@$$CBHV?$vector@NV?$allocator@N@std@@@std@@@std@@@2@$0A@@std@@@std@@QEAAXXZ 000000018004721c     priorityqueue_api.obj
 0002:00002221       $ip2state$?clear@?$_Hash@V?$_Umap_traits@HV?$vector@NV?$allocator@N@std@@@std@@V?$_Uhash_compare@HU?$hash@H@std@@U?$equal_to@H@2@@2@V?$allocator@U?$pair@$$CBHV?$vector@NV?$allocator@N@std@@@std@@@std@@@2@$0A@@std@@@std@@QEAAXXZ 0000000180047221     priorityqueue_api.obj
 0002:00002224       $unwind$?_Insert_new_node_before@?$_Hash@V?$_Umap_traits@HV?$vector@NV?$allocator@N@std@@@std@@V?$_Uhash_compare@HU?$hash@H@std@@U?$equal_to@H@2@@2@V?$allocator@U?$pair@$$CBHV?$vector@NV?$allocator@N@std@@@std@@@std@@@2@$0A@@std@@@std@@IEAAPEAU?$_List_node@U?$pair@$$CBHV?$vector@NV?$allocator@N@std@@@std@@@std@@PEAX@2@_KQEAU32@1@Z 0000000180047224     priorityqueue_api.obj
 0002:0000222c       $unwind$?_Check_max_size@?$_Hash@V?$_Umap_traits@HV?$vector@NV?$allocator@N@std@@@std@@V?$_Uhash_compare@HU?$hash@H@std@@U?$equal_to@H@2@@2@V?$allocator@U?$pair@$$CBHV?$vector@NV?$allocator@N@std@@@std@@@std@@@2@$0A@@std@@@std@@IEBAXXZ 000000018004722c     priorityqueue_api.obj
 0002:00002234       $unwind$?_Check_rehash_required_1@?$_Hash@V?$_Umap_traits@HV?$vector@NV?$allocator@N@std@@@std@@V?$_Uhash_compare@HU?$hash@H@std@@U?$equal_to@H@2@@2@V?$allocator@U?$pair@$$CBHV?$vector@NV?$allocator@N@std@@@std@@@std@@@2@$0A@@std@@@std@@IEBA_NXZ 0000000180047234     priorityqueue_api.obj
 0002:0000223c       $unwind$?_Rehash_for_1@?$_Hash@V?$_Umap_traits@HV?$vector@NV?$allocator@N@std@@@std@@V?$_Uhash_compare@HU?$hash@H@std@@U?$equal_to@H@2@@2@V?$allocator@U?$pair@$$CBHV?$vector@NV?$allocator@N@std@@@std@@@std@@@2@$0A@@std@@@std@@IEAAXXZ 000000018004723c     priorityqueue_api.obj
 0002:00002244       $unwind$?_Min_load_factor_buckets@?$_Hash@V?$_Umap_traits@HV?$vector@NV?$allocator@N@std@@@std@@V?$_Uhash_compare@HU?$hash@H@std@@U?$equal_to@H@2@@2@V?$allocator@U?$pair@$$CBHV?$vector@NV?$allocator@N@std@@@std@@@std@@@2@$0A@@std@@@std@@IEBA_K_K@Z 0000000180047244     priorityqueue_api.obj
 0002:00002254       $cppxdata$?_Min_load_factor_buckets@?$_Hash@V?$_Umap_traits@HV?$vector@NV?$allocator@N@std@@@std@@V?$_Uhash_compare@HU?$hash@H@std@@U?$equal_to@H@2@@2@V?$allocator@U?$pair@$$CBHV?$vector@NV?$allocator@N@std@@@std@@@std@@@2@$0A@@std@@@std@@IEBA_K_K@Z 0000000180047254     priorityqueue_api.obj
 0002:00002259       $ip2state$?_Min_load_factor_buckets@?$_Hash@V?$_Umap_traits@HV?$vector@NV?$allocator@N@std@@@std@@V?$_Uhash_compare@HU?$hash@H@std@@U?$equal_to@H@2@@2@V?$allocator@U?$pair@$$CBHV?$vector@NV?$allocator@N@std@@@std@@@std@@@2@$0A@@std@@@std@@IEBA_K_K@Z 0000000180047259     priorityqueue_api.obj
 0002:0000225c       $unwind$?_Desired_grow_bucket_count@?$_Hash@V?$_Umap_traits@HV?$vector@NV?$allocator@N@std@@@std@@V?$_Uhash_compare@HU?$hash@H@std@@U?$equal_to@H@2@@2@V?$allocator@U?$pair@$$CBHV?$vector@NV?$allocator@N@std@@@std@@@std@@@2@$0A@@std@@@std@@IEBA_K_K@Z 000000018004725c     priorityqueue_api.obj
 0002:00002264       $unwind$?_Forced_rehash@?$_Hash@V?$_Umap_traits@HV?$vector@NV?$allocator@N@std@@@std@@V?$_Uhash_compare@HU?$hash@H@std@@U?$equal_to@H@2@@2@V?$allocator@U?$pair@$$CBHV?$vector@NV?$allocator@N@std@@@std@@@std@@@2@$0A@@std@@@std@@IEAAX_K@Z 0000000180047264     priorityqueue_api.obj
 0002:0000226c       $unwind$?_Max_bucket_size@?$_Hash@V?$_Umap_traits@HV?$vector@NV?$allocator@N@std@@@std@@V?$_Uhash_compare@HU?$hash@H@std@@U?$equal_to@H@2@@2@V?$allocator@U?$pair@$$CBHV?$vector@NV?$allocator@N@std@@@std@@@std@@@2@$0A@@std@@@std@@IEAAAEAMXZ 000000018004726c     priorityqueue_api.obj
 0002:00002274       $unwind$?_Max_bucket_size@?$_Hash@V?$_Umap_traits@HV?$vector@NV?$allocator@N@std@@@std@@V?$_Uhash_compare@HU?$hash@H@std@@U?$equal_to@H@2@@2@V?$allocator@U?$pair@$$CBHV?$vector@NV?$allocator@N@std@@@std@@@std@@@2@$0A@@std@@@std@@IEBAAEBMXZ 0000000180047274     priorityqueue_api.obj
 0002:0000227c       $unwind$?_Getal@?$_Hash@V?$_Umap_traits@HV?$vector@NV?$allocator@N@std@@@std@@V?$_Uhash_compare@HU?$hash@H@std@@U?$equal_to@H@2@@2@V?$allocator@U?$pair@$$CBHV?$vector@NV?$allocator@N@std@@@std@@@std@@@2@$0A@@std@@@std@@IEAAAEAV?$allocator@U?$_List_node@U?$pair@$$CBHV?$vector@NV?$allocator@N@std@@@std@@@std@@PEAX@std@@@2@XZ 000000018004727c     priorityqueue_api.obj
 0002:00002284       $unwind$?deallocate@?$allocator@V?$_List_unchecked_iterator@V?$_List_val@U?$_List_simple_types@U?$pair@$$CBHV?$vector@NV?$allocator@N@std@@@std@@@std@@@std@@@std@@@std@@@std@@QEAAXQEAV?$_List_unchecked_iterator@V?$_List_val@U?$_List_simple_types@U?$pair@$$CBHV?$vector@NV?$allocator@N@std@@@std@@@std@@@std@@@std@@@2@_K@Z 0000000180047284     priorityqueue_api.obj
 0002:0000228c       $unwind$?allocate@?$allocator@V?$_List_unchecked_iterator@V?$_List_val@U?$_List_simple_types@U?$pair@$$CBHV?$vector@NV?$allocator@N@std@@@std@@@std@@@std@@@std@@@std@@@std@@QEAAPEAV?$_List_unchecked_iterator@V?$_List_val@U?$_List_simple_types@U?$pair@$$CBHV?$vector@NV?$allocator@N@std@@@std@@@std@@@std@@@std@@@2@_K@Z 000000018004728c     priorityqueue_api.obj
 0002:00002294       $unwind$?max_size@?$_Hash_vec@V?$allocator@V?$_List_unchecked_iterator@V?$_List_val@U?$_List_simple_types@U?$pair@$$CBHV?$vector@NV?$allocator@N@std@@@std@@@std@@@std@@@std@@@std@@@std@@@std@@QEBA_KXZ 0000000180047294     priorityqueue_api.obj
 0002:0000229c       $unwind$?_Assign_grow@?$_Hash_vec@V?$allocator@V?$_List_unchecked_iterator@V?$_List_val@U?$_List_simple_types@U?$pair@$$CBHV?$vector@NV?$allocator@N@std@@@std@@@std@@@std@@@std@@@std@@@std@@@std@@QEAAX_KV?$_List_unchecked_iterator@V?$_List_val@U?$_List_simple_types@U?$pair@$$CBHV?$vector@NV?$allocator@N@std@@@std@@@std@@@std@@@std@@@2@@Z 000000018004729c     priorityqueue_api.obj
 0002:000022a4       $unwind$?_Tidy@?$_Hash_vec@V?$allocator@V?$_List_unchecked_iterator@V?$_List_val@U?$_List_simple_types@U?$pair@$$CBHV?$vector@NV?$allocator@N@std@@@std@@@std@@@std@@@std@@@std@@@std@@@std@@QEAAXXZ 00000001800472a4     priorityqueue_api.obj
 0002:000022b4       $cppxdata$?_Tidy@?$_Hash_vec@V?$allocator@V?$_List_unchecked_iterator@V?$_List_val@U?$_List_simple_types@U?$pair@$$CBHV?$vector@NV?$allocator@N@std@@@std@@@std@@@std@@@std@@@std@@@std@@@std@@QEAAXXZ 00000001800472b4     priorityqueue_api.obj
 0002:000022b9       $ip2state$?_Tidy@?$_Hash_vec@V?$allocator@V?$_List_unchecked_iterator@V?$_List_val@U?$_List_simple_types@U?$pair@$$CBHV?$vector@NV?$allocator@N@std@@@std@@@std@@@std@@@std@@@std@@@std@@@std@@QEAAXXZ 00000001800472b9     priorityqueue_api.obj
 0002:000022bc       $unwind$??1?$_Hash_vec@V?$allocator@V?$_List_unchecked_iterator@V?$_List_val@U?$_List_simple_types@U?$pair@$$CBHV?$vector@NV?$allocator@N@std@@@std@@@std@@@std@@@std@@@std@@@std@@@std@@QEAA@XZ 00000001800472bc     priorityqueue_api.obj
 0002:000022c4       $unwind$?_Swap_val@?$_Vector_val@U?$_Simple_types@V?$_List_unchecked_iterator@V?$_List_val@U?$_List_simple_types@U?$pair@$$CBHV?$vector@NV?$allocator@N@std@@@std@@@std@@@std@@@std@@@std@@@std@@@std@@QEAAXAEAV12@@Z 00000001800472c4     priorityqueue_api.obj
 0002:000022cc       $unwind$??1?$_Hash@V?$_Umap_traits@HV?$vector@NV?$allocator@N@std@@@std@@V?$_Uhash_compare@HU?$hash@H@std@@U?$equal_to@H@2@@2@V?$allocator@U?$pair@$$CBHV?$vector@NV?$allocator@N@std@@@std@@@std@@@2@$0A@@std@@@std@@QEAA@XZ 00000001800472cc     priorityqueue_api.obj
 0002:000022d4       $unwind$??0?$unordered_map@HV?$vector@NV?$allocator@N@std@@@std@@U?$hash@H@2@U?$equal_to@H@2@V?$allocator@U?$pair@$$CBHV?$vector@NV?$allocator@N@std@@@std@@@std@@@2@@std@@QEAA@XZ 00000001800472d4     priorityqueue_api.obj
 0002:000022dc       $unwind$??4?$unordered_map@HV?$vector@NV?$allocator@N@std@@@std@@U?$hash@H@2@U?$equal_to@H@2@V?$allocator@U?$pair@$$CBHV?$vector@NV?$allocator@N@std@@@std@@@std@@@2@@std@@QEAAAEAV01@$$QEAV01@@Z 00000001800472dc     priorityqueue_api.obj
 0002:000022ec       $cppxdata$??4?$unordered_map@HV?$vector@NV?$allocator@N@std@@@std@@U?$hash@H@2@U?$equal_to@H@2@V?$allocator@U?$pair@$$CBHV?$vector@NV?$allocator@N@std@@@std@@@std@@@2@@std@@QEAAAEAV01@$$QEAV01@@Z 00000001800472ec     priorityqueue_api.obj
 0002:000022f1       $ip2state$??4?$unordered_map@HV?$vector@NV?$allocator@N@std@@@std@@U?$hash@H@2@U?$equal_to@H@2@V?$allocator@U?$pair@$$CBHV?$vector@NV?$allocator@N@std@@@std@@@std@@@2@@std@@QEAAAEAV01@$$QEAV01@@Z 00000001800472f1     priorityqueue_api.obj
 0002:000022f4       $unwind$??A?$unordered_map@HV?$vector@NV?$allocator@N@std@@@std@@U?$hash@H@2@U?$equal_to@H@2@V?$allocator@U?$pair@$$CBHV?$vector@NV?$allocator@N@std@@@std@@@std@@@2@@std@@QEAAAEAV?$vector@NV?$allocator@N@std@@@1@AEBH@Z 00000001800472f4     priorityqueue_api.obj
 0002:000022fc       $unwind$??1?$unordered_map@HV?$vector@NV?$allocator@N@std@@@std@@U?$hash@H@2@U?$equal_to@H@2@V?$allocator@U?$pair@$$CBHV?$vector@NV?$allocator@N@std@@@std@@@std@@@2@@std@@QEAA@XZ 00000001800472fc     priorityqueue_api.obj
 0002:00002304       $unwind$??0SimpleMap@nav@@QEAA@H@Z 0000000180047304     priorityqueue_api.obj
 0002:00002314       $cppxdata$??0SimpleMap@nav@@QEAA@H@Z 0000000180047314     priorityqueue_api.obj
 0002:0000231d       $stateUnwindMap$??0SimpleMap@nav@@QEAA@H@Z 000000018004731d     priorityqueue_api.obj
 0002:00002323       $ip2state$??0SimpleMap@nav@@QEAA@H@Z 0000000180047323     priorityqueue_api.obj
 0002:0000232c       $unwind$?dtor$0@?0???0SimpleMap@nav@@QEAA@H@Z@4HA 000000018004732c     priorityqueue_api.obj
 0002:00002334       $unwind$?insertData@SimpleMap@nav@@QEAAXHPEBN@Z 0000000180047334     priorityqueue_api.obj
 0002:00002344       $cppxdata$?insertData@SimpleMap@nav@@QEAAXHPEBN@Z 0000000180047344     priorityqueue_api.obj
 0002:0000234d       $stateUnwindMap$?insertData@SimpleMap@nav@@QEAAXHPEBN@Z 000000018004734d     priorityqueue_api.obj
 0002:00002353       $ip2state$?insertData@SimpleMap@nav@@QEAAXHPEBN@Z 0000000180047353     priorityqueue_api.obj
 0002:0000235c       $unwind$?dtor$0@?0??insertData@SimpleMap@nav@@QEAAXHPEBN@Z@4HA 000000018004735c     priorityqueue_api.obj
 0002:00002364       $unwind$?getData@SimpleMap@nav@@QEAA?AV?$vector@NV?$allocator@N@std@@@std@@H@Z 0000000180047364     priorityqueue_api.obj
 0002:0000236c       $unwind$?getSize@SimpleMap@nav@@QEAA_KXZ 000000018004736c     priorityqueue_api.obj
 0002:00002374       $unwind$??1SimpleMap@nav@@QEAA@XZ 0000000180047374     priorityqueue_api.obj
 0002:0000237c       $unwind$??_GSimpleMap@nav@@QEAAPEAXI@Z 000000018004737c     priorityqueue_api.obj
 0002:00002384       $unwind$?deallocate@?$allocator@N@std@@QEAAXQEAN_K@Z 0000000180047384     priorityqueue_api.obj
 0002:0000238c       $unwind$?allocate@?$allocator@N@std@@QEAAPEAN_K@Z 000000018004738c     priorityqueue_api.obj
 0002:00002394       $unwind$??0?$vector@NV?$allocator@N@std@@@std@@QEAA@XZ 0000000180047394     priorityqueue_api.obj
 0002:0000239c       $unwind$??0?$vector@NV?$allocator@N@std@@@std@@QEAA@_KAEBNAEBV?$allocator@N@1@@Z 000000018004739c     priorityqueue_api.obj
 0002:000023a4       $unwind$??0?$vector@NV?$allocator@N@std@@@std@@QEAA@AEBV01@@Z 00000001800473a4     priorityqueue_api.obj
 0002:000023ac       $unwind$??0?$vector@NV?$allocator@N@std@@@std@@QEAA@$$QEAV01@@Z 00000001800473ac     priorityqueue_api.obj
 0002:000023b4       $unwind$??4?$vector@NV?$allocator@N@std@@@std@@QEAAAEAV01@$$QEAV01@@Z 00000001800473b4     priorityqueue_api.obj
 0002:000023bc       $unwind$??1?$vector@NV?$allocator@N@std@@@std@@QEAA@XZ 00000001800473bc     priorityqueue_api.obj
 0002:000023c4       $unwind$?size@?$vector@NV?$allocator@N@std@@@std@@QEBA_KXZ 00000001800473c4     priorityqueue_api.obj
 0002:000023cc       $unwind$?max_size@?$vector@NV?$allocator@N@std@@@std@@QEBA_KXZ 00000001800473cc     priorityqueue_api.obj
 0002:000023d4       $unwind$??A?$vector@NV?$allocator@N@std@@@std@@QEAAAEAN_K@Z 00000001800473d4     priorityqueue_api.obj
 0002:000023dc       $unwind$??A?$vector@NV?$allocator@N@std@@@std@@QEBAAEBN_K@Z 00000001800473dc     priorityqueue_api.obj
 0002:000023e4       $unwind$?_Buy_raw@?$vector@NV?$allocator@N@std@@@std@@AEAAX_K@Z 00000001800473e4     priorityqueue_api.obj
 0002:000023ec       $unwind$?_Buy_nonzero@?$vector@NV?$allocator@N@std@@@std@@AEAAX_K@Z 00000001800473ec     priorityqueue_api.obj
 0002:000023f4       $unwind$?_Tidy@?$vector@NV?$allocator@N@std@@@std@@AEAAXXZ 00000001800473f4     priorityqueue_api.obj
 0002:00002404       $cppxdata$?_Tidy@?$vector@NV?$allocator@N@std@@@std@@AEAAXXZ 0000000180047404     priorityqueue_api.obj
 0002:00002409       $ip2state$?_Tidy@?$vector@NV?$allocator@N@std@@@std@@AEAAXXZ 0000000180047409     priorityqueue_api.obj
 0002:0000240c       $unwind$?_Xlength@?$vector@NV?$allocator@N@std@@@std@@CAXXZ 000000018004740c     priorityqueue_api.obj
 0002:00002414       $unwind$?_Getal@?$vector@NV?$allocator@N@std@@@std@@AEAAAEAV?$allocator@N@2@XZ 0000000180047414     priorityqueue_api.obj
 0002:0000241c       $unwind$?_Getal@?$vector@NV?$allocator@N@std@@@std@@AEBAAEBV?$allocator@N@2@XZ 000000018004741c     priorityqueue_api.obj
 0002:00002424       $unwind$?_Take_contents@?$_Vector_val@U?$_Simple_types@N@std@@@std@@QEAAXAEAV12@@Z 0000000180047424     priorityqueue_api.obj
 0002:0000242c       $unwind$??_G?$vector@NV?$allocator@N@std@@@std@@QEAAPEAXI@Z 000000018004742c     priorityqueue_api.obj
 0002:00002434       $unwind$??$?0PEBN$0A@@?$vector@NV?$allocator@N@std@@@std@@QEAA@PEBN0AEBV?$allocator@N@1@@Z 0000000180047434     priorityqueue_api.obj
 0002:0000243c       $unwind$??$find@X@?$_Hash@V?$_Umap_traits@HV?$vector@NV?$allocator@N@std@@@std@@V?$_Uhash_compare@HU?$hash@H@std@@U?$equal_to@H@2@@2@V?$allocator@U?$pair@$$CBHV?$vector@NV?$allocator@N@std@@@std@@@std@@@2@$0A@@std@@@std@@QEAA?AV?$_List_iterator@V?$_List_val@U?$_List_simple_types@U?$pair@$$CBHV?$vector@NV?$allocator@N@std@@@std@@@std@@@std@@@std@@@1@AEBH@Z 000000018004743c     priorityqueue_api.obj
 0002:00002444       $unwind$??0?$_List_unchecked_const_iterator@V?$_List_val@U?$_List_simple_types@U?$pair@$$CBHV?$vector@NV?$allocator@N@std@@@std@@@std@@@std@@@std@@U_Iterator_base0@2@@std@@QEAA@PEAU?$_List_node@U?$pair@$$CBHV?$vector@NV?$allocator@N@std@@@std@@@std@@PEAX@1@PEBV?$_List_val@U?$_List_simple_types@U?$pair@$$CBHV?$vector@NV?$allocator@N@std@@@std@@@std@@@std@@@1@@Z 0000000180047444     priorityqueue_api.obj
 0002:0000244c       $unwind$??8?$_List_unchecked_const_iterator@V?$_List_val@U?$_List_simple_types@U?$pair@$$CBHV?$vector@NV?$allocator@N@std@@@std@@@std@@@std@@@std@@U_Iterator_base0@2@@std@@QEBA_NAEBV01@@Z 000000018004744c     priorityqueue_api.obj
 0002:00002454       $unwind$??9?$_List_unchecked_const_iterator@V?$_List_val@U?$_List_simple_types@U?$pair@$$CBHV?$vector@NV?$allocator@N@std@@@std@@@std@@@std@@@std@@U_Iterator_base0@2@@std@@QEBA_NAEBV01@@Z 0000000180047454     priorityqueue_api.obj
 0002:0000245c       $unwind$??8?$_List_const_iterator@V?$_List_val@U?$_List_simple_types@U?$pair@$$CBHV?$vector@NV?$allocator@N@std@@@std@@@std@@@std@@@std@@@std@@QEBA_NAEBV01@@Z 000000018004745c     priorityqueue_api.obj
 0002:00002464       $unwind$??0?$_List_const_iterator@V?$_List_val@U?$_List_simple_types@U?$pair@$$CBHV?$vector@NV?$allocator@N@std@@@std@@@std@@@std@@@std@@@std@@QEAA@PEAU?$_List_node@U?$pair@$$CBHV?$vector@NV?$allocator@N@std@@@std@@@std@@PEAX@1@PEBV?$_List_val@U?$_List_simple_types@U?$pair@$$CBHV?$vector@NV?$allocator@N@std@@@std@@@std@@@std@@@1@@Z 0000000180047464     priorityqueue_api.obj
 0002:0000246c       $unwind$??0?$_List_iterator@V?$_List_val@U?$_List_simple_types@U?$pair@$$CBHV?$vector@NV?$allocator@N@std@@@std@@@std@@@std@@@std@@@std@@QEAA@PEAU?$_List_node@U?$pair@$$CBHV?$vector@NV?$allocator@N@std@@@std@@@std@@PEAX@1@PEBV?$_List_val@U?$_List_simple_types@U?$pair@$$CBHV?$vector@NV?$allocator@N@std@@@std@@@std@@@std@@@1@@Z 000000018004746c     priorityqueue_api.obj
 0002:00002474       $unwind$??1?$pair@$$CBHV?$vector@NV?$allocator@N@std@@@std@@@std@@QEAA@XZ 0000000180047474     priorityqueue_api.obj
 0002:0000247c       $unwind$??_G?$pair@$$CBHV?$vector@NV?$allocator@N@std@@@std@@@std@@QEAAPEAXI@Z 000000018004747c     priorityqueue_api.obj
 0002:00002484       $unwind$?deallocate@?$allocator@U?$_List_node@U?$pair@$$CBHH@std@@PEAX@std@@@std@@QEAAXQEAU?$_List_node@U?$pair@$$CBHH@std@@PEAX@2@_K@Z 0000000180047484     priorityqueue_api.obj
 0002:0000248c       $unwind$?allocate@?$allocator@U?$_List_node@U?$pair@$$CBHH@std@@PEAX@std@@@std@@QEAAPEAU?$_List_node@U?$pair@$$CBHH@std@@PEAX@2@_K@Z 000000018004748c     priorityqueue_api.obj
 0002:00002494       $unwind$?deallocate@?$_Default_allocator_traits@V?$allocator@U?$_List_node@U?$pair@$$CBHH@std@@PEAX@std@@@std@@@std@@SAXAEAV?$allocator@U?$_List_node@U?$pair@$$CBHH@std@@PEAX@std@@@2@QEAU?$_List_node@U?$pair@$$CBHH@std@@PEAX@2@_K@Z 0000000180047494     priorityqueue_api.obj
 0002:0000249c       $unwind$??0?$list@U?$pair@$$CBHH@std@@V?$allocator@U?$pair@$$CBHH@std@@@2@@std@@QEAA@AEBV?$allocator@U?$pair@$$CBHH@std@@@1@@Z 000000018004749c     priorityqueue_api.obj
 0002:000024a4       $unwind$?_Swap_val@?$list@U?$pair@$$CBHH@std@@V?$allocator@U?$pair@$$CBHH@std@@@2@@std@@AEAAXAEAV12@@Z 00000001800474a4     priorityqueue_api.obj
 0002:000024ac       $unwind$??1?$list@U?$pair@$$CBHH@std@@V?$allocator@U?$pair@$$CBHH@std@@@2@@std@@QEAA@XZ 00000001800474ac     priorityqueue_api.obj
 0002:000024b4       $unwind$?end@?$list@U?$pair@$$CBHH@std@@V?$allocator@U?$pair@$$CBHH@std@@@2@@std@@QEAA?AV?$_List_iterator@V?$_List_val@U?$_List_simple_types@U?$pair@$$CBHH@std@@@std@@@std@@@2@XZ 00000001800474b4     priorityqueue_api.obj
 0002:000024bc       $unwind$?_Unchecked_begin@?$list@U?$pair@$$CBHH@std@@V?$allocator@U?$pair@$$CBHH@std@@@2@@std@@QEAA?AV?$_List_unchecked_iterator@V?$_List_val@U?$_List_simple_types@U?$pair@$$CBHH@std@@@std@@@std@@@2@XZ 00000001800474bc     priorityqueue_api.obj
 0002:000024c4       $unwind$?_Unchecked_end@?$list@U?$pair@$$CBHH@std@@V?$allocator@U?$pair@$$CBHH@std@@@2@@std@@QEAA?AV?$_List_unchecked_iterator@V?$_List_val@U?$_List_simple_types@U?$pair@$$CBHH@std@@@std@@@std@@@2@XZ 00000001800474c4     priorityqueue_api.obj
 0002:000024cc       $unwind$?_Make_iter@?$list@U?$pair@$$CBHH@std@@V?$allocator@U?$pair@$$CBHH@std@@@2@@std@@QEBA?AV?$_List_iterator@V?$_List_val@U?$_List_simple_types@U?$pair@$$CBHH@std@@@std@@@std@@@2@PEAU?$_List_node@U?$pair@$$CBHH@std@@PEAX@2@@Z 00000001800474cc     priorityqueue_api.obj
 0002:000024d4       $unwind$?max_size@?$list@U?$pair@$$CBHH@std@@V?$allocator@U?$pair@$$CBHH@std@@@2@@std@@QEBA_KXZ 00000001800474d4     priorityqueue_api.obj
 0002:000024dc       $unwind$?clear@?$list@U?$pair@$$CBHH@std@@V?$allocator@U?$pair@$$CBHH@std@@@2@@std@@QEAAXXZ 00000001800474dc     priorityqueue_api.obj
 0002:000024e4       $unwind$?_Tidy@?$list@U?$pair@$$CBHH@std@@V?$allocator@U?$pair@$$CBHH@std@@@2@@std@@AEAAXXZ 00000001800474e4     priorityqueue_api.obj
 0002:000024ec       $unwind$?_Alloc_sentinel_and_proxy@?$list@U?$pair@$$CBHH@std@@V?$allocator@U?$pair@$$CBHH@std@@@2@@std@@AEAAXXZ 00000001800474ec     priorityqueue_api.obj
 0002:000024f4       $unwind$?_Getal@?$list@U?$pair@$$CBHH@std@@V?$allocator@U?$pair@$$CBHH@std@@@2@@std@@AEAAAEAV?$allocator@U?$_List_node@U?$pair@$$CBHH@std@@PEAX@std@@@2@XZ 00000001800474f4     priorityqueue_api.obj
 0002:000024fc       $unwind$?_Getal@?$list@U?$pair@$$CBHH@std@@V?$allocator@U?$pair@$$CBHH@std@@@2@@std@@AEBAAEBV?$allocator@U?$_List_node@U?$pair@$$CBHH@std@@PEAX@std@@@2@XZ 00000001800474fc     priorityqueue_api.obj
 0002:00002504       $unwind$?_Unchecked_splice@?$_List_val@U?$_List_simple_types@U?$pair@$$CBHH@std@@@std@@@std@@SAPEAU?$_List_node@U?$pair@$$CBHH@std@@PEAX@2@QEAU32@00@Z 0000000180047504     priorityqueue_api.obj
 0002:0000250c       $unwind$??0?$_Hash@V?$_Umap_traits@HHV?$_Uhash_compare@HU?$hash@H@std@@U?$equal_to@H@2@@std@@V?$allocator@U?$pair@$$CBHH@std@@@2@$0A@@std@@@std@@IEAA@AEBV?$_Uhash_compare@HU?$hash@H@std@@U?$equal_to@H@2@@1@AEBV?$allocator@U?$pair@$$CBHH@std@@@1@@Z 000000018004750c     priorityqueue_api.obj
 0002:0000251c       $cppxdata$??0?$_Hash@V?$_Umap_traits@HHV?$_Uhash_compare@HU?$hash@H@std@@U?$equal_to@H@2@@std@@V?$allocator@U?$pair@$$CBHH@std@@@2@$0A@@std@@@std@@IEAA@AEBV?$_Uhash_compare@HU?$hash@H@std@@U?$equal_to@H@2@@1@AEBV?$allocator@U?$pair@$$CBHH@std@@@1@@Z 000000018004751c     priorityqueue_api.obj
 0002:00002525       $stateUnwindMap$??0?$_Hash@V?$_Umap_traits@HHV?$_Uhash_compare@HU?$hash@H@std@@U?$equal_to@H@2@@std@@V?$allocator@U?$pair@$$CBHH@std@@@2@$0A@@std@@@std@@IEAA@AEBV?$_Uhash_compare@HU?$hash@H@std@@U?$equal_to@H@2@@1@AEBV?$allocator@U?$pair@$$CBHH@std@@@1@@Z 0000000180047525     priorityqueue_api.obj
 0002:00002530       $ip2state$??0?$_Hash@V?$_Umap_traits@HHV?$_Uhash_compare@HU?$hash@H@std@@U?$equal_to@H@2@@std@@V?$allocator@U?$pair@$$CBHH@std@@@2@$0A@@std@@@std@@IEAA@AEBV?$_Uhash_compare@HU?$hash@H@std@@U?$equal_to@H@2@@1@AEBV?$allocator@U?$pair@$$CBHH@std@@@1@@Z 0000000180047530     priorityqueue_api.obj
 0002:0000253c       $unwind$?dtor$0@?0???0?$_Hash@V?$_Umap_traits@HHV?$_Uhash_compare@HU?$hash@H@std@@U?$equal_to@H@2@@std@@V?$allocator@U?$pair@$$CBHH@std@@@2@$0A@@std@@@std@@IEAA@AEBV?$_Uhash_compare@HU?$hash@H@std@@U?$equal_to@H@2@@1@AEBV?$allocator@U?$pair@$$CBHH@std@@@1@@Z@4HA 000000018004753c     priorityqueue_api.obj
 0002:00002544       $unwind$?dtor$1@?0???0?$_Hash@V?$_Umap_traits@HHV?$_Uhash_compare@HU?$hash@H@std@@U?$equal_to@H@2@@std@@V?$allocator@U?$pair@$$CBHH@std@@@2@$0A@@std@@@std@@IEAA@AEBV?$_Uhash_compare@HU?$hash@H@std@@U?$equal_to@H@2@@1@AEBV?$allocator@U?$pair@$$CBHH@std@@@1@@Z@4HA 0000000180047544     priorityqueue_api.obj
 0002:0000254c       $unwind$?_Swap_val@?$_Hash@V?$_Umap_traits@HHV?$_Uhash_compare@HU?$hash@H@std@@U?$equal_to@H@2@@std@@V?$allocator@U?$pair@$$CBHH@std@@@2@$0A@@std@@@std@@AEAAXAEAV12@@Z 000000018004754c     priorityqueue_api.obj
 0002:00002554       $unwind$?_Pocma_both@?$_Hash@V?$_Umap_traits@HHV?$_Uhash_compare@HU?$hash@H@std@@U?$equal_to@H@2@@std@@V?$allocator@U?$pair@$$CBHH@std@@@2@$0A@@std@@@std@@AEAAXAEAV12@@Z 0000000180047554     priorityqueue_api.obj
 0002:0000255c       $unwind$??4?$_Hash@V?$_Umap_traits@HHV?$_Uhash_compare@HU?$hash@H@std@@U?$equal_to@H@2@@std@@V?$allocator@U?$pair@$$CBHH@std@@@2@$0A@@std@@@std@@QEAAAEAV01@$$QEAV01@@Z 000000018004755c     priorityqueue_api.obj
 0002:00002564       $unwind$?end@?$_Hash@V?$_Umap_traits@HHV?$_Uhash_compare@HU?$hash@H@std@@U?$equal_to@H@2@@std@@V?$allocator@U?$pair@$$CBHH@std@@@2@$0A@@std@@@std@@QEAA?AV?$_List_iterator@V?$_List_val@U?$_List_simple_types@U?$pair@$$CBHH@std@@@std@@@std@@@2@XZ 0000000180047564     priorityqueue_api.obj
 0002:0000256c       $unwind$?_Unchecked_begin@?$_Hash@V?$_Umap_traits@HHV?$_Uhash_compare@HU?$hash@H@std@@U?$equal_to@H@2@@std@@V?$allocator@U?$pair@$$CBHH@std@@@2@$0A@@std@@@std@@QEAA?AV?$_List_unchecked_iterator@V?$_List_val@U?$_List_simple_types@U?$pair@$$CBHH@std@@@std@@@std@@@2@XZ 000000018004756c     priorityqueue_api.obj
 0002:00002574       $unwind$?_Unchecked_end@?$_Hash@V?$_Umap_traits@HHV?$_Uhash_compare@HU?$hash@H@std@@U?$equal_to@H@2@@std@@V?$allocator@U?$pair@$$CBHH@std@@@2@$0A@@std@@@std@@QEAA?AV?$_List_unchecked_iterator@V?$_List_val@U?$_List_simple_types@U?$pair@$$CBHH@std@@@std@@@std@@@2@XZ 0000000180047574     priorityqueue_api.obj
 0002:0000257c       $unwind$?bucket@?$_Hash@V?$_Umap_traits@HHV?$_Uhash_compare@HU?$hash@H@std@@U?$equal_to@H@2@@std@@V?$allocator@U?$pair@$$CBHH@std@@@2@$0A@@std@@@std@@QEBA_KAEBH@Z 000000018004757c     priorityqueue_api.obj
 0002:00002584       $unwind$?max_load_factor@?$_Hash@V?$_Umap_traits@HHV?$_Uhash_compare@HU?$hash@H@std@@U?$equal_to@H@2@@std@@V?$allocator@U?$pair@$$CBHH@std@@@2@$0A@@std@@@std@@QEBAMXZ 0000000180047584     priorityqueue_api.obj
 0002:0000258c       $unwind$?_Unchecked_erase@?$_Hash@V?$_Umap_traits@HHV?$_Uhash_compare@HU?$hash@H@std@@U?$equal_to@H@2@@std@@V?$allocator@U?$pair@$$CBHH@std@@@2@$0A@@std@@@std@@AEAAPEAU?$_List_node@U?$pair@$$CBHH@std@@PEAX@2@PEAU32@QEAU32@@Z 000000018004758c     priorityqueue_api.obj
 0002:00002594       $unwind$?clear@?$_Hash@V?$_Umap_traits@HHV?$_Uhash_compare@HU?$hash@H@std@@U?$equal_to@H@2@@std@@V?$allocator@U?$pair@$$CBHH@std@@@2@$0A@@std@@@std@@QEAAXXZ 0000000180047594     priorityqueue_api.obj
 0002:000025a4       $cppxdata$?clear@?$_Hash@V?$_Umap_traits@HHV?$_Uhash_compare@HU?$hash@H@std@@U?$equal_to@H@2@@std@@V?$allocator@U?$pair@$$CBHH@std@@@2@$0A@@std@@@std@@QEAAXXZ 00000001800475a4     priorityqueue_api.obj
 0002:000025a9       $ip2state$?clear@?$_Hash@V?$_Umap_traits@HHV?$_Uhash_compare@HU?$hash@H@std@@U?$equal_to@H@2@@std@@V?$allocator@U?$pair@$$CBHH@std@@@2@$0A@@std@@@std@@QEAAXXZ 00000001800475a9     priorityqueue_api.obj
 0002:000025ac       $unwind$?_Insert_new_node_before@?$_Hash@V?$_Umap_traits@HHV?$_Uhash_compare@HU?$hash@H@std@@U?$equal_to@H@2@@std@@V?$allocator@U?$pair@$$CBHH@std@@@2@$0A@@std@@@std@@IEAAPEAU?$_List_node@U?$pair@$$CBHH@std@@PEAX@2@_KQEAU32@1@Z 00000001800475ac     priorityqueue_api.obj
 0002:000025b4       $unwind$?_Check_max_size@?$_Hash@V?$_Umap_traits@HHV?$_Uhash_compare@HU?$hash@H@std@@U?$equal_to@H@2@@std@@V?$allocator@U?$pair@$$CBHH@std@@@2@$0A@@std@@@std@@IEBAXXZ 00000001800475b4     priorityqueue_api.obj
 0002:000025bc       $unwind$?_Check_rehash_required_1@?$_Hash@V?$_Umap_traits@HHV?$_Uhash_compare@HU?$hash@H@std@@U?$equal_to@H@2@@std@@V?$allocator@U?$pair@$$CBHH@std@@@2@$0A@@std@@@std@@IEBA_NXZ 00000001800475bc     priorityqueue_api.obj
 0002:000025c4       $unwind$?_Rehash_for_1@?$_Hash@V?$_Umap_traits@HHV?$_Uhash_compare@HU?$hash@H@std@@U?$equal_to@H@2@@std@@V?$allocator@U?$pair@$$CBHH@std@@@2@$0A@@std@@@std@@IEAAXXZ 00000001800475c4     priorityqueue_api.obj
 0002:000025cc       $unwind$?_Min_load_factor_buckets@?$_Hash@V?$_Umap_traits@HHV?$_Uhash_compare@HU?$hash@H@std@@U?$equal_to@H@2@@std@@V?$allocator@U?$pair@$$CBHH@std@@@2@$0A@@std@@@std@@IEBA_K_K@Z 00000001800475cc     priorityqueue_api.obj
 0002:000025dc       $cppxdata$?_Min_load_factor_buckets@?$_Hash@V?$_Umap_traits@HHV?$_Uhash_compare@HU?$hash@H@std@@U?$equal_to@H@2@@std@@V?$allocator@U?$pair@$$CBHH@std@@@2@$0A@@std@@@std@@IEBA_K_K@Z 00000001800475dc     priorityqueue_api.obj
 0002:000025e1       $ip2state$?_Min_load_factor_buckets@?$_Hash@V?$_Umap_traits@HHV?$_Uhash_compare@HU?$hash@H@std@@U?$equal_to@H@2@@std@@V?$allocator@U?$pair@$$CBHH@std@@@2@$0A@@std@@@std@@IEBA_K_K@Z 00000001800475e1     priorityqueue_api.obj
 0002:000025e4       $unwind$?_Desired_grow_bucket_count@?$_Hash@V?$_Umap_traits@HHV?$_Uhash_compare@HU?$hash@H@std@@U?$equal_to@H@2@@std@@V?$allocator@U?$pair@$$CBHH@std@@@2@$0A@@std@@@std@@IEBA_K_K@Z 00000001800475e4     priorityqueue_api.obj
 0002:000025ec       $unwind$?_Forced_rehash@?$_Hash@V?$_Umap_traits@HHV?$_Uhash_compare@HU?$hash@H@std@@U?$equal_to@H@2@@std@@V?$allocator@U?$pair@$$CBHH@std@@@2@$0A@@std@@@std@@IEAAX_K@Z 00000001800475ec     priorityqueue_api.obj
 0002:000025f4       $unwind$?_Max_bucket_size@?$_Hash@V?$_Umap_traits@HHV?$_Uhash_compare@HU?$hash@H@std@@U?$equal_to@H@2@@std@@V?$allocator@U?$pair@$$CBHH@std@@@2@$0A@@std@@@std@@IEAAAEAMXZ 00000001800475f4     priorityqueue_api.obj
 0002:000025fc       $unwind$?_Max_bucket_size@?$_Hash@V?$_Umap_traits@HHV?$_Uhash_compare@HU?$hash@H@std@@U?$equal_to@H@2@@std@@V?$allocator@U?$pair@$$CBHH@std@@@2@$0A@@std@@@std@@IEBAAEBMXZ 00000001800475fc     priorityqueue_api.obj
 0002:00002604       $unwind$?_Getal@?$_Hash@V?$_Umap_traits@HHV?$_Uhash_compare@HU?$hash@H@std@@U?$equal_to@H@2@@std@@V?$allocator@U?$pair@$$CBHH@std@@@2@$0A@@std@@@std@@IEAAAEAV?$allocator@U?$_List_node@U?$pair@$$CBHH@std@@PEAX@std@@@2@XZ 0000000180047604     priorityqueue_api.obj
 0002:0000260c       $unwind$?deallocate@?$allocator@V?$_List_unchecked_iterator@V?$_List_val@U?$_List_simple_types@U?$pair@$$CBHH@std@@@std@@@std@@@std@@@std@@QEAAXQEAV?$_List_unchecked_iterator@V?$_List_val@U?$_List_simple_types@U?$pair@$$CBHH@std@@@std@@@std@@@2@_K@Z 000000018004760c     priorityqueue_api.obj
 0002:00002614       $unwind$?allocate@?$allocator@V?$_List_unchecked_iterator@V?$_List_val@U?$_List_simple_types@U?$pair@$$CBHH@std@@@std@@@std@@@std@@@std@@QEAAPEAV?$_List_unchecked_iterator@V?$_List_val@U?$_List_simple_types@U?$pair@$$CBHH@std@@@std@@@std@@@2@_K@Z 0000000180047614     priorityqueue_api.obj
 0002:0000261c       $unwind$?max_size@?$_Hash_vec@V?$allocator@V?$_List_unchecked_iterator@V?$_List_val@U?$_List_simple_types@U?$pair@$$CBHH@std@@@std@@@std@@@std@@@std@@@std@@QEBA_KXZ 000000018004761c     priorityqueue_api.obj
 0002:00002624       $unwind$?_Assign_grow@?$_Hash_vec@V?$allocator@V?$_List_unchecked_iterator@V?$_List_val@U?$_List_simple_types@U?$pair@$$CBHH@std@@@std@@@std@@@std@@@std@@@std@@QEAAX_KV?$_List_unchecked_iterator@V?$_List_val@U?$_List_simple_types@U?$pair@$$CBHH@std@@@std@@@std@@@2@@Z 0000000180047624     priorityqueue_api.obj
 0002:0000262c       $unwind$?_Tidy@?$_Hash_vec@V?$allocator@V?$_List_unchecked_iterator@V?$_List_val@U?$_List_simple_types@U?$pair@$$CBHH@std@@@std@@@std@@@std@@@std@@@std@@QEAAXXZ 000000018004762c     priorityqueue_api.obj
 0002:0000263c       $cppxdata$?_Tidy@?$_Hash_vec@V?$allocator@V?$_List_unchecked_iterator@V?$_List_val@U?$_List_simple_types@U?$pair@$$CBHH@std@@@std@@@std@@@std@@@std@@@std@@QEAAXXZ 000000018004763c     priorityqueue_api.obj
 0002:00002641       $ip2state$?_Tidy@?$_Hash_vec@V?$allocator@V?$_List_unchecked_iterator@V?$_List_val@U?$_List_simple_types@U?$pair@$$CBHH@std@@@std@@@std@@@std@@@std@@@std@@QEAAXXZ 0000000180047641     priorityqueue_api.obj
 0002:00002644       $unwind$??1?$_Hash_vec@V?$allocator@V?$_List_unchecked_iterator@V?$_List_val@U?$_List_simple_types@U?$pair@$$CBHH@std@@@std@@@std@@@std@@@std@@@std@@QEAA@XZ 0000000180047644     priorityqueue_api.obj
 0002:0000264c       $unwind$?_Swap_val@?$_Vector_val@U?$_Simple_types@V?$_List_unchecked_iterator@V?$_List_val@U?$_List_simple_types@U?$pair@$$CBHH@std@@@std@@@std@@@std@@@std@@@std@@QEAAXAEAV12@@Z 000000018004764c     priorityqueue_api.obj
 0002:00002654       $unwind$??1?$_Hash@V?$_Umap_traits@HHV?$_Uhash_compare@HU?$hash@H@std@@U?$equal_to@H@2@@std@@V?$allocator@U?$pair@$$CBHH@std@@@2@$0A@@std@@@std@@QEAA@XZ 0000000180047654     priorityqueue_api.obj
 0002:0000265c       $unwind$??0?$unordered_map@HHU?$hash@H@std@@U?$equal_to@H@2@V?$allocator@U?$pair@$$CBHH@std@@@2@@std@@QEAA@XZ 000000018004765c     priorityqueue_api.obj
 0002:00002664       $unwind$??4?$unordered_map@HHU?$hash@H@std@@U?$equal_to@H@2@V?$allocator@U?$pair@$$CBHH@std@@@2@@std@@QEAAAEAV01@$$QEAV01@@Z 0000000180047664     priorityqueue_api.obj
 0002:00002674       $cppxdata$??4?$unordered_map@HHU?$hash@H@std@@U?$equal_to@H@2@V?$allocator@U?$pair@$$CBHH@std@@@2@@std@@QEAAAEAV01@$$QEAV01@@Z 0000000180047674     priorityqueue_api.obj
 0002:00002679       $ip2state$??4?$unordered_map@HHU?$hash@H@std@@U?$equal_to@H@2@V?$allocator@U?$pair@$$CBHH@std@@@2@@std@@QEAAAEAV01@$$QEAV01@@Z 0000000180047679     priorityqueue_api.obj
 0002:0000267c       $unwind$??A?$unordered_map@HHU?$hash@H@std@@U?$equal_to@H@2@V?$allocator@U?$pair@$$CBHH@std@@@2@@std@@QEAAAEAHAEBH@Z 000000018004767c     priorityqueue_api.obj
 0002:00002684       $unwind$??1?$unordered_map@HHU?$hash@H@std@@U?$equal_to@H@2@V?$allocator@U?$pair@$$CBHH@std@@@2@@std@@QEAA@XZ 0000000180047684     priorityqueue_api.obj
 0002:0000268c       $unwind$??0NodeMap@nav@@QEAA@H@Z 000000018004768c     priorityqueue_api.obj
 0002:0000269c       $cppxdata$??0NodeMap@nav@@QEAA@H@Z 000000018004769c     priorityqueue_api.obj
 0002:000026a5       $stateUnwindMap$??0NodeMap@nav@@QEAA@H@Z 00000001800476a5     priorityqueue_api.obj
 0002:000026b0       $ip2state$??0NodeMap@nav@@QEAA@H@Z 00000001800476b0     priorityqueue_api.obj
 0002:000026bc       $unwind$?dtor$0@?0???0NodeMap@nav@@QEAA@H@Z@4HA 00000001800476bc     priorityqueue_api.obj
 0002:000026c4       $unwind$?dtor$1@?0???0NodeMap@nav@@QEAA@H@Z@4HA 00000001800476c4     priorityqueue_api.obj
 0002:000026cc       $unwind$?insertNode@NodeMap@nav@@QEAAHPEBNH@Z 00000001800476cc     priorityqueue_api.obj
 0002:000026dc       $cppxdata$?insertNode@NodeMap@nav@@QEAAHPEBNH@Z 00000001800476dc     priorityqueue_api.obj
 0002:000026e5       $stateUnwindMap$?insertNode@NodeMap@nav@@QEAAHPEBNH@Z 00000001800476e5     priorityqueue_api.obj
 0002:000026eb       $ip2state$?insertNode@NodeMap@nav@@QEAAHPEBNH@Z 00000001800476eb     priorityqueue_api.obj
 0002:000026f4       $unwind$?dtor$0@?0??insertNode@NodeMap@nav@@QEAAHPEBNH@Z@4HA 00000001800476f4     priorityqueue_api.obj
 0002:000026fc       $unwind$?getNodeData@NodeMap@nav@@QEAA?AV?$vector@NV?$allocator@N@std@@@std@@HAEAH@Z 00000001800476fc     priorityqueue_api.obj
 0002:00002704       $unwind$?traceBack@NodeMap@nav@@QEAA?AV?$vector@V?$vector@NV?$allocator@N@std@@@std@@V?$allocator@V?$vector@NV?$allocator@N@std@@@std@@@2@@std@@H@Z 0000000180047704     priorityqueue_api.obj
 0002:00002714       $cppxdata$?traceBack@NodeMap@nav@@QEAA?AV?$vector@V?$vector@NV?$allocator@N@std@@@std@@V?$allocator@V?$vector@NV?$allocator@N@std@@@std@@@2@@std@@H@Z 0000000180047714     priorityqueue_api.obj
 0002:0000271d       $stateUnwindMap$?traceBack@NodeMap@nav@@QEAA?AV?$vector@V?$vector@NV?$allocator@N@std@@@std@@V?$allocator@V?$vector@NV?$allocator@N@std@@@std@@@2@@std@@H@Z 000000018004771d     priorityqueue_api.obj
 0002:00002723       $ip2state$?traceBack@NodeMap@nav@@QEAA?AV?$vector@V?$vector@NV?$allocator@N@std@@@std@@V?$allocator@V?$vector@NV?$allocator@N@std@@@std@@@2@@std@@H@Z 0000000180047723     priorityqueue_api.obj
 0002:0000272c       $unwind$?dtor$0@?0??traceBack@NodeMap@nav@@QEAA?AV?$vector@V?$vector@NV?$allocator@N@std@@@std@@V?$allocator@V?$vector@NV?$allocator@N@std@@@std@@@2@@std@@H@Z@4HA 000000018004772c     priorityqueue_api.obj
 0002:00002734       $unwind$?getNumNodes@NodeMap@nav@@QEAA_KXZ 0000000180047734     priorityqueue_api.obj
 0002:0000273c       $unwind$??1NodeMap@nav@@QEAA@XZ 000000018004773c     priorityqueue_api.obj
 0002:00002744       $unwind$??_GNodeMap@nav@@QEAAPEAXI@Z 0000000180047744     priorityqueue_api.obj
 0002:0000274c       $unwind$?deallocate@?$allocator@V?$vector@NV?$allocator@N@std@@@std@@@std@@QEAAXQEAV?$vector@NV?$allocator@N@std@@@2@_K@Z 000000018004774c     priorityqueue_api.obj
 0002:00002754       $unwind$?allocate@?$allocator@V?$vector@NV?$allocator@N@std@@@std@@@std@@QEAAPEAV?$vector@NV?$allocator@N@std@@@2@_K@Z 0000000180047754     priorityqueue_api.obj
 0002:0000275c       $unwind$??0?$vector@V?$vector@NV?$allocator@N@std@@@std@@V?$allocator@V?$vector@NV?$allocator@N@std@@@std@@@2@@std@@QEAA@XZ 000000018004775c     priorityqueue_api.obj
 0002:00002764       $unwind$??0?$vector@V?$vector@NV?$allocator@N@std@@@std@@V?$allocator@V?$vector@NV?$allocator@N@std@@@std@@@2@@std@@QEAA@$$QEAV01@@Z 0000000180047764     priorityqueue_api.obj
 0002:0000276c       $unwind$??1?$vector@V?$vector@NV?$allocator@N@std@@@std@@V?$allocator@V?$vector@NV?$allocator@N@std@@@std@@@2@@std@@QEAA@XZ 000000018004776c     priorityqueue_api.obj
 0002:00002774       $unwind$?push_back@?$vector@V?$vector@NV?$allocator@N@std@@@std@@V?$allocator@V?$vector@NV?$allocator@N@std@@@std@@@2@@std@@QEAAXAEBV?$vector@NV?$allocator@N@std@@@2@@Z 0000000180047774     priorityqueue_api.obj
 0002:0000277c       $unwind$?begin@?$vector@V?$vector@NV?$allocator@N@std@@@std@@V?$allocator@V?$vector@NV?$allocator@N@std@@@std@@@2@@std@@QEAA?AV?$_Vector_iterator@V?$_Vector_val@U?$_Simple_types@V?$vector@NV?$allocator@N@std@@@std@@@std@@@std@@@2@XZ 000000018004777c     priorityqueue_api.obj
 0002:00002784       $unwind$?end@?$vector@V?$vector@NV?$allocator@N@std@@@std@@V?$allocator@V?$vector@NV?$allocator@N@std@@@std@@@2@@std@@QEAA?AV?$_Vector_iterator@V?$_Vector_val@U?$_Simple_types@V?$vector@NV?$allocator@N@std@@@std@@@std@@@std@@@2@XZ 0000000180047784     priorityqueue_api.obj
 0002:0000278c       $unwind$?empty@?$vector@V?$vector@NV?$allocator@N@std@@@std@@V?$allocator@V?$vector@NV?$allocator@N@std@@@std@@@2@@std@@QEBA_NXZ 000000018004778c     priorityqueue_api.obj
 0002:00002794       $unwind$?size@?$vector@V?$vector@NV?$allocator@N@std@@@std@@V?$allocator@V?$vector@NV?$allocator@N@std@@@std@@@2@@std@@QEBA_KXZ 0000000180047794     priorityqueue_api.obj
 0002:0000279c       $unwind$?max_size@?$vector@V?$vector@NV?$allocator@N@std@@@std@@V?$allocator@V?$vector@NV?$allocator@N@std@@@std@@@2@@std@@QEBA_KXZ 000000018004779c     priorityqueue_api.obj
 0002:000027a4       $unwind$?capacity@?$vector@V?$vector@NV?$allocator@N@std@@@std@@V?$allocator@V?$vector@NV?$allocator@N@std@@@std@@@2@@std@@QEBA_KXZ 00000001800477a4     priorityqueue_api.obj
 0002:000027ac       $unwind$?_Calculate_growth@?$vector@V?$vector@NV?$allocator@N@std@@@std@@V?$allocator@V?$vector@NV?$allocator@N@std@@@std@@@2@@std@@AEBA_K_K@Z 00000001800477ac     priorityqueue_api.obj
 0002:000027b4       $unwind$?_Change_array@?$vector@V?$vector@NV?$allocator@N@std@@@std@@V?$allocator@V?$vector@NV?$allocator@N@std@@@std@@@2@@std@@AEAAXQEAV?$vector@NV?$allocator@N@std@@@2@_K1@Z 00000001800477b4     priorityqueue_api.obj
 0002:000027bc       $unwind$?_Tidy@?$vector@V?$vector@NV?$allocator@N@std@@@std@@V?$allocator@V?$vector@NV?$allocator@N@std@@@std@@@2@@std@@AEAAXXZ 00000001800477bc     priorityqueue_api.obj
 0002:000027cc       $cppxdata$?_Tidy@?$vector@V?$vector@NV?$allocator@N@std@@@std@@V?$allocator@V?$vector@NV?$allocator@N@std@@@std@@@2@@std@@AEAAXXZ 00000001800477cc     priorityqueue_api.obj
 0002:000027d1       $ip2state$?_Tidy@?$vector@V?$vector@NV?$allocator@N@std@@@std@@V?$allocator@V?$vector@NV?$allocator@N@std@@@std@@@2@@std@@AEAAXXZ 00000001800477d1     priorityqueue_api.obj
 0002:000027d4       $unwind$?_Xlength@?$vector@V?$vector@NV?$allocator@N@std@@@std@@V?$allocator@V?$vector@NV?$allocator@N@std@@@std@@@2@@std@@CAXXZ 00000001800477d4     priorityqueue_api.obj
 0002:000027dc       $unwind$?_Getal@?$vector@V?$vector@NV?$allocator@N@std@@@std@@V?$allocator@V?$vector@NV?$allocator@N@std@@@std@@@2@@std@@AEAAAEAV?$allocator@V?$vector@NV?$allocator@N@std@@@std@@@2@XZ 00000001800477dc     priorityqueue_api.obj
 0002:000027e4       $unwind$?_Getal@?$vector@V?$vector@NV?$allocator@N@std@@@std@@V?$allocator@V?$vector@NV?$allocator@N@std@@@std@@@2@@std@@AEBAAEBV?$allocator@V?$vector@NV?$allocator@N@std@@@std@@@2@XZ 00000001800477e4     priorityqueue_api.obj
 0002:000027ec       $unwind$??$find@X@?$_Hash@V?$_Umap_traits@HHV?$_Uhash_compare@HU?$hash@H@std@@U?$equal_to@H@2@@std@@V?$allocator@U?$pair@$$CBHH@std@@@2@$0A@@std@@@std@@QEAA?AV?$_List_iterator@V?$_List_val@U?$_List_simple_types@U?$pair@$$CBHH@std@@@std@@@std@@@1@AEBH@Z 00000001800477ec     priorityqueue_api.obj
 0002:000027f4       $unwind$??0?$_List_unchecked_const_iterator@V?$_List_val@U?$_List_simple_types@U?$pair@$$CBHH@std@@@std@@@std@@U_Iterator_base0@2@@std@@QEAA@PEAU?$_List_node@U?$pair@$$CBHH@std@@PEAX@1@PEBV?$_List_val@U?$_List_simple_types@U?$pair@$$CBHH@std@@@std@@@1@@Z 00000001800477f4     priorityqueue_api.obj
 0002:000027fc       $unwind$??8?$_List_unchecked_const_iterator@V?$_List_val@U?$_List_simple_types@U?$pair@$$CBHH@std@@@std@@@std@@U_Iterator_base0@2@@std@@QEBA_NAEBV01@@Z 00000001800477fc     priorityqueue_api.obj
 0002:00002804       $unwind$??9?$_List_unchecked_const_iterator@V?$_List_val@U?$_List_simple_types@U?$pair@$$CBHH@std@@@std@@@std@@U_Iterator_base0@2@@std@@QEBA_NAEBV01@@Z 0000000180047804     priorityqueue_api.obj
 0002:0000280c       $unwind$??8?$_List_const_iterator@V?$_List_val@U?$_List_simple_types@U?$pair@$$CBHH@std@@@std@@@std@@@std@@QEBA_NAEBV01@@Z 000000018004780c     priorityqueue_api.obj
 0002:00002814       $unwind$??9?$_List_const_iterator@V?$_List_val@U?$_List_simple_types@U?$pair@$$CBHH@std@@@std@@@std@@@std@@QEBA_NAEBV01@@Z 0000000180047814     priorityqueue_api.obj
 0002:0000281c       $unwind$??0?$_List_const_iterator@V?$_List_val@U?$_List_simple_types@U?$pair@$$CBHH@std@@@std@@@std@@@std@@QEAA@PEAU?$_List_node@U?$pair@$$CBHH@std@@PEAX@1@PEBV?$_List_val@U?$_List_simple_types@U?$pair@$$CBHH@std@@@std@@@1@@Z 000000018004781c     priorityqueue_api.obj
 0002:00002824       $unwind$??0?$_List_iterator@V?$_List_val@U?$_List_simple_types@U?$pair@$$CBHH@std@@@std@@@std@@@std@@QEAA@PEAU?$_List_node@U?$pair@$$CBHH@std@@PEAX@1@PEBV?$_List_val@U?$_List_simple_types@U?$pair@$$CBHH@std@@@std@@@1@@Z 0000000180047824     priorityqueue_api.obj
 0002:0000282c       $unwind$??$emplace_back@AEBHN@?$vector@V?$vector@NV?$allocator@N@std@@@std@@V?$allocator@V?$vector@NV?$allocator@N@std@@@std@@@2@@std@@QEAA?A_TAEBH$$QEAN@Z 000000018004782c     priorityqueue_api.obj
 0002:00002834       $unwind$??$_Emplace_one_at_back@AEBHN@?$vector@V?$vector@NV?$allocator@N@std@@@std@@V?$allocator@V?$vector@NV?$allocator@N@std@@@std@@@2@@std@@AEAAAEAV?$vector@NV?$allocator@N@std@@@1@AEBH$$QEAN@Z 0000000180047834     priorityqueue_api.obj
 0002:0000283c       $unwind$??Rcomparator@PriorityQueueImpl@nav@@QEBA_NAEBU?$pair@HV?$vector@NV?$allocator@N@std@@@std@@@std@@0@Z 000000018004783c     priorityqueue_api.obj
 0002:00002844       $unwind$?deallocate@?$allocator@U?$pair@HV?$vector@NV?$allocator@N@std@@@std@@@std@@@std@@QEAAXQEAU?$pair@HV?$vector@NV?$allocator@N@std@@@std@@@2@_K@Z 0000000180047844     priorityqueue_api.obj
 0002:0000284c       $unwind$?allocate@?$allocator@U?$pair@HV?$vector@NV?$allocator@N@std@@@std@@@std@@@std@@QEAAPEAU?$pair@HV?$vector@NV?$allocator@N@std@@@std@@@2@_K@Z 000000018004784c     priorityqueue_api.obj
 0002:00002854       $unwind$??0?$vector@U?$pair@HV?$vector@NV?$allocator@N@std@@@std@@@std@@V?$allocator@U?$pair@HV?$vector@NV?$allocator@N@std@@@std@@@std@@@2@@std@@QEAA@XZ 0000000180047854     priorityqueue_api.obj
 0002:0000285c       $unwind$??4?$vector@U?$pair@HV?$vector@NV?$allocator@N@std@@@std@@@std@@V?$allocator@U?$pair@HV?$vector@NV?$allocator@N@std@@@std@@@std@@@2@@std@@QEAAAEAV01@$$QEAV01@@Z 000000018004785c     priorityqueue_api.obj
 0002:00002864       $unwind$??1?$vector@U?$pair@HV?$vector@NV?$allocator@N@std@@@std@@@std@@V?$allocator@U?$pair@HV?$vector@NV?$allocator@N@std@@@std@@@std@@@2@@std@@QEAA@XZ 0000000180047864     priorityqueue_api.obj
 0002:0000286c       $unwind$?pop_back@?$vector@U?$pair@HV?$vector@NV?$allocator@N@std@@@std@@@std@@V?$allocator@U?$pair@HV?$vector@NV?$allocator@N@std@@@std@@@std@@@2@@std@@QEAAXXZ 000000018004786c     priorityqueue_api.obj
 0002:0000287c       $cppxdata$?pop_back@?$vector@U?$pair@HV?$vector@NV?$allocator@N@std@@@std@@@std@@V?$allocator@U?$pair@HV?$vector@NV?$allocator@N@std@@@std@@@std@@@2@@std@@QEAAXXZ 000000018004787c     priorityqueue_api.obj
 0002:00002881       $ip2state$?pop_back@?$vector@U?$pair@HV?$vector@NV?$allocator@N@std@@@std@@@std@@V?$allocator@U?$pair@HV?$vector@NV?$allocator@N@std@@@std@@@std@@@2@@std@@QEAAXXZ 0000000180047881     priorityqueue_api.obj
 0002:00002884       $unwind$?begin@?$vector@U?$pair@HV?$vector@NV?$allocator@N@std@@@std@@@std@@V?$allocator@U?$pair@HV?$vector@NV?$allocator@N@std@@@std@@@std@@@2@@std@@QEAA?AV?$_Vector_iterator@V?$_Vector_val@U?$_Simple_types@U?$pair@HV?$vector@NV?$allocator@N@std@@@std@@@std@@@std@@@std@@@2@XZ 0000000180047884     priorityqueue_api.obj
 0002:0000288c       $unwind$?end@?$vector@U?$pair@HV?$vector@NV?$allocator@N@std@@@std@@@std@@V?$allocator@U?$pair@HV?$vector@NV?$allocator@N@std@@@std@@@std@@@2@@std@@QEAA?AV?$_Vector_iterator@V?$_Vector_val@U?$_Simple_types@U?$pair@HV?$vector@NV?$allocator@N@std@@@std@@@std@@@std@@@std@@@2@XZ 000000018004788c     priorityqueue_api.obj
 0002:00002894       $unwind$?empty@?$vector@U?$pair@HV?$vector@NV?$allocator@N@std@@@std@@@std@@V?$allocator@U?$pair@HV?$vector@NV?$allocator@N@std@@@std@@@std@@@2@@std@@QEBA_NXZ 0000000180047894     priorityqueue_api.obj
 0002:0000289c       $unwind$?size@?$vector@U?$pair@HV?$vector@NV?$allocator@N@std@@@std@@@std@@V?$allocator@U?$pair@HV?$vector@NV?$allocator@N@std@@@std@@@std@@@2@@std@@QEBA_KXZ 000000018004789c     priorityqueue_api.obj
 0002:000028a4       $unwind$?max_size@?$vector@U?$pair@HV?$vector@NV?$allocator@N@std@@@std@@@std@@V?$allocator@U?$pair@HV?$vector@NV?$allocator@N@std@@@std@@@std@@@2@@std@@QEBA_KXZ 00000001800478a4     priorityqueue_api.obj
 0002:000028ac       $unwind$?capacity@?$vector@U?$pair@HV?$vector@NV?$allocator@N@std@@@std@@@std@@V?$allocator@U?$pair@HV?$vector@NV?$allocator@N@std@@@std@@@std@@@2@@std@@QEBA_KXZ 00000001800478ac     priorityqueue_api.obj
 0002:000028b4       $unwind$?front@?$vector@U?$pair@HV?$vector@NV?$allocator@N@std@@@std@@@std@@V?$allocator@U?$pair@HV?$vector@NV?$allocator@N@std@@@std@@@std@@@2@@std@@QEBAAEBU?$pair@HV?$vector@NV?$allocator@N@std@@@std@@@2@XZ 00000001800478b4     priorityqueue_api.obj
 0002:000028bc       $unwind$?_Calculate_growth@?$vector@U?$pair@HV?$vector@NV?$allocator@N@std@@@std@@@std@@V?$allocator@U?$pair@HV?$vector@NV?$allocator@N@std@@@std@@@std@@@2@@std@@AEBA_K_K@Z 00000001800478bc     priorityqueue_api.obj
 0002:000028c4       $unwind$?_Change_array@?$vector@U?$pair@HV?$vector@NV?$allocator@N@std@@@std@@@std@@V?$allocator@U?$pair@HV?$vector@NV?$allocator@N@std@@@std@@@std@@@2@@std@@AEAAXQEAU?$pair@HV?$vector@NV?$allocator@N@std@@@std@@@2@_K1@Z 00000001800478c4     priorityqueue_api.obj
 0002:000028cc       $unwind$?_Tidy@?$vector@U?$pair@HV?$vector@NV?$allocator@N@std@@@std@@@std@@V?$allocator@U?$pair@HV?$vector@NV?$allocator@N@std@@@std@@@std@@@2@@std@@AEAAXXZ 00000001800478cc     priorityqueue_api.obj
 0002:000028dc       $cppxdata$?_Tidy@?$vector@U?$pair@HV?$vector@NV?$allocator@N@std@@@std@@@std@@V?$allocator@U?$pair@HV?$vector@NV?$allocator@N@std@@@std@@@std@@@2@@std@@AEAAXXZ 00000001800478dc     priorityqueue_api.obj
 0002:000028e1       $ip2state$?_Tidy@?$vector@U?$pair@HV?$vector@NV?$allocator@N@std@@@std@@@std@@V?$allocator@U?$pair@HV?$vector@NV?$allocator@N@std@@@std@@@std@@@2@@std@@AEAAXXZ 00000001800478e1     priorityqueue_api.obj
 0002:000028e4       $unwind$?_Xlength@?$vector@U?$pair@HV?$vector@NV?$allocator@N@std@@@std@@@std@@V?$allocator@U?$pair@HV?$vector@NV?$allocator@N@std@@@std@@@std@@@2@@std@@CAXXZ 00000001800478e4     priorityqueue_api.obj
 0002:000028ec       $unwind$?_Getal@?$vector@U?$pair@HV?$vector@NV?$allocator@N@std@@@std@@@std@@V?$allocator@U?$pair@HV?$vector@NV?$allocator@N@std@@@std@@@std@@@2@@std@@AEAAAEAV?$allocator@U?$pair@HV?$vector@NV?$allocator@N@std@@@std@@@std@@@2@XZ 00000001800478ec     priorityqueue_api.obj
 0002:000028f4       $unwind$?_Getal@?$vector@U?$pair@HV?$vector@NV?$allocator@N@std@@@std@@@std@@V?$allocator@U?$pair@HV?$vector@NV?$allocator@N@std@@@std@@@std@@@2@@std@@AEBAAEBV?$allocator@U?$pair@HV?$vector@NV?$allocator@N@std@@@std@@@std@@@2@XZ 00000001800478f4     priorityqueue_api.obj
 0002:000028fc       $unwind$?_Take_contents@?$_Vector_val@U?$_Simple_types@U?$pair@HV?$vector@NV?$allocator@N@std@@@std@@@std@@@std@@@std@@QEAAXAEAV12@@Z 00000001800478fc     priorityqueue_api.obj
 0002:00002904       $unwind$??0?$priority_queue@U?$pair@HV?$vector@NV?$allocator@N@std@@@std@@@std@@V?$vector@U?$pair@HV?$vector@NV?$allocator@N@std@@@std@@@std@@V?$allocator@U?$pair@HV?$vector@NV?$allocator@N@std@@@std@@@std@@@2@@2@Ucomparator@PriorityQueueImpl@nav@@@std@@QEAA@XZ 0000000180047904     priorityqueue_api.obj
 0002:00002914       $cppxdata$??0?$priority_queue@U?$pair@HV?$vector@NV?$allocator@N@std@@@std@@@std@@V?$vector@U?$pair@HV?$vector@NV?$allocator@N@std@@@std@@@std@@V?$allocator@U?$pair@HV?$vector@NV?$allocator@N@std@@@std@@@std@@@2@@2@Ucomparator@PriorityQueueImpl@nav@@@std@@QEAA@XZ 0000000180047914     priorityqueue_api.obj
 0002:0000291d       $stateUnwindMap$??0?$priority_queue@U?$pair@HV?$vector@NV?$allocator@N@std@@@std@@@std@@V?$vector@U?$pair@HV?$vector@NV?$allocator@N@std@@@std@@@std@@V?$allocator@U?$pair@HV?$vector@NV?$allocator@N@std@@@std@@@std@@@2@@2@Ucomparator@PriorityQueueImpl@nav@@@std@@QEAA@XZ 000000018004791d     priorityqueue_api.obj
 0002:00002923       $ip2state$??0?$priority_queue@U?$pair@HV?$vector@NV?$allocator@N@std@@@std@@@std@@V?$vector@U?$pair@HV?$vector@NV?$allocator@N@std@@@std@@@std@@V?$allocator@U?$pair@HV?$vector@NV?$allocator@N@std@@@std@@@std@@@2@@2@Ucomparator@PriorityQueueImpl@nav@@@std@@QEAA@XZ 0000000180047923     priorityqueue_api.obj
 0002:0000292c       $unwind$?dtor$0@?0???0?$priority_queue@U?$pair@HV?$vector@NV?$allocator@N@std@@@std@@@std@@V?$vector@U?$pair@HV?$vector@NV?$allocator@N@std@@@std@@@std@@V?$allocator@U?$pair@HV?$vector@NV?$allocator@N@std@@@std@@@std@@@2@@2@Ucomparator@PriorityQueueImpl@nav@@@std@@QEAA@XZ@4HA 000000018004792c     priorityqueue_api.obj
 0002:00002934       $unwind$??0?$priority_queue@U?$pair@HV?$vector@NV?$allocator@N@std@@@std@@@std@@V?$vector@U?$pair@HV?$vector@NV?$allocator@N@std@@@std@@@std@@V?$allocator@U?$pair@HV?$vector@NV?$allocator@N@std@@@std@@@std@@@2@@2@Ucomparator@PriorityQueueImpl@nav@@@std@@QEAA@AEBUcomparator@PriorityQueueImpl@nav@@@Z 0000000180047934     priorityqueue_api.obj
 0002:0000293c       $unwind$?empty@?$priority_queue@U?$pair@HV?$vector@NV?$allocator@N@std@@@std@@@std@@V?$vector@U?$pair@HV?$vector@NV?$allocator@N@std@@@std@@@std@@V?$allocator@U?$pair@HV?$vector@NV?$allocator@N@std@@@std@@@std@@@2@@2@Ucomparator@PriorityQueueImpl@nav@@@std@@QEBA_NXZ 000000018004793c     priorityqueue_api.obj
 0002:00002944       $unwind$?size@?$priority_queue@U?$pair@HV?$vector@NV?$allocator@N@std@@@std@@@std@@V?$vector@U?$pair@HV?$vector@NV?$allocator@N@std@@@std@@@std@@V?$allocator@U?$pair@HV?$vector@NV?$allocator@N@std@@@std@@@std@@@2@@2@Ucomparator@PriorityQueueImpl@nav@@@std@@QEBA_KXZ 0000000180047944     priorityqueue_api.obj
 0002:0000294c       $unwind$?top@?$priority_queue@U?$pair@HV?$vector@NV?$allocator@N@std@@@std@@@std@@V?$vector@U?$pair@HV?$vector@NV?$allocator@N@std@@@std@@@std@@V?$allocator@U?$pair@HV?$vector@NV?$allocator@N@std@@@std@@@std@@@2@@2@Ucomparator@PriorityQueueImpl@nav@@@std@@QEBAAEBU?$pair@HV?$vector@NV?$allocator@N@std@@@std@@@2@XZ 000000018004794c     priorityqueue_api.obj
 0002:00002954       $unwind$?pop@?$priority_queue@U?$pair@HV?$vector@NV?$allocator@N@std@@@std@@@std@@V?$vector@U?$pair@HV?$vector@NV?$allocator@N@std@@@std@@@std@@V?$allocator@U?$pair@HV?$vector@NV?$allocator@N@std@@@std@@@std@@@2@@2@Ucomparator@PriorityQueueImpl@nav@@@std@@QEAAXXZ 0000000180047954     priorityqueue_api.obj
 0002:0000295c       $unwind$??1?$priority_queue@U?$pair@HV?$vector@NV?$allocator@N@std@@@std@@@std@@V?$vector@U?$pair@HV?$vector@NV?$allocator@N@std@@@std@@@std@@V?$allocator@U?$pair@HV?$vector@NV?$allocator@N@std@@@std@@@std@@@2@@2@Ucomparator@PriorityQueueImpl@nav@@@std@@QEAA@XZ 000000018004795c     priorityqueue_api.obj
 0002:00002964       $unwind$??4?$priority_queue@U?$pair@HV?$vector@NV?$allocator@N@std@@@std@@@std@@V?$vector@U?$pair@HV?$vector@NV?$allocator@N@std@@@std@@@std@@V?$allocator@U?$pair@HV?$vector@NV?$allocator@N@std@@@std@@@std@@@2@@2@Ucomparator@PriorityQueueImpl@nav@@@std@@QEAAAEAV01@$$QEAV01@@Z 0000000180047964     priorityqueue_api.obj
 0002:0000296c       $unwind$??0PriorityQueueImpl@nav@@QEAA@HH@Z 000000018004796c     priorityqueue_api.obj
 0002:0000297c       $cppxdata$??0PriorityQueueImpl@nav@@QEAA@HH@Z 000000018004797c     priorityqueue_api.obj
 0002:00002985       $stateUnwindMap$??0PriorityQueueImpl@nav@@QEAA@HH@Z 0000000180047985     priorityqueue_api.obj
 0002:0000298b       $ip2state$??0PriorityQueueImpl@nav@@QEAA@HH@Z 000000018004798b     priorityqueue_api.obj
 0002:00002994       $unwind$?dtor$0@?0???0PriorityQueueImpl@nav@@QEAA@HH@Z@4HA 0000000180047994     priorityqueue_api.obj
 0002:0000299c       $unwind$?push@PriorityQueueImpl@nav@@QEAAHPEBN@Z 000000018004799c     priorityqueue_api.obj
 0002:000029ac       $cppxdata$?push@PriorityQueueImpl@nav@@QEAAHPEBN@Z 00000001800479ac     priorityqueue_api.obj
 0002:000029b5       $stateUnwindMap$?push@PriorityQueueImpl@nav@@QEAAHPEBN@Z 00000001800479b5     priorityqueue_api.obj
 0002:000029bb       $ip2state$?push@PriorityQueueImpl@nav@@QEAAHPEBN@Z 00000001800479bb     priorityqueue_api.obj
 0002:000029c4       $unwind$?dtor$0@?0??push@PriorityQueueImpl@nav@@QEAAHPEBN@Z@4HA 00000001800479c4     priorityqueue_api.obj
 0002:000029cc       $unwind$?top@PriorityQueueImpl@nav@@QEAA?AU?$pair@HV?$vector@NV?$allocator@N@std@@@std@@@std@@XZ 00000001800479cc     priorityqueue_api.obj
 0002:000029d4       $unwind$?pop@PriorityQueueImpl@nav@@QEAAXXZ 00000001800479d4     priorityqueue_api.obj
 0002:000029dc       $unwind$?size@PriorityQueueImpl@nav@@QEAAHXZ 00000001800479dc     priorityqueue_api.obj
 0002:000029e4       $unwind$?isEmpty@PriorityQueueImpl@nav@@QEAA_NXZ 00000001800479e4     priorityqueue_api.obj
 0002:000029ec       $unwind$??1PriorityQueueImpl@nav@@QEAA@XZ 00000001800479ec     priorityqueue_api.obj
 0002:000029f4       $unwind$??_GPriorityQueueImpl@nav@@QEAAPEAXI@Z 00000001800479f4     priorityqueue_api.obj
 0002:000029fc       $unwind$??0?$pair@HV?$vector@NV?$allocator@N@std@@@std@@@std@@QEAA@AEBU01@@Z 00000001800479fc     priorityqueue_api.obj
 0002:00002a04       $unwind$??0?$pair@HV?$vector@NV?$allocator@N@std@@@std@@@std@@QEAA@$$QEAU01@@Z 0000000180047a04     priorityqueue_api.obj
 0002:00002a0c       $unwind$??1?$pair@HV?$vector@NV?$allocator@N@std@@@std@@@std@@QEAA@XZ 0000000180047a0c     priorityqueue_api.obj
 0002:00002a14       $unwind$??_G?$pair@HV?$vector@NV?$allocator@N@std@@@std@@@std@@QEAAPEAXI@Z 0000000180047a14     priorityqueue_api.obj
 0002:00002a1c       $unwind$??$emplace@AEAHV?$vector@NV?$allocator@N@std@@@std@@@?$priority_queue@U?$pair@HV?$vector@NV?$allocator@N@std@@@std@@@std@@V?$vector@U?$pair@HV?$vector@NV?$allocator@N@std@@@std@@@std@@V?$allocator@U?$pair@HV?$vector@NV?$allocator@N@std@@@std@@@std@@@2@@2@Ucomparator@PriorityQueueImpl@nav@@@std@@QEAAXAEAH$$QEAV?$vector@NV?$allocator@N@std@@@1@@Z 0000000180047a1c     priorityqueue_api.obj
 0002:00002a24       $unwind$??$make_pair@HV?$vector@NV?$allocator@N@std@@@std@@@std@@YA?AU?$pair@HV?$vector@NV?$allocator@N@std@@@std@@@0@$$QEAH$$QEAV?$vector@NV?$allocator@N@std@@@0@@Z 0000000180047a24     priorityqueue_api.obj
 0002:00002a2c       $unwind$priorityqueuecodegen_constructPQ 0000000180047a2c     priorityqueue_api.obj
 0002:00002a3c       $cppxdata$priorityqueuecodegen_constructPQ 0000000180047a3c     priorityqueue_api.obj
 0002:00002a45       $stateUnwindMap$priorityqueuecodegen_constructPQ 0000000180047a45     priorityqueue_api.obj
 0002:00002a4b       $ip2state$priorityqueuecodegen_constructPQ 0000000180047a4b     priorityqueue_api.obj
 0002:00002a54       $unwind$priorityqueuecodegen_constructPQ$dtor$0 0000000180047a54     priorityqueue_api.obj
 0002:00002a5c       $unwind$priorityqueuecodegen_destructPQ 0000000180047a5c     priorityqueue_api.obj
 0002:00002a64       $unwind$priorityqueuecodegen_push 0000000180047a64     priorityqueue_api.obj
 0002:00002a6c       $unwind$priorityqueuecodegen_top 0000000180047a6c     priorityqueue_api.obj
 0002:00002a74       $unwind$priorityqueuecodegen_pop 0000000180047a74     priorityqueue_api.obj
 0002:00002a7c       $unwind$priorityqueuecodegen_size 0000000180047a7c     priorityqueue_api.obj
 0002:00002a84       $unwind$priorityqueuecodegen_isEmpty 0000000180047a84     priorityqueue_api.obj
 0002:00002a8c       $unwind$priorityqueuecodegen_getDataDim 0000000180047a8c     priorityqueue_api.obj
 0002:00002a94       $unwind$priorityqueuecodegen_constructNodeMap 0000000180047a94     priorityqueue_api.obj
 0002:00002aa4       $cppxdata$priorityqueuecodegen_constructNodeMap 0000000180047aa4     priorityqueue_api.obj
 0002:00002aad       $stateUnwindMap$priorityqueuecodegen_constructNodeMap 0000000180047aad     priorityqueue_api.obj
 0002:00002ab3       $ip2state$priorityqueuecodegen_constructNodeMap 0000000180047ab3     priorityqueue_api.obj
 0002:00002abc       $unwind$priorityqueuecodegen_constructNodeMap$dtor$0 0000000180047abc     priorityqueue_api.obj
 0002:00002ac4       $unwind$priorityqueuecodegen_destructNodeMap 0000000180047ac4     priorityqueue_api.obj
 0002:00002acc       $unwind$priorityqueuecodegen_nodemap_getDataDim 0000000180047acc     priorityqueue_api.obj
 0002:00002ad4       $unwind$priorityqueuecodegen_nodemap_getNumNodes 0000000180047ad4     priorityqueue_api.obj
 0002:00002adc       $unwind$priorityqueuecodegen_nodemap_traceBack 0000000180047adc     priorityqueue_api.obj
 0002:00002ae4       $unwind$priorityqueuecodegen_nodemap_insertNode 0000000180047ae4     priorityqueue_api.obj
 0002:00002aec       $unwind$priorityqueuecodegen_nodemap_getNodeData 0000000180047aec     priorityqueue_api.obj
 0002:00002af4       $unwind$priorityqueuecodegen_constructSimpleMap 0000000180047af4     priorityqueue_api.obj
 0002:00002b04       $cppxdata$priorityqueuecodegen_constructSimpleMap 0000000180047b04     priorityqueue_api.obj
 0002:00002b0d       $stateUnwindMap$priorityqueuecodegen_constructSimpleMap 0000000180047b0d     priorityqueue_api.obj
 0002:00002b13       $ip2state$priorityqueuecodegen_constructSimpleMap 0000000180047b13     priorityqueue_api.obj
 0002:00002b1c       $unwind$priorityqueuecodegen_constructSimpleMap$dtor$0 0000000180047b1c     priorityqueue_api.obj
 0002:00002b24       $unwind$priorityqueuecodegen_destructSimpleMap 0000000180047b24     priorityqueue_api.obj
 0002:00002b2c       $unwind$priorityqueuecodegen_simplemap_getDataDim 0000000180047b2c     priorityqueue_api.obj
 0002:00002b34       $unwind$priorityqueuecodegen_simplemap_getSize 0000000180047b34     priorityqueue_api.obj
 0002:00002b3c       $unwind$priorityqueuecodegen_simplemap_insertData 0000000180047b3c     priorityqueue_api.obj
 0002:00002b44       $unwind$priorityqueuecodegen_simplemap_getData 0000000180047b44     priorityqueue_api.obj
 0002:00002b4c       $unwind$??0?$_Vector_const_iterator@V?$_Vector_val@U?$_Simple_types@V?$vector@NV?$allocator@N@std@@@std@@@std@@@std@@@std@@QEAA@PEAV?$vector@NV?$allocator@N@std@@@1@PEBU_Container_base0@1@@Z 0000000180047b4c     priorityqueue_api.obj
 0002:00002b54       $unwind$??8?$_Vector_const_iterator@V?$_Vector_val@U?$_Simple_types@V?$vector@NV?$allocator@N@std@@@std@@@std@@@std@@@std@@QEBA_NAEBV01@@Z 0000000180047b54     priorityqueue_api.obj
 0002:00002b5c       $unwind$??9?$_Vector_const_iterator@V?$_Vector_val@U?$_Simple_types@V?$vector@NV?$allocator@N@std@@@std@@@std@@@std@@@std@@QEBA_NAEBV01@@Z 0000000180047b5c     priorityqueue_api.obj
 0002:00002b64       $unwind$??D?$_Vector_iterator@V?$_Vector_val@U?$_Simple_types@V?$vector@NV?$allocator@N@std@@@std@@@std@@@std@@@std@@QEBAAEAV?$vector@NV?$allocator@N@std@@@1@XZ 0000000180047b64     priorityqueue_api.obj
 0002:00002b6c       $unwind$??E?$_Vector_iterator@V?$_Vector_val@U?$_Simple_types@V?$vector@NV?$allocator@N@std@@@std@@@std@@@std@@@std@@QEAAAEAV01@XZ 0000000180047b6c     priorityqueue_api.obj
 0002:00002b74       $unwind$??0?$_Vector_iterator@V?$_Vector_val@U?$_Simple_types@V?$vector@NV?$allocator@N@std@@@std@@@std@@@std@@@std@@QEAA@PEAV?$vector@NV?$allocator@N@std@@@1@PEBU_Container_base0@1@@Z 0000000180047b74     priorityqueue_api.obj
 0002:00002b7c       $unwind$??0?$_Vector_const_iterator@V?$_Vector_val@U?$_Simple_types@U?$pair@HV?$vector@NV?$allocator@N@std@@@std@@@std@@@std@@@std@@@std@@QEAA@PEAU?$pair@HV?$vector@NV?$allocator@N@std@@@std@@@1@PEBU_Container_base0@1@@Z 0000000180047b7c     priorityqueue_api.obj
 0002:00002b84       $unwind$?_Unwrapped@?$_Vector_iterator@V?$_Vector_val@U?$_Simple_types@U?$pair@HV?$vector@NV?$allocator@N@std@@@std@@@std@@@std@@@std@@@std@@QEBAPEAU?$pair@HV?$vector@NV?$allocator@N@std@@@std@@@2@XZ 0000000180047b84     priorityqueue_api.obj
 0002:00002b8c       $unwind$??0?$_Vector_iterator@V?$_Vector_val@U?$_Simple_types@U?$pair@HV?$vector@NV?$allocator@N@std@@@std@@@std@@@std@@@std@@@std@@QEAA@PEAU?$pair@HV?$vector@NV?$allocator@N@std@@@std@@@1@PEBU_Container_base0@1@@Z 0000000180047b8c     priorityqueue_api.obj
 0002:00002b94       $unwind$??$_Pass_fn@Ucomparator@PriorityQueueImpl@nav@@@std@@YA?A_PAEAUcomparator@PriorityQueueImpl@nav@@@Z 0000000180047b94     priorityqueue_api.obj
 0002:00002b9c       $unwind$??$pop_heap@V?$_Vector_iterator@V?$_Vector_val@U?$_Simple_types@U?$pair@HV?$vector@NV?$allocator@N@std@@@std@@@std@@@std@@@std@@@std@@Ucomparator@PriorityQueueImpl@nav@@@std@@YAXV?$_Vector_iterator@V?$_Vector_val@U?$_Simple_types@U?$pair@HV?$vector@NV?$allocator@N@std@@@std@@@std@@@std@@@std@@@0@0Ucomparator@PriorityQueueImpl@nav@@@Z 0000000180047b9c     priorityqueue_api.obj
 0002:00002ba4       $unwind$??$_Pocma@V?$allocator@U?$pair@HV?$vector@NV?$allocator@N@std@@@std@@@std@@@std@@@std@@YAXAEAV?$allocator@U?$pair@HV?$vector@NV?$allocator@N@std@@@std@@@std@@@0@0@Z 0000000180047ba4     priorityqueue_api.obj
 0002:00002bac       $unwind$??$?0$$V@?$_Compressed_pair@V?$allocator@U?$pair@HV?$vector@NV?$allocator@N@std@@@std@@@std@@@std@@V?$_Vector_val@U?$_Simple_types@U?$pair@HV?$vector@NV?$allocator@N@std@@@std@@@std@@@std@@@2@$00@std@@QEAA@U_Zero_then_variadic_args_t@1@@Z 0000000180047bac     priorityqueue_api.obj
 0002:00002bb4       $unwind$??$_Emplace_one_at_back@AEBV?$vector@NV?$allocator@N@std@@@std@@@?$vector@V?$vector@NV?$allocator@N@std@@@std@@V?$allocator@V?$vector@NV?$allocator@N@std@@@std@@@2@@std@@AEAAAEAV?$vector@NV?$allocator@N@std@@@1@AEBV21@@Z 0000000180047bb4     priorityqueue_api.obj
 0002:00002bbc       $unwind$??$exchange@PEAV?$vector@NV?$allocator@N@std@@@std@@$$T@std@@YAPEAV?$vector@NV?$allocator@N@std@@@0@AEAPEAV10@$$QEA$$T@Z 0000000180047bbc     priorityqueue_api.obj
 0002:00002bc4       $unwind$??$?0V?$allocator@V?$vector@NV?$allocator@N@std@@@std@@@std@@PEAV?$vector@NV?$allocator@N@std@@@1@PEAV21@PEAV21@@?$_Compressed_pair@V?$allocator@V?$vector@NV?$allocator@N@std@@@std@@@std@@V?$_Vector_val@U?$_Simple_types@V?$vector@NV?$allocator@N@std@@@std@@@std@@@2@$00@std@@QEAA@U_One_then_variadic_args_t@1@$$QEAV?$allocator@V?$vector@NV?$allocator@N@std@@@std@@@1@$$QEAPEAV?$vector@NV?$allocator@N@std@@@1@22@Z 0000000180047bc4     priorityqueue_api.obj
 0002:00002bcc       $unwind$??$?0$$V@?$_Compressed_pair@V?$allocator@V?$vector@NV?$allocator@N@std@@@std@@@std@@V?$_Vector_val@U?$_Simple_types@V?$vector@NV?$allocator@N@std@@@std@@@std@@@2@$00@std@@QEAA@U_Zero_then_variadic_args_t@1@@Z 0000000180047bcc     priorityqueue_api.obj
 0002:00002bd4       $unwind$??$_Try_emplace@AEBH$$V@?$_Hash@V?$_Umap_traits@HHV?$_Uhash_compare@HU?$hash@H@std@@U?$equal_to@H@2@@std@@V?$allocator@U?$pair@$$CBHH@std@@@2@$0A@@std@@@std@@IEAA?AU?$pair@PEAU?$_List_node@U?$pair@$$CBHH@std@@PEAX@std@@_N@1@AEBH@Z 0000000180047bd4     priorityqueue_api.obj
 0002:00002be8       $cppxdata$??$_Try_emplace@AEBH$$V@?$_Hash@V?$_Umap_traits@HHV?$_Uhash_compare@HU?$hash@H@std@@U?$equal_to@H@2@@std@@V?$allocator@U?$pair@$$CBHH@std@@@2@$0A@@std@@@std@@IEAA?AU?$pair@PEAU?$_List_node@U?$pair@$$CBHH@std@@PEAX@std@@_N@1@AEBH@Z 0000000180047be8     priorityqueue_api.obj
 0002:00002bf1       $stateUnwindMap$??$_Try_emplace@AEBH$$V@?$_Hash@V?$_Umap_traits@HHV?$_Uhash_compare@HU?$hash@H@std@@U?$equal_to@H@2@@std@@V?$allocator@U?$pair@$$CBHH@std@@@2@$0A@@std@@@std@@IEAA?AU?$pair@PEAU?$_List_node@U?$pair@$$CBHH@std@@PEAX@std@@_N@1@AEBH@Z 0000000180047bf1     priorityqueue_api.obj
 0002:00002bf7       $ip2state$??$_Try_emplace@AEBH$$V@?$_Hash@V?$_Umap_traits@HHV?$_Uhash_compare@HU?$hash@H@std@@U?$equal_to@H@2@@std@@V?$allocator@U?$pair@$$CBHH@std@@@2@$0A@@std@@@std@@IEAA?AU?$pair@PEAU?$_List_node@U?$pair@$$CBHH@std@@PEAX@std@@_N@1@AEBH@Z 0000000180047bf7     priorityqueue_api.obj
 0002:00002c00       $unwind$?dtor$0@?0???$_Try_emplace@AEBH$$V@?$_Hash@V?$_Umap_traits@HHV?$_Uhash_compare@HU?$hash@H@std@@U?$equal_to@H@2@@std@@V?$allocator@U?$pair@$$CBHH@std@@@2@$0A@@std@@@std@@IEAA?AU?$pair@PEAU?$_List_node@U?$pair@$$CBHH@std@@PEAX@std@@_N@1@AEBH@Z@4HA 0000000180047c00     priorityqueue_api.obj
 0002:00002c08       $unwind$??$_Pocma@V?$allocator@N@std@@@std@@YAXAEAV?$allocator@N@0@0@Z 0000000180047c08     priorityqueue_api.obj
 0002:00002c10       $unwind$??$exchange@PEAN$$T@std@@YAPEANAEAPEAN$$QEA$$T@Z 0000000180047c10     priorityqueue_api.obj
 0002:00002c18       $unwind$??$?0V?$allocator@N@std@@PEANPEANPEAN@?$_Compressed_pair@V?$allocator@N@std@@V?$_Vector_val@U?$_Simple_types@N@std@@@2@$00@std@@QEAA@U_One_then_variadic_args_t@1@$$QEAV?$allocator@N@1@$$QEAPEAN22@Z 0000000180047c18     priorityqueue_api.obj
 0002:00002c20       $unwind$??$?0V?$allocator@N@std@@$$V@?$_Compressed_pair@V?$allocator@N@std@@V?$_Vector_val@U?$_Simple_types@N@std@@@2@$00@std@@QEAA@U_One_then_variadic_args_t@1@$$QEAV?$allocator@N@1@@Z 0000000180047c20     priorityqueue_api.obj
 0002:00002c28       $unwind$??$_Construct_n@AEBQEANAEBQEAN@?$vector@NV?$allocator@N@std@@@std@@AEAAX_KAEBQEAN1@Z 0000000180047c28     priorityqueue_api.obj
 0002:00002c38       $cppxdata$??$_Construct_n@AEBQEANAEBQEAN@?$vector@NV?$allocator@N@std@@@std@@AEAAX_KAEBQEAN1@Z 0000000180047c38     priorityqueue_api.obj
 0002:00002c41       $stateUnwindMap$??$_Construct_n@AEBQEANAEBQEAN@?$vector@NV?$allocator@N@std@@@std@@AEAAX_KAEBQEAN1@Z 0000000180047c41     priorityqueue_api.obj
 0002:00002c47       $ip2state$??$_Construct_n@AEBQEANAEBQEAN@?$vector@NV?$allocator@N@std@@@std@@AEAAX_KAEBQEAN1@Z 0000000180047c47     priorityqueue_api.obj
 0002:00002c50       $unwind$?dtor$0@?0???$_Construct_n@AEBQEANAEBQEAN@?$vector@NV?$allocator@N@std@@@std@@AEAAX_KAEBQEAN1@Z@4HA 0000000180047c50     priorityqueue_api.obj
 0002:00002c58       $unwind$??$?0AEBV?$allocator@N@std@@$$V@?$_Compressed_pair@V?$allocator@N@std@@V?$_Vector_val@U?$_Simple_types@N@std@@@2@$00@std@@QEAA@U_One_then_variadic_args_t@1@AEBV?$allocator@N@1@@Z 0000000180047c58     priorityqueue_api.obj
 0002:00002c60       $unwind$??$_Construct_n@AEBN@?$vector@NV?$allocator@N@std@@@std@@AEAAX_KAEBN@Z 0000000180047c60     priorityqueue_api.obj
 0002:00002c70       $cppxdata$??$_Construct_n@AEBN@?$vector@NV?$allocator@N@std@@@std@@AEAAX_KAEBN@Z 0000000180047c70     priorityqueue_api.obj
 0002:00002c79       $stateUnwindMap$??$_Construct_n@AEBN@?$vector@NV?$allocator@N@std@@@std@@AEAAX_KAEBN@Z 0000000180047c79     priorityqueue_api.obj
 0002:00002c7f       $ip2state$??$_Construct_n@AEBN@?$vector@NV?$allocator@N@std@@@std@@AEAAX_KAEBN@Z 0000000180047c7f     priorityqueue_api.obj
 0002:00002c88       $unwind$?dtor$0@?0???$_Construct_n@AEBN@?$vector@NV?$allocator@N@std@@@std@@AEAAX_KAEBN@Z@4HA 0000000180047c88     priorityqueue_api.obj
 0002:00002c90       $unwind$??$_Try_emplace@AEBH$$V@?$_Hash@V?$_Umap_traits@HV?$vector@NV?$allocator@N@std@@@std@@V?$_Uhash_compare@HU?$hash@H@std@@U?$equal_to@H@2@@2@V?$allocator@U?$pair@$$CBHV?$vector@NV?$allocator@N@std@@@std@@@std@@@2@$0A@@std@@@std@@IEAA?AU?$pair@PEAU?$_List_node@U?$pair@$$CBHV?$vector@NV?$allocator@N@std@@@std@@@std@@PEAX@std@@_N@1@AEBH@Z 0000000180047c90     priorityqueue_api.obj
 0002:00002ca4       $cppxdata$??$_Try_emplace@AEBH$$V@?$_Hash@V?$_Umap_traits@HV?$vector@NV?$allocator@N@std@@@std@@V?$_Uhash_compare@HU?$hash@H@std@@U?$equal_to@H@2@@2@V?$allocator@U?$pair@$$CBHV?$vector@NV?$allocator@N@std@@@std@@@std@@@2@$0A@@std@@@std@@IEAA?AU?$pair@PEAU?$_List_node@U?$pair@$$CBHV?$vector@NV?$allocator@N@std@@@std@@@std@@PEAX@std@@_N@1@AEBH@Z 0000000180047ca4     priorityqueue_api.obj
 0002:00002cad       $stateUnwindMap$??$_Try_emplace@AEBH$$V@?$_Hash@V?$_Umap_traits@HV?$vector@NV?$allocator@N@std@@@std@@V?$_Uhash_compare@HU?$hash@H@std@@U?$equal_to@H@2@@2@V?$allocator@U?$pair@$$CBHV?$vector@NV?$allocator@N@std@@@std@@@std@@@2@$0A@@std@@@std@@IEAA?AU?$pair@PEAU?$_List_node@U?$pair@$$CBHV?$vector@NV?$allocator@N@std@@@std@@@std@@PEAX@std@@_N@1@AEBH@Z 0000000180047cad     priorityqueue_api.obj
 0002:00002cb3       $ip2state$??$_Try_emplace@AEBH$$V@?$_Hash@V?$_Umap_traits@HV?$vector@NV?$allocator@N@std@@@std@@V?$_Uhash_compare@HU?$hash@H@std@@U?$equal_to@H@2@@2@V?$allocator@U?$pair@$$CBHV?$vector@NV?$allocator@N@std@@@std@@@std@@@2@$0A@@std@@@std@@IEAA?AU?$pair@PEAU?$_List_node@U?$pair@$$CBHV?$vector@NV?$allocator@N@std@@@std@@@std@@PEAX@std@@_N@1@AEBH@Z 0000000180047cb3     priorityqueue_api.obj
 0002:00002cbc       $unwind$?dtor$0@?0???$_Try_emplace@AEBH$$V@?$_Hash@V?$_Umap_traits@HV?$vector@NV?$allocator@N@std@@@std@@V?$_Uhash_compare@HU?$hash@H@std@@U?$equal_to@H@2@@2@V?$allocator@U?$pair@$$CBHV?$vector@NV?$allocator@N@std@@@std@@@std@@@2@$0A@@std@@@std@@IEAA?AU?$pair@PEAU?$_List_node@U?$pair@$$CBHV?$vector@NV?$allocator@N@std@@@std@@@std@@PEAX@std@@_N@1@AEBH@Z@4HA 0000000180047cbc     priorityqueue_api.obj
 0002:00002cc4       $unwind$??$_Destroy_range@V?$allocator@U?$pair@HV?$vector@NV?$allocator@N@std@@@std@@@std@@@std@@@std@@YAXPEAU?$pair@HV?$vector@NV?$allocator@N@std@@@std@@@0@QEAU10@AEAV?$allocator@U?$pair@HV?$vector@NV?$allocator@N@std@@@std@@@std@@@0@@Z 0000000180047cc4     priorityqueue_api.obj
 0002:00002cd4       $cppxdata$??$_Destroy_range@V?$allocator@U?$pair@HV?$vector@NV?$allocator@N@std@@@std@@@std@@@std@@@std@@YAXPEAU?$pair@HV?$vector@NV?$allocator@N@std@@@std@@@0@QEAU10@AEAV?$allocator@U?$pair@HV?$vector@NV?$allocator@N@std@@@std@@@std@@@0@@Z 0000000180047cd4     priorityqueue_api.obj
 0002:00002cd9       $ip2state$??$_Destroy_range@V?$allocator@U?$pair@HV?$vector@NV?$allocator@N@std@@@std@@@std@@@std@@@std@@YAXPEAU?$pair@HV?$vector@NV?$allocator@N@std@@@std@@@0@QEAU10@AEAV?$allocator@U?$pair@HV?$vector@NV?$allocator@N@std@@@std@@@std@@@0@@Z 0000000180047cd9     priorityqueue_api.obj
 0002:00002cdc       $unwind$??$destroy@U?$pair@HV?$vector@NV?$allocator@N@std@@@std@@@std@@@?$_Default_allocator_traits@V?$allocator@U?$pair@HV?$vector@NV?$allocator@N@std@@@std@@@std@@@std@@@std@@SAXAEAV?$allocator@U?$pair@HV?$vector@NV?$allocator@N@std@@@std@@@std@@@1@QEAU?$pair@HV?$vector@NV?$allocator@N@std@@@std@@@1@@Z 0000000180047cdc     priorityqueue_api.obj
 0002:00002ce4       $unwind$??$_Destroy_range@V?$allocator@V?$vector@NV?$allocator@N@std@@@std@@@std@@@std@@YAXPEAV?$vector@NV?$allocator@N@std@@@0@QEAV10@AEAV?$allocator@V?$vector@NV?$allocator@N@std@@@std@@@0@@Z 0000000180047ce4     priorityqueue_api.obj
 0002:00002cf4       $cppxdata$??$_Destroy_range@V?$allocator@V?$vector@NV?$allocator@N@std@@@std@@@std@@@std@@YAXPEAV?$vector@NV?$allocator@N@std@@@0@QEAV10@AEAV?$allocator@V?$vector@NV?$allocator@N@std@@@std@@@0@@Z 0000000180047cf4     priorityqueue_api.obj
 0002:00002cf9       $ip2state$??$_Destroy_range@V?$allocator@V?$vector@NV?$allocator@N@std@@@std@@@std@@@std@@YAXPEAV?$vector@NV?$allocator@N@std@@@0@QEAV10@AEAV?$allocator@V?$vector@NV?$allocator@N@std@@@std@@@0@@Z 0000000180047cf9     priorityqueue_api.obj
 0002:00002cfc       $unwind$??D?$_List_unchecked_iterator@V?$_List_val@U?$_List_simple_types@U?$pair@$$CBHH@std@@@std@@@std@@@std@@QEBAAEAU?$pair@$$CBHH@1@XZ 0000000180047cfc     priorityqueue_api.obj
 0002:00002d04       $unwind$??E?$_List_unchecked_iterator@V?$_List_val@U?$_List_simple_types@U?$pair@$$CBHH@std@@@std@@@std@@@std@@QEAAAEAV01@XZ 0000000180047d04     priorityqueue_api.obj
 0002:00002d0c       $unwind$??0?$_List_unchecked_iterator@V?$_List_val@U?$_List_simple_types@U?$pair@$$CBHH@std@@@std@@@std@@@std@@QEAA@PEAU?$_List_node@U?$pair@$$CBHH@std@@PEAX@1@PEBV?$_List_val@U?$_List_simple_types@U?$pair@$$CBHH@std@@@std@@@1@@Z 0000000180047d0c     priorityqueue_api.obj
 0002:00002d14       $unwind$??$?0AEBV?$allocator@U?$pair@$$CBHH@std@@@std@@$0A@@?$_Hash_vec@V?$allocator@V?$_List_unchecked_iterator@V?$_List_val@U?$_List_simple_types@U?$pair@$$CBHH@std@@@std@@@std@@@std@@@std@@@std@@QEAA@AEBV?$allocator@U?$pair@$$CBHH@std@@@1@@Z 0000000180047d14     priorityqueue_api.obj
 0002:00002d1c       $unwind$??$_Free_non_head@V?$allocator@U?$_List_node@U?$pair@$$CBHH@std@@PEAX@std@@@std@@@?$_List_node@U?$pair@$$CBHH@std@@PEAX@std@@SAXAEAV?$allocator@U?$_List_node@U?$pair@$$CBHH@std@@PEAX@std@@@1@PEAU01@@Z 0000000180047d1c     priorityqueue_api.obj
 0002:00002d24       $unwind$??$_Freenode0@V?$allocator@U?$_List_node@U?$pair@$$CBHH@std@@PEAX@std@@@std@@@?$_List_node@U?$pair@$$CBHH@std@@PEAX@std@@SAXAEAV?$allocator@U?$_List_node@U?$pair@$$CBHH@std@@PEAX@std@@@1@PEAU01@@Z 0000000180047d24     priorityqueue_api.obj
 0002:00002d34       $cppxdata$??$_Freenode0@V?$allocator@U?$_List_node@U?$pair@$$CBHH@std@@PEAX@std@@@std@@@?$_List_node@U?$pair@$$CBHH@std@@PEAX@std@@SAXAEAV?$allocator@U?$_List_node@U?$pair@$$CBHH@std@@PEAX@std@@@1@PEAU01@@Z 0000000180047d34     priorityqueue_api.obj
 0002:00002d39       $ip2state$??$_Freenode0@V?$allocator@U?$_List_node@U?$pair@$$CBHH@std@@PEAX@std@@@std@@@?$_List_node@U?$pair@$$CBHH@std@@PEAX@std@@SAXAEAV?$allocator@U?$_List_node@U?$pair@$$CBHH@std@@PEAX@std@@@1@PEAU01@@Z 0000000180047d39     priorityqueue_api.obj
 0002:00002d3c       $unwind$??D?$_List_unchecked_iterator@V?$_List_val@U?$_List_simple_types@U?$pair@$$CBHV?$vector@NV?$allocator@N@std@@@std@@@std@@@std@@@std@@@std@@QEBAAEAU?$pair@$$CBHV?$vector@NV?$allocator@N@std@@@std@@@1@XZ 0000000180047d3c     priorityqueue_api.obj
 0002:00002d44       $unwind$??E?$_List_unchecked_iterator@V?$_List_val@U?$_List_simple_types@U?$pair@$$CBHV?$vector@NV?$allocator@N@std@@@std@@@std@@@std@@@std@@@std@@QEAAAEAV01@XZ 0000000180047d44     priorityqueue_api.obj
 0002:00002d4c       $unwind$??0?$_List_unchecked_iterator@V?$_List_val@U?$_List_simple_types@U?$pair@$$CBHV?$vector@NV?$allocator@N@std@@@std@@@std@@@std@@@std@@@std@@QEAA@PEAU?$_List_node@U?$pair@$$CBHV?$vector@NV?$allocator@N@std@@@std@@@std@@PEAX@1@PEBV?$_List_val@U?$_List_simple_types@U?$pair@$$CBHV?$vector@NV?$allocator@N@std@@@std@@@std@@@std@@@1@@Z 0000000180047d4c     priorityqueue_api.obj
 0002:00002d54       $unwind$??$?0AEBV?$allocator@U?$pair@$$CBHV?$vector@NV?$allocator@N@std@@@std@@@std@@@std@@$0A@@?$_Hash_vec@V?$allocator@V?$_List_unchecked_iterator@V?$_List_val@U?$_List_simple_types@U?$pair@$$CBHV?$vector@NV?$allocator@N@std@@@std@@@std@@@std@@@std@@@std@@@std@@@std@@QEAA@AEBV?$allocator@U?$pair@$$CBHV?$vector@NV?$allocator@N@std@@@std@@@std@@@1@@Z 0000000180047d54     priorityqueue_api.obj
 0002:00002d5c       $unwind$??$_Free_non_head@V?$allocator@U?$_List_node@U?$pair@$$CBHV?$vector@NV?$allocator@N@std@@@std@@@std@@PEAX@std@@@std@@@?$_List_node@U?$pair@$$CBHV?$vector@NV?$allocator@N@std@@@std@@@std@@PEAX@std@@SAXAEAV?$allocator@U?$_List_node@U?$pair@$$CBHV?$vector@NV?$allocator@N@std@@@std@@@std@@PEAX@std@@@1@PEAU01@@Z 0000000180047d5c     priorityqueue_api.obj
 0002:00002d64       $unwind$??$_Freenode0@V?$allocator@U?$_List_node@U?$pair@$$CBHV?$vector@NV?$allocator@N@std@@@std@@@std@@PEAX@std@@@std@@@?$_List_node@U?$pair@$$CBHV?$vector@NV?$allocator@N@std@@@std@@@std@@PEAX@std@@SAXAEAV?$allocator@U?$_List_node@U?$pair@$$CBHV?$vector@NV?$allocator@N@std@@@std@@@std@@PEAX@std@@@1@PEAU01@@Z 0000000180047d64     priorityqueue_api.obj
 0002:00002d74       $cppxdata$??$_Freenode0@V?$allocator@U?$_List_node@U?$pair@$$CBHV?$vector@NV?$allocator@N@std@@@std@@@std@@PEAX@std@@@std@@@?$_List_node@U?$pair@$$CBHV?$vector@NV?$allocator@N@std@@@std@@@std@@PEAX@std@@SAXAEAV?$allocator@U?$_List_node@U?$pair@$$CBHV?$vector@NV?$allocator@N@std@@@std@@@std@@PEAX@std@@@1@PEAU01@@Z 0000000180047d74     priorityqueue_api.obj
 0002:00002d79       $ip2state$??$_Freenode0@V?$allocator@U?$_List_node@U?$pair@$$CBHV?$vector@NV?$allocator@N@std@@@std@@@std@@PEAX@std@@@std@@@?$_List_node@U?$pair@$$CBHV?$vector@NV?$allocator@N@std@@@std@@@std@@PEAX@std@@SAXAEAV?$allocator@U?$_List_node@U?$pair@$$CBHV?$vector@NV?$allocator@N@std@@@std@@@std@@PEAX@std@@@1@PEAU01@@Z 0000000180047d79     priorityqueue_api.obj
 0002:00002d7c       $unwind$??$?0U_Zero_then_variadic_args_t@std@@M@?$_Compressed_pair@U?$hash@H@std@@V?$_Compressed_pair@U?$equal_to@H@std@@M$00@2@$00@std@@QEAA@U_Zero_then_variadic_args_t@1@$$QEAU21@$$QEAM@Z 0000000180047d7c     priorityqueue_api.obj
 0002:00002d84       $unwind$??$?0M@?$_Compressed_pair@U?$equal_to@H@std@@M$00@std@@QEAA@U_Zero_then_variadic_args_t@1@$$QEAM@Z 0000000180047d84     priorityqueue_api.obj
 0002:00002d8c       $unwind$??$max@_K@std@@YAAEB_KAEB_K0@Z 0000000180047d8c     priorityqueue_api.obj
 0002:00002d94       $unwind$??$_Deallocate@$0BA@$0A@@std@@YAXPEAX_K@Z 0000000180047d94     priorityqueue_api.obj
 0002:00002da4       $cppxdata$??$_Deallocate@$0BA@$0A@@std@@YAXPEAX_K@Z 0000000180047da4     priorityqueue_api.obj
 0002:00002da9       $ip2state$??$_Deallocate@$0BA@$0A@@std@@YAXPEAX_K@Z 0000000180047da9     priorityqueue_api.obj
 0002:00002dac       $unwind$??$uninitialized_fill@PEAV?$_List_unchecked_iterator@V?$_List_val@U?$_List_simple_types@U?$pair@$$CBHH@std@@@std@@@std@@@std@@V12@@std@@YAXQEAV?$_List_unchecked_iterator@V?$_List_val@U?$_List_simple_types@U?$pair@$$CBHH@std@@@std@@@std@@@0@0AEBV10@@Z 0000000180047dac     priorityqueue_api.obj
 0002:00002dbc       $cppxdata$??$uninitialized_fill@PEAV?$_List_unchecked_iterator@V?$_List_val@U?$_List_simple_types@U?$pair@$$CBHH@std@@@std@@@std@@@std@@V12@@std@@YAXQEAV?$_List_unchecked_iterator@V?$_List_val@U?$_List_simple_types@U?$pair@$$CBHH@std@@@std@@@std@@@0@0AEBV10@@Z 0000000180047dbc     priorityqueue_api.obj
 0002:00002dc5       $stateUnwindMap$??$uninitialized_fill@PEAV?$_List_unchecked_iterator@V?$_List_val@U?$_List_simple_types@U?$pair@$$CBHH@std@@@std@@@std@@@std@@V12@@std@@YAXQEAV?$_List_unchecked_iterator@V?$_List_val@U?$_List_simple_types@U?$pair@$$CBHH@std@@@std@@@std@@@0@0AEBV10@@Z 0000000180047dc5     priorityqueue_api.obj
 0002:00002dcb       $ip2state$??$uninitialized_fill@PEAV?$_List_unchecked_iterator@V?$_List_val@U?$_List_simple_types@U?$pair@$$CBHH@std@@@std@@@std@@@std@@V12@@std@@YAXQEAV?$_List_unchecked_iterator@V?$_List_val@U?$_List_simple_types@U?$pair@$$CBHH@std@@@std@@@std@@@0@0AEBV10@@Z 0000000180047dcb     priorityqueue_api.obj
 0002:00002dd4       $unwind$?dtor$0@?0???$uninitialized_fill@PEAV?$_List_unchecked_iterator@V?$_List_val@U?$_List_simple_types@U?$pair@$$CBHH@std@@@std@@@std@@@std@@V12@@std@@YAXQEAV?$_List_unchecked_iterator@V?$_List_val@U?$_List_simple_types@U?$pair@$$CBHH@std@@@std@@@std@@@0@0AEBV10@@Z@4HA 0000000180047dd4     priorityqueue_api.obj
 0002:00002ddc       $unwind$??$fill@PEAV?$_List_unchecked_iterator@V?$_List_val@U?$_List_simple_types@U?$pair@$$CBHH@std@@@std@@@std@@@std@@V12@@std@@YAXQEAV?$_List_unchecked_iterator@V?$_List_val@U?$_List_simple_types@U?$pair@$$CBHH@std@@@std@@@std@@@0@0AEBV10@@Z 0000000180047ddc     priorityqueue_api.obj
 0002:00002de4       $unwind$??$?RH@?$_Uhash_compare@HU?$hash@H@std@@U?$equal_to@H@2@@std@@QEBA_KAEBH@Z 0000000180047de4     priorityqueue_api.obj
 0002:00002dec       $unwind$??$_Pocma@V?$allocator@U?$_List_node@U?$pair@$$CBHH@std@@PEAX@std@@@std@@@std@@YAXAEAV?$allocator@U?$_List_node@U?$pair@$$CBHH@std@@PEAX@std@@@0@0@Z 0000000180047dec     priorityqueue_api.obj
 0002:00002df4       $unwind$??$_Pocma@V?$allocator@V?$_List_unchecked_iterator@V?$_List_val@U?$_List_simple_types@U?$pair@$$CBHH@std@@@std@@@std@@@std@@@std@@@std@@YAXAEAV?$allocator@V?$_List_unchecked_iterator@V?$_List_val@U?$_List_simple_types@U?$pair@$$CBHH@std@@@std@@@std@@@std@@@0@0@Z 0000000180047df4     priorityqueue_api.obj
 0002:00002dfc       $unwind$??$swap@_K$0A@@std@@YAXAEA_K0@Z 0000000180047dfc     priorityqueue_api.obj
 0002:00002e04       $unwind$??$?0AEBV?$allocator@U?$pair@$$CBHH@std@@@std@@$$V@?$_Compressed_pair@V?$allocator@U?$_List_node@U?$pair@$$CBHH@std@@PEAX@std@@@std@@V?$_List_val@U?$_List_simple_types@U?$pair@$$CBHH@std@@@std@@@2@$00@std@@QEAA@U_One_then_variadic_args_t@1@AEBV?$allocator@U?$pair@$$CBHH@std@@@1@@Z 0000000180047e04     priorityqueue_api.obj
 0002:00002e0c       $unwind$??$uninitialized_fill@PEAV?$_List_unchecked_iterator@V?$_List_val@U?$_List_simple_types@U?$pair@$$CBHV?$vector@NV?$allocator@N@std@@@std@@@std@@@std@@@std@@@std@@V12@@std@@YAXQEAV?$_List_unchecked_iterator@V?$_List_val@U?$_List_simple_types@U?$pair@$$CBHV?$vector@NV?$allocator@N@std@@@std@@@std@@@std@@@std@@@0@0AEBV10@@Z 0000000180047e0c     priorityqueue_api.obj
 0002:00002e1c       $cppxdata$??$uninitialized_fill@PEAV?$_List_unchecked_iterator@V?$_List_val@U?$_List_simple_types@U?$pair@$$CBHV?$vector@NV?$allocator@N@std@@@std@@@std@@@std@@@std@@@std@@V12@@std@@YAXQEAV?$_List_unchecked_iterator@V?$_List_val@U?$_List_simple_types@U?$pair@$$CBHV?$vector@NV?$allocator@N@std@@@std@@@std@@@std@@@std@@@0@0AEBV10@@Z 0000000180047e1c     priorityqueue_api.obj
 0002:00002e25       $stateUnwindMap$??$uninitialized_fill@PEAV?$_List_unchecked_iterator@V?$_List_val@U?$_List_simple_types@U?$pair@$$CBHV?$vector@NV?$allocator@N@std@@@std@@@std@@@std@@@std@@@std@@V12@@std@@YAXQEAV?$_List_unchecked_iterator@V?$_List_val@U?$_List_simple_types@U?$pair@$$CBHV?$vector@NV?$allocator@N@std@@@std@@@std@@@std@@@std@@@0@0AEBV10@@Z 0000000180047e25     priorityqueue_api.obj
 0002:00002e2b       $ip2state$??$uninitialized_fill@PEAV?$_List_unchecked_iterator@V?$_List_val@U?$_List_simple_types@U?$pair@$$CBHV?$vector@NV?$allocator@N@std@@@std@@@std@@@std@@@std@@@std@@V12@@std@@YAXQEAV?$_List_unchecked_iterator@V?$_List_val@U?$_List_simple_types@U?$pair@$$CBHV?$vector@NV?$allocator@N@std@@@std@@@std@@@std@@@std@@@0@0AEBV10@@Z 0000000180047e2b     priorityqueue_api.obj
 0002:00002e34       $unwind$?dtor$0@?0???$uninitialized_fill@PEAV?$_List_unchecked_iterator@V?$_List_val@U?$_List_simple_types@U?$pair@$$CBHV?$vector@NV?$allocator@N@std@@@std@@@std@@@std@@@std@@@std@@V12@@std@@YAXQEAV?$_List_unchecked_iterator@V?$_List_val@U?$_List_simple_types@U?$pair@$$CBHV?$vector@NV?$allocator@N@std@@@std@@@std@@@std@@@std@@@0@0AEBV10@@Z@4HA 0000000180047e34     priorityqueue_api.obj
 0002:00002e3c       $unwind$??$fill@PEAV?$_List_unchecked_iterator@V?$_List_val@U?$_List_simple_types@U?$pair@$$CBHV?$vector@NV?$allocator@N@std@@@std@@@std@@@std@@@std@@@std@@V12@@std@@YAXQEAV?$_List_unchecked_iterator@V?$_List_val@U?$_List_simple_types@U?$pair@$$CBHV?$vector@NV?$allocator@N@std@@@std@@@std@@@std@@@std@@@0@0AEBV10@@Z 0000000180047e3c     priorityqueue_api.obj
 0002:00002e44       $unwind$??$_Pocma@V?$allocator@U?$_List_node@U?$pair@$$CBHV?$vector@NV?$allocator@N@std@@@std@@@std@@PEAX@std@@@std@@@std@@YAXAEAV?$allocator@U?$_List_node@U?$pair@$$CBHV?$vector@NV?$allocator@N@std@@@std@@@std@@PEAX@std@@@0@0@Z 0000000180047e44     priorityqueue_api.obj
 0002:00002e4c       $unwind$??$_Pocma@V?$allocator@V?$_List_unchecked_iterator@V?$_List_val@U?$_List_simple_types@U?$pair@$$CBHV?$vector@NV?$allocator@N@std@@@std@@@std@@@std@@@std@@@std@@@std@@@std@@YAXAEAV?$allocator@V?$_List_unchecked_iterator@V?$_List_val@U?$_List_simple_types@U?$pair@$$CBHV?$vector@NV?$allocator@N@std@@@std@@@std@@@std@@@std@@@std@@@0@0@Z 0000000180047e4c     priorityqueue_api.obj
 0002:00002e54       $unwind$??$?0AEBV?$allocator@U?$pair@$$CBHV?$vector@NV?$allocator@N@std@@@std@@@std@@@std@@$$V@?$_Compressed_pair@V?$allocator@U?$_List_node@U?$pair@$$CBHV?$vector@NV?$allocator@N@std@@@std@@@std@@PEAX@std@@@std@@V?$_List_val@U?$_List_simple_types@U?$pair@$$CBHV?$vector@NV?$allocator@N@std@@@std@@@std@@@std@@@2@$00@std@@QEAA@U_One_then_variadic_args_t@1@AEBV?$allocator@U?$pair@$$CBHV?$vector@NV?$allocator@N@std@@@std@@@std@@@1@@Z 0000000180047e54     priorityqueue_api.obj
 0002:00002e5c       $unwind$??$swap@PEAV?$_List_unchecked_iterator@V?$_List_val@U?$_List_simple_types@U?$pair@$$CBHH@std@@@std@@@std@@@std@@$0A@@std@@YAXAEAPEAV?$_List_unchecked_iterator@V?$_List_val@U?$_List_simple_types@U?$pair@$$CBHH@std@@@std@@@std@@@0@0@Z 0000000180047e5c     priorityqueue_api.obj
 0002:00002e64       $unwind$??$_Get_size_of_n@$07@std@@YA_K_K@Z 0000000180047e64     priorityqueue_api.obj
 0002:00002e6c       $unwind$??$_Allocate@$0BA@U_Default_allocate_traits@std@@$0A@@std@@YAPEAX_K@Z 0000000180047e6c     priorityqueue_api.obj
 0002:00002e74       $unwind$?_Bump_erased@_Range_eraser@?$_Hash@V?$_Umap_traits@HHV?$_Uhash_compare@HU?$hash@H@std@@U?$equal_to@H@2@@std@@V?$allocator@U?$pair@$$CBHH@std@@@2@$0A@@std@@@std@@QEAAXXZ 0000000180047e74     priorityqueue_api.obj
 0002:00002e7c       $unwind$??$_Construct_in_place@PEAU?$_List_node@U?$pair@$$CBHH@std@@PEAX@std@@AEAPEAU12@@std@@YAXAEAPEAU?$_List_node@U?$pair@$$CBHH@std@@PEAX@0@0@Z 0000000180047e7c     priorityqueue_api.obj
 0002:00002e84       $unwind$??$swap@PEAU?$_List_node@U?$pair@$$CBHH@std@@PEAX@std@@$0A@@std@@YAXAEAPEAU?$_List_node@U?$pair@$$CBHH@std@@PEAX@0@0@Z 0000000180047e84     priorityqueue_api.obj
 0002:00002e8c       $unwind$??$swap@PEAV?$_List_unchecked_iterator@V?$_List_val@U?$_List_simple_types@U?$pair@$$CBHV?$vector@NV?$allocator@N@std@@@std@@@std@@@std@@@std@@@std@@$0A@@std@@YAXAEAPEAV?$_List_unchecked_iterator@V?$_List_val@U?$_List_simple_types@U?$pair@$$CBHV?$vector@NV?$allocator@N@std@@@std@@@std@@@std@@@std@@@0@0@Z 0000000180047e8c     priorityqueue_api.obj
 0002:00002e94       $unwind$?_Bump_erased@_Range_eraser@?$_Hash@V?$_Umap_traits@HV?$vector@NV?$allocator@N@std@@@std@@V?$_Uhash_compare@HU?$hash@H@std@@U?$equal_to@H@2@@2@V?$allocator@U?$pair@$$CBHV?$vector@NV?$allocator@N@std@@@std@@@std@@@2@$0A@@std@@@std@@QEAAXXZ 0000000180047e94     priorityqueue_api.obj
 0002:00002e9c       $unwind$??$_Construct_in_place@PEAU?$_List_node@U?$pair@$$CBHV?$vector@NV?$allocator@N@std@@@std@@@std@@PEAX@std@@AEAPEAU12@@std@@YAXAEAPEAU?$_List_node@U?$pair@$$CBHV?$vector@NV?$allocator@N@std@@@std@@@std@@PEAX@0@0@Z 0000000180047e9c     priorityqueue_api.obj
 0002:00002ea4       $unwind$??$swap@PEAU?$_List_node@U?$pair@$$CBHV?$vector@NV?$allocator@N@std@@@std@@@std@@PEAX@std@@$0A@@std@@YAXAEAPEAU?$_List_node@U?$pair@$$CBHV?$vector@NV?$allocator@N@std@@@std@@@std@@PEAX@0@0@Z 0000000180047ea4     priorityqueue_api.obj
 0002:00002eac       $unwind$??$_Freenode@V?$allocator@U?$_List_node@U?$pair@$$CBHV?$vector@NV?$allocator@N@std@@@std@@@std@@PEAX@std@@@std@@@?$_List_node@U?$pair@$$CBHV?$vector@NV?$allocator@N@std@@@std@@@std@@PEAX@std@@SAXAEAV?$allocator@U?$_List_node@U?$pair@$$CBHV?$vector@NV?$allocator@N@std@@@std@@@std@@PEAX@std@@@1@PEAU01@@Z 0000000180047eac     priorityqueue_api.obj
 0002:00002ebc       $cppxdata$??$_Freenode@V?$allocator@U?$_List_node@U?$pair@$$CBHV?$vector@NV?$allocator@N@std@@@std@@@std@@PEAX@std@@@std@@@?$_List_node@U?$pair@$$CBHV?$vector@NV?$allocator@N@std@@@std@@@std@@PEAX@std@@SAXAEAV?$allocator@U?$_List_node@U?$pair@$$CBHV?$vector@NV?$allocator@N@std@@@std@@@std@@PEAX@std@@@1@PEAU01@@Z 0000000180047ebc     priorityqueue_api.obj
 0002:00002ec1       $ip2state$??$_Freenode@V?$allocator@U?$_List_node@U?$pair@$$CBHV?$vector@NV?$allocator@N@std@@@std@@@std@@PEAX@std@@@std@@@?$_List_node@U?$pair@$$CBHV?$vector@NV?$allocator@N@std@@@std@@@std@@PEAX@std@@SAXAEAV?$allocator@U?$_List_node@U?$pair@$$CBHV?$vector@NV?$allocator@N@std@@@std@@@std@@PEAX@std@@@1@PEAU01@@Z 0000000180047ec1     priorityqueue_api.obj
 0002:00002ec4       $unwind$??$_Freenode@V?$allocator@U?$_List_node@U?$pair@$$CBHH@std@@PEAX@std@@@std@@@?$_List_node@U?$pair@$$CBHH@std@@PEAX@std@@SAXAEAV?$allocator@U?$_List_node@U?$pair@$$CBHH@std@@PEAX@std@@@1@PEAU01@@Z 0000000180047ec4     priorityqueue_api.obj
 0002:00002ed4       $cppxdata$??$_Freenode@V?$allocator@U?$_List_node@U?$pair@$$CBHH@std@@PEAX@std@@@std@@@?$_List_node@U?$pair@$$CBHH@std@@PEAX@std@@SAXAEAV?$allocator@U?$_List_node@U?$pair@$$CBHH@std@@PEAX@std@@@1@PEAU01@@Z 0000000180047ed4     priorityqueue_api.obj
 0002:00002ed9       $ip2state$??$_Freenode@V?$allocator@U?$_List_node@U?$pair@$$CBHH@std@@PEAX@std@@@std@@@?$_List_node@U?$pair@$$CBHH@std@@PEAX@std@@SAXAEAV?$allocator@U?$_List_node@U?$pair@$$CBHH@std@@PEAX@std@@@1@PEAU01@@Z 0000000180047ed9     priorityqueue_api.obj
 0002:00002edc       $unwind$??$_Get_size_of_n@$0BI@@std@@YA_K_K@Z 0000000180047edc     priorityqueue_api.obj
 0002:00002ee4       $unwind$??$_Get_size_of_n@$0DA@@std@@YA_K_K@Z 0000000180047ee4     priorityqueue_api.obj
 0002:00002eec       $unwind$??$_Construct_n@PEBNPEBN@?$vector@NV?$allocator@N@std@@@std@@AEAAX_K$$QEAPEBN1@Z 0000000180047eec     priorityqueue_api.obj
 0002:00002efc       $cppxdata$??$_Construct_n@PEBNPEBN@?$vector@NV?$allocator@N@std@@@std@@AEAAX_K$$QEAPEBN1@Z 0000000180047efc     priorityqueue_api.obj
 0002:00002f05       $stateUnwindMap$??$_Construct_n@PEBNPEBN@?$vector@NV?$allocator@N@std@@@std@@AEAAX_K$$QEAPEBN1@Z 0000000180047f05     priorityqueue_api.obj
 0002:00002f0b       $ip2state$??$_Construct_n@PEBNPEBN@?$vector@NV?$allocator@N@std@@@std@@AEAAX_K$$QEAPEBN1@Z 0000000180047f0b     priorityqueue_api.obj
 0002:00002f14       $unwind$?dtor$0@?0???$_Construct_n@PEBNPEBN@?$vector@NV?$allocator@N@std@@@std@@AEAAX_K$$QEAPEBN1@Z@4HA 0000000180047f14     priorityqueue_api.obj
 0002:00002f1c       $unwind$??$_Find@H@?$_Hash@V?$_Umap_traits@HV?$vector@NV?$allocator@N@std@@@std@@V?$_Uhash_compare@HU?$hash@H@std@@U?$equal_to@H@2@@2@V?$allocator@U?$pair@$$CBHV?$vector@NV?$allocator@N@std@@@std@@@std@@@2@$0A@@std@@@std@@AEBAPEAU?$_List_node@U?$pair@$$CBHV?$vector@NV?$allocator@N@std@@@std@@@std@@PEAX@1@AEBH_K@Z 0000000180047f1c     priorityqueue_api.obj
 0002:00002f24       $unwind$??$_Find@H@?$_Hash@V?$_Umap_traits@HHV?$_Uhash_compare@HU?$hash@H@std@@U?$equal_to@H@2@@std@@V?$allocator@U?$pair@$$CBHH@std@@@2@$0A@@std@@@std@@AEBAPEAU?$_List_node@U?$pair@$$CBHH@std@@PEAX@1@AEBH_K@Z 0000000180047f24     priorityqueue_api.obj
 0002:00002f2c       $unwind$??$_Emplace_back_with_unused_capacity@AEBHN@?$vector@V?$vector@NV?$allocator@N@std@@@std@@V?$allocator@V?$vector@NV?$allocator@N@std@@@std@@@2@@std@@AEAAAEAV?$vector@NV?$allocator@N@std@@@1@AEBH$$QEAN@Z 0000000180047f2c     priorityqueue_api.obj
 0002:00002f34       $unwind$??$_Emplace_reallocate@AEBHN@?$vector@V?$vector@NV?$allocator@N@std@@@std@@V?$allocator@V?$vector@NV?$allocator@N@std@@@std@@@2@@std@@AEAAPEAV?$vector@NV?$allocator@N@std@@@1@QEAV21@AEBH$$QEAN@Z 0000000180047f34     priorityqueue_api.obj
 0002:00002f44       $cppxdata$??$_Emplace_reallocate@AEBHN@?$vector@V?$vector@NV?$allocator@N@std@@@std@@V?$allocator@V?$vector@NV?$allocator@N@std@@@std@@@2@@std@@AEAAPEAV?$vector@NV?$allocator@N@std@@@1@QEAV21@AEBH$$QEAN@Z 0000000180047f44     priorityqueue_api.obj
 0002:00002f51       $stateUnwindMap$??$_Emplace_reallocate@AEBHN@?$vector@V?$vector@NV?$allocator@N@std@@@std@@V?$allocator@V?$vector@NV?$allocator@N@std@@@std@@@2@@std@@AEAAPEAV?$vector@NV?$allocator@N@std@@@1@QEAV21@AEBH$$QEAN@Z 0000000180047f51     priorityqueue_api.obj
 0002:00002f54       $tryMap$??$_Emplace_reallocate@AEBHN@?$vector@V?$vector@NV?$allocator@N@std@@@std@@V?$allocator@V?$vector@NV?$allocator@N@std@@@std@@@2@@std@@AEAAPEAV?$vector@NV?$allocator@N@std@@@1@QEAV21@AEBH$$QEAN@Z 0000000180047f54     priorityqueue_api.obj
 0002:00002f5c       $handlerMap$??$_Emplace_reallocate@AEBHN@?$vector@V?$vector@NV?$allocator@N@std@@@std@@V?$allocator@V?$vector@NV?$allocator@N@std@@@std@@@2@@std@@AEAAPEAV?$vector@NV?$allocator@N@std@@@1@QEAV21@AEBH$$QEAN@Z 0000000180047f5c     priorityqueue_api.obj
 0002:00002f63       $ip2state$??$_Emplace_reallocate@AEBHN@?$vector@V?$vector@NV?$allocator@N@std@@@std@@V?$allocator@V?$vector@NV?$allocator@N@std@@@std@@@2@@std@@AEAAPEAV?$vector@NV?$allocator@N@std@@@1@QEAV21@AEBH$$QEAN@Z 0000000180047f63     priorityqueue_api.obj
 0002:00002f6c       $unwind$?catch$0@?0???$_Emplace_reallocate@AEBHN@?$vector@V?$vector@NV?$allocator@N@std@@@std@@V?$allocator@V?$vector@NV?$allocator@N@std@@@std@@@2@@std@@AEAAPEAV?$vector@NV?$allocator@N@std@@@1@QEAV21@AEBH$$QEAN@Z@4HA 0000000180047f6c     priorityqueue_api.obj
 0002:00002f74       $unwind$??$emplace_back@AEAHV?$vector@NV?$allocator@N@std@@@std@@@?$vector@U?$pair@HV?$vector@NV?$allocator@N@std@@@std@@@std@@V?$allocator@U?$pair@HV?$vector@NV?$allocator@N@std@@@std@@@std@@@2@@std@@QEAA?A_TAEAH$$QEAV?$vector@NV?$allocator@N@std@@@1@@Z 0000000180047f74     priorityqueue_api.obj
 0002:00002f7c       $unwind$??$_Emplace_one_at_back@AEAHV?$vector@NV?$allocator@N@std@@@std@@@?$vector@U?$pair@HV?$vector@NV?$allocator@N@std@@@std@@@std@@V?$allocator@U?$pair@HV?$vector@NV?$allocator@N@std@@@std@@@std@@@2@@std@@AEAAAEAU?$pair@HV?$vector@NV?$allocator@N@std@@@std@@@1@AEAH$$QEAV?$vector@NV?$allocator@N@std@@@1@@Z 0000000180047f7c     priorityqueue_api.obj
 0002:00002f84       $unwind$??$push_heap@V?$_Vector_iterator@V?$_Vector_val@U?$_Simple_types@U?$pair@HV?$vector@NV?$allocator@N@std@@@std@@@std@@@std@@@std@@@std@@Ucomparator@PriorityQueueImpl@nav@@@std@@YAXV?$_Vector_iterator@V?$_Vector_val@U?$_Simple_types@U?$pair@HV?$vector@NV?$allocator@N@std@@@std@@@std@@@std@@@std@@@0@0Ucomparator@PriorityQueueImpl@nav@@@Z 0000000180047f84     priorityqueue_api.obj
 0002:00002f94       $cppxdata$??$push_heap@V?$_Vector_iterator@V?$_Vector_val@U?$_Simple_types@U?$pair@HV?$vector@NV?$allocator@N@std@@@std@@@std@@@std@@@std@@@std@@Ucomparator@PriorityQueueImpl@nav@@@std@@YAXV?$_Vector_iterator@V?$_Vector_val@U?$_Simple_types@U?$pair@HV?$vector@NV?$allocator@N@std@@@std@@@std@@@std@@@std@@@0@0Ucomparator@PriorityQueueImpl@nav@@@Z 0000000180047f94     priorityqueue_api.obj
 0002:00002f9d       $stateUnwindMap$??$push_heap@V?$_Vector_iterator@V?$_Vector_val@U?$_Simple_types@U?$pair@HV?$vector@NV?$allocator@N@std@@@std@@@std@@@std@@@std@@@std@@Ucomparator@PriorityQueueImpl@nav@@@std@@YAXV?$_Vector_iterator@V?$_Vector_val@U?$_Simple_types@U?$pair@HV?$vector@NV?$allocator@N@std@@@std@@@std@@@std@@@std@@@0@0Ucomparator@PriorityQueueImpl@nav@@@Z 0000000180047f9d     priorityqueue_api.obj
 0002:00002fa3       $ip2state$??$push_heap@V?$_Vector_iterator@V?$_Vector_val@U?$_Simple_types@U?$pair@HV?$vector@NV?$allocator@N@std@@@std@@@std@@@std@@@std@@@std@@Ucomparator@PriorityQueueImpl@nav@@@std@@YAXV?$_Vector_iterator@V?$_Vector_val@U?$_Simple_types@U?$pair@HV?$vector@NV?$allocator@N@std@@@std@@@std@@@std@@@std@@@0@0Ucomparator@PriorityQueueImpl@nav@@@Z 0000000180047fa3     priorityqueue_api.obj
 0002:00002fac       $unwind$?dtor$0@?0???$push_heap@V?$_Vector_iterator@V?$_Vector_val@U?$_Simple_types@U?$pair@HV?$vector@NV?$allocator@N@std@@@std@@@std@@@std@@@std@@@std@@Ucomparator@PriorityQueueImpl@nav@@@std@@YAXV?$_Vector_iterator@V?$_Vector_val@U?$_Simple_types@U?$pair@HV?$vector@NV?$allocator@N@std@@@std@@@std@@@std@@@std@@@0@0Ucomparator@PriorityQueueImpl@nav@@@Z@4HA 0000000180047fac     priorityqueue_api.obj
 0002:00002fb4       $unwind$??$?0HV?$vector@NV?$allocator@N@std@@@std@@$0A@@?$pair@HV?$vector@NV?$allocator@N@std@@@std@@@std@@QEAA@$$QEAH$$QEAV?$vector@NV?$allocator@N@std@@@1@@Z 0000000180047fb4     priorityqueue_api.obj
 0002:00002fbc       $unwind$??$_Get_unwrapped@AEAV?$_Vector_iterator@V?$_Vector_val@U?$_Simple_types@U?$pair@HV?$vector@NV?$allocator@N@std@@@std@@@std@@@std@@@std@@@std@@@std@@YA?A_TAEAV?$_Vector_iterator@V?$_Vector_val@U?$_Simple_types@U?$pair@HV?$vector@NV?$allocator@N@std@@@std@@@std@@@std@@@std@@@0@@Z 0000000180047fbc     priorityqueue_api.obj
 0002:00002fc4       $unwind$??$_Pop_heap_unchecked@PEAU?$pair@HV?$vector@NV?$allocator@N@std@@@std@@@std@@Ucomparator@PriorityQueueImpl@nav@@@std@@YAXPEAU?$pair@HV?$vector@NV?$allocator@N@std@@@std@@@0@0Ucomparator@PriorityQueueImpl@nav@@@Z 0000000180047fc4     priorityqueue_api.obj
 0002:00002fd4       $cppxdata$??$_Pop_heap_unchecked@PEAU?$pair@HV?$vector@NV?$allocator@N@std@@@std@@@std@@Ucomparator@PriorityQueueImpl@nav@@@std@@YAXPEAU?$pair@HV?$vector@NV?$allocator@N@std@@@std@@@0@0Ucomparator@PriorityQueueImpl@nav@@@Z 0000000180047fd4     priorityqueue_api.obj
 0002:00002fdd       $stateUnwindMap$??$_Pop_heap_unchecked@PEAU?$pair@HV?$vector@NV?$allocator@N@std@@@std@@@std@@Ucomparator@PriorityQueueImpl@nav@@@std@@YAXPEAU?$pair@HV?$vector@NV?$allocator@N@std@@@std@@@0@0Ucomparator@PriorityQueueImpl@nav@@@Z 0000000180047fdd     priorityqueue_api.obj
 0002:00002fe3       $ip2state$??$_Pop_heap_unchecked@PEAU?$pair@HV?$vector@NV?$allocator@N@std@@@std@@@std@@Ucomparator@PriorityQueueImpl@nav@@@std@@YAXPEAU?$pair@HV?$vector@NV?$allocator@N@std@@@std@@@0@0Ucomparator@PriorityQueueImpl@nav@@@Z 0000000180047fe3     priorityqueue_api.obj
 0002:00002fec       $unwind$?dtor$0@?0???$_Pop_heap_unchecked@PEAU?$pair@HV?$vector@NV?$allocator@N@std@@@std@@@std@@Ucomparator@PriorityQueueImpl@nav@@@std@@YAXPEAU?$pair@HV?$vector@NV?$allocator@N@std@@@std@@@0@0Ucomparator@PriorityQueueImpl@nav@@@Z@4HA 0000000180047fec     priorityqueue_api.obj
 0002:00002ff4       $unwind$??$_Emplace_back_with_unused_capacity@AEBV?$vector@NV?$allocator@N@std@@@std@@@?$vector@V?$vector@NV?$allocator@N@std@@@std@@V?$allocator@V?$vector@NV?$allocator@N@std@@@std@@@2@@std@@AEAAAEAV?$vector@NV?$allocator@N@std@@@1@AEBV21@@Z 0000000180047ff4     priorityqueue_api.obj
 0002:00002ffc       $unwind$??$_Emplace_reallocate@AEBV?$vector@NV?$allocator@N@std@@@std@@@?$vector@V?$vector@NV?$allocator@N@std@@@std@@V?$allocator@V?$vector@NV?$allocator@N@std@@@std@@@2@@std@@AEAAPEAV?$vector@NV?$allocator@N@std@@@1@QEAV21@AEBV21@@Z 0000000180047ffc     priorityqueue_api.obj
 0002:0000300c       $cppxdata$??$_Emplace_reallocate@AEBV?$vector@NV?$allocator@N@std@@@std@@@?$vector@V?$vector@NV?$allocator@N@std@@@std@@V?$allocator@V?$vector@NV?$allocator@N@std@@@std@@@2@@std@@AEAAPEAV?$vector@NV?$allocator@N@std@@@1@QEAV21@AEBV21@@Z 000000018004800c     priorityqueue_api.obj
 0002:00003019       $stateUnwindMap$??$_Emplace_reallocate@AEBV?$vector@NV?$allocator@N@std@@@std@@@?$vector@V?$vector@NV?$allocator@N@std@@@std@@V?$allocator@V?$vector@NV?$allocator@N@std@@@std@@@2@@std@@AEAAPEAV?$vector@NV?$allocator@N@std@@@1@QEAV21@AEBV21@@Z 0000000180048019     priorityqueue_api.obj
 0002:0000301c       $tryMap$??$_Emplace_reallocate@AEBV?$vector@NV?$allocator@N@std@@@std@@@?$vector@V?$vector@NV?$allocator@N@std@@@std@@V?$allocator@V?$vector@NV?$allocator@N@std@@@std@@@2@@std@@AEAAPEAV?$vector@NV?$allocator@N@std@@@1@QEAV21@AEBV21@@Z 000000018004801c     priorityqueue_api.obj
 0002:00003024       $handlerMap$??$_Emplace_reallocate@AEBV?$vector@NV?$allocator@N@std@@@std@@@?$vector@V?$vector@NV?$allocator@N@std@@@std@@V?$allocator@V?$vector@NV?$allocator@N@std@@@std@@@2@@std@@AEAAPEAV?$vector@NV?$allocator@N@std@@@1@QEAV21@AEBV21@@Z 0000000180048024     priorityqueue_api.obj
 0002:0000302b       $ip2state$??$_Emplace_reallocate@AEBV?$vector@NV?$allocator@N@std@@@std@@@?$vector@V?$vector@NV?$allocator@N@std@@@std@@V?$allocator@V?$vector@NV?$allocator@N@std@@@std@@@2@@std@@AEAAPEAV?$vector@NV?$allocator@N@std@@@1@QEAV21@AEBV21@@Z 000000018004802b     priorityqueue_api.obj
 0002:00003034       $unwind$?catch$0@?0???$_Emplace_reallocate@AEBV?$vector@NV?$allocator@N@std@@@std@@@?$vector@V?$vector@NV?$allocator@N@std@@@std@@V?$allocator@V?$vector@NV?$allocator@N@std@@@std@@@2@@std@@AEAAPEAV?$vector@NV?$allocator@N@std@@@1@QEAV21@AEBV21@@Z@4HA 0000000180048034     priorityqueue_api.obj
 0002:0000303c       $unwind$??$_Find_last@H@?$_Hash@V?$_Umap_traits@HHV?$_Uhash_compare@HU?$hash@H@std@@U?$equal_to@H@2@@std@@V?$allocator@U?$pair@$$CBHH@std@@@2@$0A@@std@@@std@@IEBA?AU?$_Hash_find_last_result@PEAU?$_List_node@U?$pair@$$CBHH@std@@PEAX@std@@@1@AEBH_K@Z 000000018004803c     priorityqueue_api.obj
 0002:00003044       $unwind$??$?0AEAPEAU?$_List_node@U?$pair@$$CBHH@std@@PEAX@std@@_N$0A@@?$pair@PEAU?$_List_node@U?$pair@$$CBHH@std@@PEAX@std@@_N@std@@QEAA@AEAPEAU?$_List_node@U?$pair@$$CBHH@std@@PEAX@1@$$QEA_N@Z 0000000180048044     priorityqueue_api.obj
 0002:0000304c       $unwind$??$forward_as_tuple@AEBH@std@@YA?AV?$tuple@AEBH@0@AEBH@Z 000000018004804c     priorityqueue_api.obj
 0002:00003054       $unwind$??0?$tuple@AEBH@std@@QEAA@$$QEAV01@@Z 0000000180048054     priorityqueue_api.obj
 0002:0000305c       $unwind$?_Release@?$_Alloc_construct_ptr@V?$allocator@U?$_List_node@U?$pair@$$CBHH@std@@PEAX@std@@@std@@@std@@QEAAPEAU?$_List_node@U?$pair@$$CBHH@std@@PEAX@2@XZ 000000018004805c     priorityqueue_api.obj
 0002:00003064       $unwind$?_Allocate@?$_Alloc_construct_ptr@V?$allocator@U?$_List_node@U?$pair@$$CBHH@std@@PEAX@std@@@std@@@std@@QEAAXXZ 0000000180048064     priorityqueue_api.obj
 0002:0000306c       $unwind$??1?$_Alloc_construct_ptr@V?$allocator@U?$_List_node@U?$pair@$$CBHH@std@@PEAX@std@@@std@@@std@@QEAA@XZ 000000018004806c     priorityqueue_api.obj
 0002:0000307c       $cppxdata$??1?$_Alloc_construct_ptr@V?$allocator@U?$_List_node@U?$pair@$$CBHH@std@@PEAX@std@@@std@@@std@@QEAA@XZ 000000018004807c     priorityqueue_api.obj
 0002:00003081       $ip2state$??1?$_Alloc_construct_ptr@V?$allocator@U?$_List_node@U?$pair@$$CBHH@std@@PEAX@std@@@std@@@std@@QEAA@XZ 0000000180048081     priorityqueue_api.obj
 0002:00003084       $unwind$??1?$_List_node_emplace_op2@V?$allocator@U?$_List_node@U?$pair@$$CBHH@std@@PEAX@std@@@std@@@std@@QEAA@XZ 0000000180048084     priorityqueue_api.obj
 0002:00003094       $cppxdata$??1?$_List_node_emplace_op2@V?$allocator@U?$_List_node@U?$pair@$$CBHH@std@@PEAX@std@@@std@@@std@@QEAA@XZ 0000000180048094     priorityqueue_api.obj
 0002:00003099       $ip2state$??1?$_List_node_emplace_op2@V?$allocator@U?$_List_node@U?$pair@$$CBHH@std@@PEAX@std@@@std@@@std@@QEAA@XZ 0000000180048099     priorityqueue_api.obj
 0002:0000309c       $unwind$??$?0AEBUpiecewise_construct_t@std@@V?$tuple@AEBH@1@V?$tuple@$$V@1@@?$_List_node_emplace_op2@V?$allocator@U?$_List_node@U?$pair@$$CBHH@std@@PEAX@std@@@std@@@std@@QEAA@AEAV?$allocator@U?$_List_node@U?$pair@$$CBHH@std@@PEAX@std@@@1@AEBUpiecewise_construct_t@1@$$QEAV?$tuple@AEBH@1@$$QEAV?$tuple@$$V@1@@Z 000000018004809c     priorityqueue_api.obj
 0002:000030ac       $cppxdata$??$?0AEBUpiecewise_construct_t@std@@V?$tuple@AEBH@1@V?$tuple@$$V@1@@?$_List_node_emplace_op2@V?$allocator@U?$_List_node@U?$pair@$$CBHH@std@@PEAX@std@@@std@@@std@@QEAA@AEAV?$allocator@U?$_List_node@U?$pair@$$CBHH@std@@PEAX@std@@@1@AEBUpiecewise_construct_t@1@$$QEAV?$tuple@AEBH@1@$$QEAV?$tuple@$$V@1@@Z 00000001800480ac     priorityqueue_api.obj
 0002:000030b5       $stateUnwindMap$??$?0AEBUpiecewise_construct_t@std@@V?$tuple@AEBH@1@V?$tuple@$$V@1@@?$_List_node_emplace_op2@V?$allocator@U?$_List_node@U?$pair@$$CBHH@std@@PEAX@std@@@std@@@std@@QEAA@AEAV?$allocator@U?$_List_node@U?$pair@$$CBHH@std@@PEAX@std@@@1@AEBUpiecewise_construct_t@1@$$QEAV?$tuple@AEBH@1@$$QEAV?$tuple@$$V@1@@Z 00000001800480b5     priorityqueue_api.obj
 0002:000030bb       $ip2state$??$?0AEBUpiecewise_construct_t@std@@V?$tuple@AEBH@1@V?$tuple@$$V@1@@?$_List_node_emplace_op2@V?$allocator@U?$_List_node@U?$pair@$$CBHH@std@@PEAX@std@@@std@@@std@@QEAA@AEAV?$allocator@U?$_List_node@U?$pair@$$CBHH@std@@PEAX@std@@@1@AEBUpiecewise_construct_t@1@$$QEAV?$tuple@AEBH@1@$$QEAV?$tuple@$$V@1@@Z 00000001800480bb     priorityqueue_api.obj
 0002:000030c4       $unwind$?dtor$0@?0???$?0AEBUpiecewise_construct_t@std@@V?$tuple@AEBH@1@V?$tuple@$$V@1@@?$_List_node_emplace_op2@V?$allocator@U?$_List_node@U?$pair@$$CBHH@std@@PEAX@std@@@std@@@std@@QEAA@AEAV?$allocator@U?$_List_node@U?$pair@$$CBHH@std@@PEAX@std@@@1@AEBUpiecewise_construct_t@1@$$QEAV?$tuple@AEBH@1@$$QEAV?$tuple@$$V@1@@Z@4HA 00000001800480c4     priorityqueue_api.obj
 0002:000030cc       $unwind$??$?0PEAU?$_List_node@U?$pair@$$CBHH@std@@PEAX@std@@_N$0A@@?$pair@PEAU?$_List_node@U?$pair@$$CBHH@std@@PEAX@std@@_N@std@@QEAA@$$QEAPEAU?$_List_node@U?$pair@$$CBHH@std@@PEAX@1@$$QEA_N@Z 00000001800480cc     priorityqueue_api.obj
 0002:000030d4       $unwind$??1?$_Tidy_guard@V?$vector@NV?$allocator@N@std@@@std@@@std@@QEAA@XZ 00000001800480d4     priorityqueue_api.obj
 0002:000030dc       $unwind$??$_Uninitialized_copy@PEANPEANV?$allocator@N@std@@@std@@YAPEANPEAN00AEAV?$allocator@N@0@@Z 00000001800480dc     priorityqueue_api.obj
 0002:000030ec       $cppxdata$??$_Uninitialized_copy@PEANPEANV?$allocator@N@std@@@std@@YAPEANPEAN00AEAV?$allocator@N@0@@Z 00000001800480ec     priorityqueue_api.obj
 0002:000030f5       $stateUnwindMap$??$_Uninitialized_copy@PEANPEANV?$allocator@N@std@@@std@@YAPEANPEAN00AEAV?$allocator@N@0@@Z 00000001800480f5     priorityqueue_api.obj
 0002:000030fb       $ip2state$??$_Uninitialized_copy@PEANPEANV?$allocator@N@std@@@std@@YAPEANPEAN00AEAV?$allocator@N@0@@Z 00000001800480fb     priorityqueue_api.obj
 0002:00003100       $unwind$?dtor$0@?0???$_Uninitialized_copy@PEANPEANV?$allocator@N@std@@@std@@YAPEANPEAN00AEAV?$allocator@N@0@@Z@4HA 0000000180048100     priorityqueue_api.obj
 0002:00003108       $unwind$??$_Uninitialized_fill_n@V?$allocator@N@std@@@std@@YAPEANPEAN_KAEBNAEAV?$allocator@N@0@@Z 0000000180048108     priorityqueue_api.obj
 0002:00003118       $cppxdata$??$_Uninitialized_fill_n@V?$allocator@N@std@@@std@@YAPEANPEAN_KAEBNAEAV?$allocator@N@0@@Z 0000000180048118     priorityqueue_api.obj
 0002:00003121       $stateUnwindMap$??$_Uninitialized_fill_n@V?$allocator@N@std@@@std@@YAPEANPEAN_KAEBNAEAV?$allocator@N@0@@Z 0000000180048121     priorityqueue_api.obj
 0002:00003127       $ip2state$??$_Uninitialized_fill_n@V?$allocator@N@std@@@std@@YAPEANPEAN_KAEBNAEAV?$allocator@N@0@@Z 0000000180048127     priorityqueue_api.obj
 0002:00003130       $unwind$?dtor$0@?0???$_Uninitialized_fill_n@V?$allocator@N@std@@@std@@YAPEANPEAN_KAEBNAEAV?$allocator@N@0@@Z@4HA 0000000180048130     priorityqueue_api.obj
 0002:00003138       $unwind$??$_Find_last@H@?$_Hash@V?$_Umap_traits@HV?$vector@NV?$allocator@N@std@@@std@@V?$_Uhash_compare@HU?$hash@H@std@@U?$equal_to@H@2@@2@V?$allocator@U?$pair@$$CBHV?$vector@NV?$allocator@N@std@@@std@@@std@@@2@$0A@@std@@@std@@IEBA?AU?$_Hash_find_last_result@PEAU?$_List_node@U?$pair@$$CBHV?$vector@NV?$allocator@N@std@@@std@@@std@@PEAX@std@@@1@AEBH_K@Z 0000000180048138     priorityqueue_api.obj
 0002:00003140       $unwind$??$?0AEAPEAU?$_List_node@U?$pair@$$CBHV?$vector@NV?$allocator@N@std@@@std@@@std@@PEAX@std@@_N$0A@@?$pair@PEAU?$_List_node@U?$pair@$$CBHV?$vector@NV?$allocator@N@std@@@std@@@std@@PEAX@std@@_N@std@@QEAA@AEAPEAU?$_List_node@U?$pair@$$CBHV?$vector@NV?$allocator@N@std@@@std@@@std@@PEAX@1@$$QEA_N@Z 0000000180048140     priorityqueue_api.obj
 0002:00003148       $unwind$?_Release@?$_Alloc_construct_ptr@V?$allocator@U?$_List_node@U?$pair@$$CBHV?$vector@NV?$allocator@N@std@@@std@@@std@@PEAX@std@@@std@@@std@@QEAAPEAU?$_List_node@U?$pair@$$CBHV?$vector@NV?$allocator@N@std@@@std@@@std@@PEAX@2@XZ 0000000180048148     priorityqueue_api.obj
 0002:00003150       $unwind$?_Allocate@?$_Alloc_construct_ptr@V?$allocator@U?$_List_node@U?$pair@$$CBHV?$vector@NV?$allocator@N@std@@@std@@@std@@PEAX@std@@@std@@@std@@QEAAXXZ 0000000180048150     priorityqueue_api.obj
 0002:00003158       $unwind$??1?$_Alloc_construct_ptr@V?$allocator@U?$_List_node@U?$pair@$$CBHV?$vector@NV?$allocator@N@std@@@std@@@std@@PEAX@std@@@std@@@std@@QEAA@XZ 0000000180048158     priorityqueue_api.obj
 0002:00003168       $cppxdata$??1?$_Alloc_construct_ptr@V?$allocator@U?$_List_node@U?$pair@$$CBHV?$vector@NV?$allocator@N@std@@@std@@@std@@PEAX@std@@@std@@@std@@QEAA@XZ 0000000180048168     priorityqueue_api.obj
 0002:0000316d       $ip2state$??1?$_Alloc_construct_ptr@V?$allocator@U?$_List_node@U?$pair@$$CBHV?$vector@NV?$allocator@N@std@@@std@@@std@@PEAX@std@@@std@@@std@@QEAA@XZ 000000018004816d     priorityqueue_api.obj
 0002:00003170       $unwind$??1?$_List_node_emplace_op2@V?$allocator@U?$_List_node@U?$pair@$$CBHV?$vector@NV?$allocator@N@std@@@std@@@std@@PEAX@std@@@std@@@std@@QEAA@XZ 0000000180048170     priorityqueue_api.obj
 0002:00003180       $cppxdata$??1?$_List_node_emplace_op2@V?$allocator@U?$_List_node@U?$pair@$$CBHV?$vector@NV?$allocator@N@std@@@std@@@std@@PEAX@std@@@std@@@std@@QEAA@XZ 0000000180048180     priorityqueue_api.obj
 0002:00003185       $ip2state$??1?$_List_node_emplace_op2@V?$allocator@U?$_List_node@U?$pair@$$CBHV?$vector@NV?$allocator@N@std@@@std@@@std@@PEAX@std@@@std@@@std@@QEAA@XZ 0000000180048185     priorityqueue_api.obj
 0002:00003188       $unwind$??$?0AEBUpiecewise_construct_t@std@@V?$tuple@AEBH@1@V?$tuple@$$V@1@@?$_List_node_emplace_op2@V?$allocator@U?$_List_node@U?$pair@$$CBHV?$vector@NV?$allocator@N@std@@@std@@@std@@PEAX@std@@@std@@@std@@QEAA@AEAV?$allocator@U?$_List_node@U?$pair@$$CBHV?$vector@NV?$allocator@N@std@@@std@@@std@@PEAX@std@@@1@AEBUpiecewise_construct_t@1@$$QEAV?$tuple@AEBH@1@$$QEAV?$tuple@$$V@1@@Z 0000000180048188     priorityqueue_api.obj
 0002:00003198       $cppxdata$??$?0AEBUpiecewise_construct_t@std@@V?$tuple@AEBH@1@V?$tuple@$$V@1@@?$_List_node_emplace_op2@V?$allocator@U?$_List_node@U?$pair@$$CBHV?$vector@NV?$allocator@N@std@@@std@@@std@@PEAX@std@@@std@@@std@@QEAA@AEAV?$allocator@U?$_List_node@U?$pair@$$CBHV?$vector@NV?$allocator@N@std@@@std@@@std@@PEAX@std@@@1@AEBUpiecewise_construct_t@1@$$QEAV?$tuple@AEBH@1@$$QEAV?$tuple@$$V@1@@Z 0000000180048198     priorityqueue_api.obj
 0002:000031a1       $stateUnwindMap$??$?0AEBUpiecewise_construct_t@std@@V?$tuple@AEBH@1@V?$tuple@$$V@1@@?$_List_node_emplace_op2@V?$allocator@U?$_List_node@U?$pair@$$CBHV?$vector@NV?$allocator@N@std@@@std@@@std@@PEAX@std@@@std@@@std@@QEAA@AEAV?$allocator@U?$_List_node@U?$pair@$$CBHV?$vector@NV?$allocator@N@std@@@std@@@std@@PEAX@std@@@1@AEBUpiecewise_construct_t@1@$$QEAV?$tuple@AEBH@1@$$QEAV?$tuple@$$V@1@@Z 00000001800481a1     priorityqueue_api.obj
 0002:000031a7       $ip2state$??$?0AEBUpiecewise_construct_t@std@@V?$tuple@AEBH@1@V?$tuple@$$V@1@@?$_List_node_emplace_op2@V?$allocator@U?$_List_node@U?$pair@$$CBHV?$vector@NV?$allocator@N@std@@@std@@@std@@PEAX@std@@@std@@@std@@QEAA@AEAV?$allocator@U?$_List_node@U?$pair@$$CBHV?$vector@NV?$allocator@N@std@@@std@@@std@@PEAX@std@@@1@AEBUpiecewise_construct_t@1@$$QEAV?$tuple@AEBH@1@$$QEAV?$tuple@$$V@1@@Z 00000001800481a7     priorityqueue_api.obj
 0002:000031b0       $unwind$?dtor$0@?0???$?0AEBUpiecewise_construct_t@std@@V?$tuple@AEBH@1@V?$tuple@$$V@1@@?$_List_node_emplace_op2@V?$allocator@U?$_List_node@U?$pair@$$CBHV?$vector@NV?$allocator@N@std@@@std@@@std@@PEAX@std@@@std@@@std@@QEAA@AEAV?$allocator@U?$_List_node@U?$pair@$$CBHV?$vector@NV?$allocator@N@std@@@std@@@std@@PEAX@std@@@1@AEBUpiecewise_construct_t@1@$$QEAV?$tuple@AEBH@1@$$QEAV?$tuple@$$V@1@@Z@4HA 00000001800481b0     priorityqueue_api.obj
 0002:000031b8       $unwind$??$?0PEAU?$_List_node@U?$pair@$$CBHV?$vector@NV?$allocator@N@std@@@std@@@std@@PEAX@std@@_N$0A@@?$pair@PEAU?$_List_node@U?$pair@$$CBHV?$vector@NV?$allocator@N@std@@@std@@@std@@PEAX@std@@_N@std@@QEAA@$$QEAPEAU?$_List_node@U?$pair@$$CBHV?$vector@NV?$allocator@N@std@@@std@@@std@@PEAX@1@$$QEA_N@Z 00000001800481b8     priorityqueue_api.obj
 0002:000031c0       $unwind$??$destroy@V?$vector@NV?$allocator@N@std@@@std@@@?$_Default_allocator_traits@V?$allocator@V?$vector@NV?$allocator@N@std@@@std@@@std@@@std@@SAXAEAV?$allocator@V?$vector@NV?$allocator@N@std@@@std@@@1@QEAV?$vector@NV?$allocator@N@std@@@1@@Z 00000001800481c0     priorityqueue_api.obj
 0002:000031c8       $unwind$??$?0AEBV?$allocator@U?$pair@$$CBHH@std@@@std@@$$V@?$_Compressed_pair@V?$allocator@V?$_List_unchecked_iterator@V?$_List_val@U?$_List_simple_types@U?$pair@$$CBHH@std@@@std@@@std@@@std@@@std@@V?$_Vector_val@U?$_Simple_types@V?$_List_unchecked_iterator@V?$_List_val@U?$_List_simple_types@U?$pair@$$CBHH@std@@@std@@@std@@@std@@@std@@@2@$00@std@@QEAA@U_One_then_variadic_args_t@1@AEBV?$allocator@U?$pair@$$CBHH@std@@@1@@Z 00000001800481c8     priorityqueue_api.obj
 0002:000031d0       $unwind$??$?0AEBV?$allocator@U?$pair@$$CBHV?$vector@NV?$allocator@N@std@@@std@@@std@@@std@@$$V@?$_Compressed_pair@V?$allocator@V?$_List_unchecked_iterator@V?$_List_val@U?$_List_simple_types@U?$pair@$$CBHV?$vector@NV?$allocator@N@std@@@std@@@std@@@std@@@std@@@std@@@std@@V?$_Vector_val@U?$_Simple_types@V?$_List_unchecked_iterator@V?$_List_val@U?$_List_simple_types@U?$pair@$$CBHV?$vector@NV?$allocator@N@std@@@std@@@std@@@std@@@std@@@std@@@std@@@2@$00@std@@QEAA@U_One_then_variadic_args_t@1@AEBV?$allocator@U?$pair@$$CBHV?$vector@NV?$allocator@N@std@@@std@@@std@@@1@@Z 00000001800481d0     priorityqueue_api.obj
 0002:000031d8       $unwind$??1?$_Uninitialized_backout@PEAV?$_List_unchecked_iterator@V?$_List_val@U?$_List_simple_types@U?$pair@$$CBHH@std@@@std@@@std@@@std@@@std@@QEAA@XZ 00000001800481d8     priorityqueue_api.obj
 0002:000031e0       $unwind$??$_Emplace_back@AEBV?$_List_unchecked_iterator@V?$_List_val@U?$_List_simple_types@U?$pair@$$CBHH@std@@@std@@@std@@@std@@@?$_Uninitialized_backout@PEAV?$_List_unchecked_iterator@V?$_List_val@U?$_List_simple_types@U?$pair@$$CBHH@std@@@std@@@std@@@std@@@std@@QEAAXAEBV?$_List_unchecked_iterator@V?$_List_val@U?$_List_simple_types@U?$pair@$$CBHH@std@@@std@@@std@@@1@@Z 00000001800481e0     priorityqueue_api.obj
 0002:000031e8       $unwind$??1?$_Uninitialized_backout@PEAV?$_List_unchecked_iterator@V?$_List_val@U?$_List_simple_types@U?$pair@$$CBHV?$vector@NV?$allocator@N@std@@@std@@@std@@@std@@@std@@@std@@@std@@QEAA@XZ 00000001800481e8     priorityqueue_api.obj
 0002:000031f0       $unwind$??$_Emplace_back@AEBV?$_List_unchecked_iterator@V?$_List_val@U?$_List_simple_types@U?$pair@$$CBHV?$vector@NV?$allocator@N@std@@@std@@@std@@@std@@@std@@@std@@@?$_Uninitialized_backout@PEAV?$_List_unchecked_iterator@V?$_List_val@U?$_List_simple_types@U?$pair@$$CBHV?$vector@NV?$allocator@N@std@@@std@@@std@@@std@@@std@@@std@@@std@@QEAAXAEBV?$_List_unchecked_iterator@V?$_List_val@U?$_List_simple_types@U?$pair@$$CBHV?$vector@NV?$allocator@N@std@@@std@@@std@@@std@@@std@@@1@@Z 00000001800481f0     priorityqueue_api.obj
 0002:000031f8       $unwind$??$_Allocate_manually_vector_aligned@U_Default_allocate_traits@std@@@std@@YAPEAX_K@Z 00000001800481f8     priorityqueue_api.obj
 0002:00003200       $unwind$??$destroy@U?$pair@$$CBHV?$vector@NV?$allocator@N@std@@@std@@@std@@@?$_Default_allocator_traits@V?$allocator@U?$_List_node@U?$pair@$$CBHV?$vector@NV?$allocator@N@std@@@std@@@std@@PEAX@std@@@std@@@std@@SAXAEAV?$allocator@U?$_List_node@U?$pair@$$CBHV?$vector@NV?$allocator@N@std@@@std@@@std@@PEAX@std@@@1@QEAU?$pair@$$CBHV?$vector@NV?$allocator@N@std@@@std@@@1@@Z 0000000180048200     priorityqueue_api.obj
 0002:00003208       $unwind$??$exchange@PEAU?$_List_node@U?$pair@$$CBHV?$vector@NV?$allocator@N@std@@@std@@@std@@PEAX@std@@$$T@std@@YAPEAU?$_List_node@U?$pair@$$CBHV?$vector@NV?$allocator@N@std@@@std@@@std@@PEAX@0@AEAPEAU10@$$QEA$$T@Z 0000000180048208     priorityqueue_api.obj
 0002:00003210       $unwind$??$exchange@PEAU?$_List_node@U?$pair@$$CBHH@std@@PEAX@std@@$$T@std@@YAPEAU?$_List_node@U?$pair@$$CBHH@std@@PEAX@0@AEAPEAU10@$$QEA$$T@Z 0000000180048210     priorityqueue_api.obj
 0002:00003218       $unwind$??$_Construct_in_place@PEAU?$_List_node@U?$pair@$$CBHH@std@@PEAX@std@@AEBQEAU12@@std@@YAXAEAPEAU?$_List_node@U?$pair@$$CBHH@std@@PEAX@0@AEBQEAU10@@Z 0000000180048218     priorityqueue_api.obj
 0002:00003220       $unwind$??$_Construct_in_place@PEAU?$_List_node@U?$pair@$$CBHV?$vector@NV?$allocator@N@std@@@std@@@std@@PEAX@std@@AEBQEAU12@@std@@YAXAEAPEAU?$_List_node@U?$pair@$$CBHV?$vector@NV?$allocator@N@std@@@std@@@std@@PEAX@0@AEBQEAU10@@Z 0000000180048220     priorityqueue_api.obj
 0002:00003228       $unwind$??1_Clear_guard@?$_Hash@V?$_Umap_traits@HHV?$_Uhash_compare@HU?$hash@H@std@@U?$equal_to@H@2@@std@@V?$allocator@U?$pair@$$CBHH@std@@@2@$0A@@std@@@std@@QEAA@XZ 0000000180048228     priorityqueue_api.obj
 0002:00003230       $unwind$??$?RHH@?$_Uhash_compare@HU?$hash@H@std@@U?$equal_to@H@2@@std@@QEBA_NAEBH0@Z 0000000180048230     priorityqueue_api.obj
 0002:00003238       $unwind$??$min@_K@std@@YAAEB_KAEB_K0@Z 0000000180048238     priorityqueue_api.obj
 0002:00003240       $unwind$??$_Allocate_at_least_helper@V?$allocator@N@std@@@std@@YAPEANAEAV?$allocator@N@0@AEA_K@Z 0000000180048240     priorityqueue_api.obj
 0002:00003248       $unwind$??1_Clear_guard@?$_Hash@V?$_Umap_traits@HV?$vector@NV?$allocator@N@std@@@std@@V?$_Uhash_compare@HU?$hash@H@std@@U?$equal_to@H@2@@2@V?$allocator@U?$pair@$$CBHV?$vector@NV?$allocator@N@std@@@std@@@std@@@2@$0A@@std@@@std@@QEAA@XZ 0000000180048248     priorityqueue_api.obj
 0002:00003250       $unwind$??$_Hash_representation@H@std@@YA_KAEBH@Z 0000000180048250     priorityqueue_api.obj
 0002:00003258       $unwind$??$_Uninitialized_copy@PEBNPEBNV?$allocator@N@std@@@std@@YAPEANPEBN0PEANAEAV?$allocator@N@0@@Z 0000000180048258     priorityqueue_api.obj
 0002:00003268       $cppxdata$??$_Uninitialized_copy@PEBNPEBNV?$allocator@N@std@@@std@@YAPEANPEBN0PEANAEAV?$allocator@N@0@@Z 0000000180048268     priorityqueue_api.obj
 0002:00003271       $stateUnwindMap$??$_Uninitialized_copy@PEBNPEBNV?$allocator@N@std@@@std@@YAPEANPEBN0PEANAEAV?$allocator@N@0@@Z 0000000180048271     priorityqueue_api.obj
 0002:00003277       $ip2state$??$_Uninitialized_copy@PEBNPEBNV?$allocator@N@std@@@std@@YAPEANPEBN0PEANAEAV?$allocator@N@0@@Z 0000000180048277     priorityqueue_api.obj
 0002:0000327c       $unwind$?dtor$0@?0???$_Uninitialized_copy@PEBNPEBNV?$allocator@N@std@@@std@@YAPEANPEBN0PEANAEAV?$allocator@N@0@@Z@4HA 000000018004827c     priorityqueue_api.obj
 0002:00003284       $unwind$??$construct@V?$vector@NV?$allocator@N@std@@@std@@AEBHN@?$_Default_allocator_traits@V?$allocator@V?$vector@NV?$allocator@N@std@@@std@@@std@@@std@@SAXAEAV?$allocator@V?$vector@NV?$allocator@N@std@@@std@@@1@QEAV?$vector@NV?$allocator@N@std@@@1@AEBH$$QEAN@Z 0000000180048284     priorityqueue_api.obj
 0002:0000328c       $unwind$??$_Allocate_at_least_helper@V?$allocator@V?$vector@NV?$allocator@N@std@@@std@@@std@@@std@@YAPEAV?$vector@NV?$allocator@N@std@@@0@AEAV?$allocator@V?$vector@NV?$allocator@N@std@@@std@@@0@AEA_K@Z 000000018004828c     priorityqueue_api.obj
 0002:00003294       $unwind$??$_Uninitialized_move@PEAV?$vector@NV?$allocator@N@std@@@std@@V?$allocator@V?$vector@NV?$allocator@N@std@@@std@@@2@@std@@YAPEAV?$vector@NV?$allocator@N@std@@@0@QEAV10@0PEAV10@AEAV?$allocator@V?$vector@NV?$allocator@N@std@@@std@@@0@@Z 0000000180048294     priorityqueue_api.obj
 0002:000032a4       $cppxdata$??$_Uninitialized_move@PEAV?$vector@NV?$allocator@N@std@@@std@@V?$allocator@V?$vector@NV?$allocator@N@std@@@std@@@2@@std@@YAPEAV?$vector@NV?$allocator@N@std@@@0@QEAV10@0PEAV10@AEAV?$allocator@V?$vector@NV?$allocator@N@std@@@std@@@0@@Z 00000001800482a4     priorityqueue_api.obj
 0002:000032ad       $stateUnwindMap$??$_Uninitialized_move@PEAV?$vector@NV?$allocator@N@std@@@std@@V?$allocator@V?$vector@NV?$allocator@N@std@@@std@@@2@@std@@YAPEAV?$vector@NV?$allocator@N@std@@@0@QEAV10@0PEAV10@AEAV?$allocator@V?$vector@NV?$allocator@N@std@@@std@@@0@@Z 00000001800482ad     priorityqueue_api.obj
 0002:000032b3       $ip2state$??$_Uninitialized_move@PEAV?$vector@NV?$allocator@N@std@@@std@@V?$allocator@V?$vector@NV?$allocator@N@std@@@std@@@2@@std@@YAPEAV?$vector@NV?$allocator@N@std@@@0@QEAV10@0PEAV10@AEAV?$allocator@V?$vector@NV?$allocator@N@std@@@std@@@0@@Z 00000001800482b3     priorityqueue_api.obj
 0002:000032bc       $unwind$?dtor$0@?0???$_Uninitialized_move@PEAV?$vector@NV?$allocator@N@std@@@std@@V?$allocator@V?$vector@NV?$allocator@N@std@@@std@@@2@@std@@YAPEAV?$vector@NV?$allocator@N@std@@@0@QEAV10@0PEAV10@AEAV?$allocator@V?$vector@NV?$allocator@N@std@@@std@@@0@@Z@4HA 00000001800482bc     priorityqueue_api.obj
 0002:000032c4       $unwind$??$_Emplace_back_with_unused_capacity@AEAHV?$vector@NV?$allocator@N@std@@@std@@@?$vector@U?$pair@HV?$vector@NV?$allocator@N@std@@@std@@@std@@V?$allocator@U?$pair@HV?$vector@NV?$allocator@N@std@@@std@@@std@@@2@@std@@AEAAAEAU?$pair@HV?$vector@NV?$allocator@N@std@@@std@@@1@AEAH$$QEAV?$vector@NV?$allocator@N@std@@@1@@Z 00000001800482c4     priorityqueue_api.obj
 0002:000032cc       $unwind$??$_Emplace_reallocate@AEAHV?$vector@NV?$allocator@N@std@@@std@@@?$vector@U?$pair@HV?$vector@NV?$allocator@N@std@@@std@@@std@@V?$allocator@U?$pair@HV?$vector@NV?$allocator@N@std@@@std@@@std@@@2@@std@@AEAAPEAU?$pair@HV?$vector@NV?$allocator@N@std@@@std@@@1@QEAU21@AEAH$$QEAV?$vector@NV?$allocator@N@std@@@1@@Z 00000001800482cc     priorityqueue_api.obj
 0002:000032dc       $cppxdata$??$_Emplace_reallocate@AEAHV?$vector@NV?$allocator@N@std@@@std@@@?$vector@U?$pair@HV?$vector@NV?$allocator@N@std@@@std@@@std@@V?$allocator@U?$pair@HV?$vector@NV?$allocator@N@std@@@std@@@std@@@2@@std@@AEAAPEAU?$pair@HV?$vector@NV?$allocator@N@std@@@std@@@1@QEAU21@AEAH$$QEAV?$vector@NV?$allocator@N@std@@@1@@Z 00000001800482dc     priorityqueue_api.obj
 0002:000032e9       $stateUnwindMap$??$_Emplace_reallocate@AEAHV?$vector@NV?$allocator@N@std@@@std@@@?$vector@U?$pair@HV?$vector@NV?$allocator@N@std@@@std@@@std@@V?$allocator@U?$pair@HV?$vector@NV?$allocator@N@std@@@std@@@std@@@2@@std@@AEAAPEAU?$pair@HV?$vector@NV?$allocator@N@std@@@std@@@1@QEAU21@AEAH$$QEAV?$vector@NV?$allocator@N@std@@@1@@Z 00000001800482e9     priorityqueue_api.obj
 0002:000032ec       $tryMap$??$_Emplace_reallocate@AEAHV?$vector@NV?$allocator@N@std@@@std@@@?$vector@U?$pair@HV?$vector@NV?$allocator@N@std@@@std@@@std@@V?$allocator@U?$pair@HV?$vector@NV?$allocator@N@std@@@std@@@std@@@2@@std@@AEAAPEAU?$pair@HV?$vector@NV?$allocator@N@std@@@std@@@1@QEAU21@AEAH$$QEAV?$vector@NV?$allocator@N@std@@@1@@Z 00000001800482ec     priorityqueue_api.obj
 0002:000032f4       $handlerMap$??$_Emplace_reallocate@AEAHV?$vector@NV?$allocator@N@std@@@std@@@?$vector@U?$pair@HV?$vector@NV?$allocator@N@std@@@std@@@std@@V?$allocator@U?$pair@HV?$vector@NV?$allocator@N@std@@@std@@@std@@@2@@std@@AEAAPEAU?$pair@HV?$vector@NV?$allocator@N@std@@@std@@@1@QEAU21@AEAH$$QEAV?$vector@NV?$allocator@N@std@@@1@@Z 00000001800482f4     priorityqueue_api.obj
 0002:000032fb       $ip2state$??$_Emplace_reallocate@AEAHV?$vector@NV?$allocator@N@std@@@std@@@?$vector@U?$pair@HV?$vector@NV?$allocator@N@std@@@std@@@std@@V?$allocator@U?$pair@HV?$vector@NV?$allocator@N@std@@@std@@@std@@@2@@std@@AEAAPEAU?$pair@HV?$vector@NV?$allocator@N@std@@@std@@@1@QEAU21@AEAH$$QEAV?$vector@NV?$allocator@N@std@@@1@@Z 00000001800482fb     priorityqueue_api.obj
 0002:00003304       $unwind$?catch$0@?0???$_Emplace_reallocate@AEAHV?$vector@NV?$allocator@N@std@@@std@@@?$vector@U?$pair@HV?$vector@NV?$allocator@N@std@@@std@@@std@@V?$allocator@U?$pair@HV?$vector@NV?$allocator@N@std@@@std@@@std@@@2@@std@@AEAAPEAU?$pair@HV?$vector@NV?$allocator@N@std@@@std@@@1@QEAU21@AEAH$$QEAV?$vector@NV?$allocator@N@std@@@1@@Z@4HA 0000000180048304     priorityqueue_api.obj
 0002:0000330c       $unwind$??$_Push_heap_by_index@PEAU?$pair@HV?$vector@NV?$allocator@N@std@@@std@@@std@@U12@Ucomparator@PriorityQueueImpl@nav@@@std@@YAXPEAU?$pair@HV?$vector@NV?$allocator@N@std@@@std@@@0@_J1$$QEAU10@Ucomparator@PriorityQueueImpl@nav@@@Z 000000018004830c     priorityqueue_api.obj
 0002:00003314       $unwind$??$_Pop_heap_hole_unchecked@PEAU?$pair@HV?$vector@NV?$allocator@N@std@@@std@@@std@@U12@Ucomparator@PriorityQueueImpl@nav@@@std@@YAXPEAU?$pair@HV?$vector@NV?$allocator@N@std@@@std@@@0@00$$QEAU10@Ucomparator@PriorityQueueImpl@nav@@@Z 0000000180048314     priorityqueue_api.obj
 0002:0000331c       $unwind$??$construct@V?$vector@NV?$allocator@N@std@@@std@@AEBV12@@?$_Default_allocator_traits@V?$allocator@V?$vector@NV?$allocator@N@std@@@std@@@std@@@std@@SAXAEAV?$allocator@V?$vector@NV?$allocator@N@std@@@std@@@1@QEAV?$vector@NV?$allocator@N@std@@@1@AEBV31@@Z 000000018004831c     priorityqueue_api.obj
 0002:00003324       $unwind$??$?0AEBH$0A@@?$tuple@AEBH@std@@QEAA@AEBH@Z 0000000180048324     priorityqueue_api.obj
 0002:00003334       $cppxdata$??$?0AEBH$0A@@?$tuple@AEBH@std@@QEAA@AEBH@Z 0000000180048334     priorityqueue_api.obj
 0002:00003339       $ip2state$??$?0AEBH$0A@@?$tuple@AEBH@std@@QEAA@AEBH@Z 0000000180048339     priorityqueue_api.obj
 0002:0000333c       $unwind$??$construct@U?$pair@$$CBHH@std@@AEBUpiecewise_construct_t@2@V?$tuple@AEBH@2@V?$tuple@$$V@2@@?$_Default_allocator_traits@V?$allocator@U?$_List_node@U?$pair@$$CBHH@std@@PEAX@std@@@std@@@std@@SAXAEAV?$allocator@U?$_List_node@U?$pair@$$CBHH@std@@PEAX@std@@@1@QEAU?$pair@$$CBHH@1@AEBUpiecewise_construct_t@1@$$QEAV?$tuple@AEBH@1@$$QEAV?$tuple@$$V@1@@Z 000000018004833c     priorityqueue_api.obj
 0002:00003344       $unwind$??$_Copy_memmove@PEANPEAN@std@@YAPEANPEAN00@Z 0000000180048344     priorityqueue_api.obj
 0002:0000334c       $unwind$??1?$_Uninitialized_backout_al@V?$allocator@N@std@@@std@@QEAA@XZ 000000018004834c     priorityqueue_api.obj
 0002:00003354       $unwind$??$_Emplace_back@AEAN@?$_Uninitialized_backout_al@V?$allocator@N@std@@@std@@QEAAXAEAN@Z 0000000180048354     priorityqueue_api.obj
 0002:0000335c       $unwind$??$_Is_all_bits_zero@N@std@@YA_NAEBN@Z 000000018004835c     priorityqueue_api.obj
 0002:00003364       $unwind$??$_Fill_zero_memset@PEAN@std@@YAXPEAN_K@Z 0000000180048364     priorityqueue_api.obj
 0002:0000336c       $unwind$??$_Emplace_back@AEBN@?$_Uninitialized_backout_al@V?$allocator@N@std@@@std@@QEAAXAEBN@Z 000000018004836c     priorityqueue_api.obj
 0002:00003374       $unwind$??$construct@U?$pair@$$CBHV?$vector@NV?$allocator@N@std@@@std@@@std@@AEBUpiecewise_construct_t@2@V?$tuple@AEBH@2@V?$tuple@$$V@2@@?$_Default_allocator_traits@V?$allocator@U?$_List_node@U?$pair@$$CBHV?$vector@NV?$allocator@N@std@@@std@@@std@@PEAX@std@@@std@@@std@@SAXAEAV?$allocator@U?$_List_node@U?$pair@$$CBHV?$vector@NV?$allocator@N@std@@@std@@@std@@PEAX@std@@@1@QEAU?$pair@$$CBHV?$vector@NV?$allocator@N@std@@@std@@@1@AEBUpiecewise_construct_t@1@$$QEAV?$tuple@AEBH@1@$$QEAV?$tuple@$$V@1@@Z 0000000180048374     priorityqueue_api.obj
 0002:0000337c       $unwind$??$_Construct_in_place@V?$_List_unchecked_iterator@V?$_List_val@U?$_List_simple_types@U?$pair@$$CBHH@std@@@std@@@std@@@std@@AEBV12@@std@@YAXAEAV?$_List_unchecked_iterator@V?$_List_val@U?$_List_simple_types@U?$pair@$$CBHH@std@@@std@@@std@@@0@AEBV10@@Z 000000018004837c     priorityqueue_api.obj
 0002:00003384       $unwind$??$_Construct_in_place@V?$_List_unchecked_iterator@V?$_List_val@U?$_List_simple_types@U?$pair@$$CBHV?$vector@NV?$allocator@N@std@@@std@@@std@@@std@@@std@@@std@@AEBV12@@std@@YAXAEAV?$_List_unchecked_iterator@V?$_List_val@U?$_List_simple_types@U?$pair@$$CBHV?$vector@NV?$allocator@N@std@@@std@@@std@@@std@@@std@@@0@AEBV10@@Z 0000000180048384     priorityqueue_api.obj
 0002:0000338c       $unwind$??$_Fnv1a_append_value@H@std@@YA_K_KAEBH@Z 000000018004838c     priorityqueue_api.obj
 0002:00003394       $unwind$??$_Copy_memmove@PEBNPEAN@std@@YAPEANPEBN0PEAN@Z 0000000180048394     priorityqueue_api.obj
 0002:0000339c       $unwind$??1?$_Uninitialized_backout_al@V?$allocator@V?$vector@NV?$allocator@N@std@@@std@@@std@@@std@@QEAA@XZ 000000018004839c     priorityqueue_api.obj
 0002:000033a4       $unwind$??$_Emplace_back@V?$vector@NV?$allocator@N@std@@@std@@@?$_Uninitialized_backout_al@V?$allocator@V?$vector@NV?$allocator@N@std@@@std@@@std@@@std@@QEAAX$$QEAV?$vector@NV?$allocator@N@std@@@1@@Z 00000001800483a4     priorityqueue_api.obj
 0002:000033ac       $unwind$??$?0AEAHV?$vector@NV?$allocator@N@std@@@std@@$0A@@?$pair@HV?$vector@NV?$allocator@N@std@@@std@@@std@@QEAA@AEAH$$QEAV?$vector@NV?$allocator@N@std@@@1@@Z 00000001800483ac     priorityqueue_api.obj
 0002:000033b4       $unwind$??$_Construct_in_place@U?$pair@HV?$vector@NV?$allocator@N@std@@@std@@@std@@AEAHV?$vector@NV?$allocator@N@std@@@2@@std@@YAXAEAU?$pair@HV?$vector@NV?$allocator@N@std@@@std@@@0@AEAH$$QEAV?$vector@NV?$allocator@N@std@@@0@@Z 00000001800483b4     priorityqueue_api.obj
 0002:000033bc       $unwind$??$_Allocate_at_least_helper@V?$allocator@U?$pair@HV?$vector@NV?$allocator@N@std@@@std@@@std@@@std@@@std@@YAPEAU?$pair@HV?$vector@NV?$allocator@N@std@@@std@@@0@AEAV?$allocator@U?$pair@HV?$vector@NV?$allocator@N@std@@@std@@@std@@@0@AEA_K@Z 00000001800483bc     priorityqueue_api.obj
 0002:000033c4       $unwind$??$construct@U?$pair@HV?$vector@NV?$allocator@N@std@@@std@@@std@@AEAHV?$vector@NV?$allocator@N@std@@@2@@?$_Default_allocator_traits@V?$allocator@U?$pair@HV?$vector@NV?$allocator@N@std@@@std@@@std@@@std@@@std@@SAXAEAV?$allocator@U?$pair@HV?$vector@NV?$allocator@N@std@@@std@@@std@@@1@QEAU?$pair@HV?$vector@NV?$allocator@N@std@@@std@@@1@AEAH$$QEAV?$vector@NV?$allocator@N@std@@@1@@Z 00000001800483c4     priorityqueue_api.obj
 0002:000033cc       $unwind$??$_Uninitialized_move@PEAU?$pair@HV?$vector@NV?$allocator@N@std@@@std@@@std@@V?$allocator@U?$pair@HV?$vector@NV?$allocator@N@std@@@std@@@std@@@2@@std@@YAPEAU?$pair@HV?$vector@NV?$allocator@N@std@@@std@@@0@QEAU10@0PEAU10@AEAV?$allocator@U?$pair@HV?$vector@NV?$allocator@N@std@@@std@@@std@@@0@@Z 00000001800483cc     priorityqueue_api.obj
 0002:000033dc       $cppxdata$??$_Uninitialized_move@PEAU?$pair@HV?$vector@NV?$allocator@N@std@@@std@@@std@@V?$allocator@U?$pair@HV?$vector@NV?$allocator@N@std@@@std@@@std@@@2@@std@@YAPEAU?$pair@HV?$vector@NV?$allocator@N@std@@@std@@@0@QEAU10@0PEAU10@AEAV?$allocator@U?$pair@HV?$vector@NV?$allocator@N@std@@@std@@@std@@@0@@Z 00000001800483dc     priorityqueue_api.obj
 0002:000033e5       $stateUnwindMap$??$_Uninitialized_move@PEAU?$pair@HV?$vector@NV?$allocator@N@std@@@std@@@std@@V?$allocator@U?$pair@HV?$vector@NV?$allocator@N@std@@@std@@@std@@@2@@std@@YAPEAU?$pair@HV?$vector@NV?$allocator@N@std@@@std@@@0@QEAU10@0PEAU10@AEAV?$allocator@U?$pair@HV?$vector@NV?$allocator@N@std@@@std@@@std@@@0@@Z 00000001800483e5     priorityqueue_api.obj
 0002:000033eb       $ip2state$??$_Uninitialized_move@PEAU?$pair@HV?$vector@NV?$allocator@N@std@@@std@@@std@@V?$allocator@U?$pair@HV?$vector@NV?$allocator@N@std@@@std@@@std@@@2@@std@@YAPEAU?$pair@HV?$vector@NV?$allocator@N@std@@@std@@@0@QEAU10@0PEAU10@AEAV?$allocator@U?$pair@HV?$vector@NV?$allocator@N@std@@@std@@@std@@@0@@Z 00000001800483eb     priorityqueue_api.obj
 0002:000033f4       $unwind$?dtor$0@?0???$_Uninitialized_move@PEAU?$pair@HV?$vector@NV?$allocator@N@std@@@std@@@std@@V?$allocator@U?$pair@HV?$vector@NV?$allocator@N@std@@@std@@@std@@@2@@std@@YAPEAU?$pair@HV?$vector@NV?$allocator@N@std@@@std@@@0@QEAU10@0PEAU10@AEAV?$allocator@U?$pair@HV?$vector@NV?$allocator@N@std@@@std@@@std@@@0@@Z@4HA 00000001800483f4     priorityqueue_api.obj
 0002:000033fc       $unwind$??$?4U?$pair@HV?$vector@NV?$allocator@N@std@@@std@@@std@@$0A@@?$pair@HV?$vector@NV?$allocator@N@std@@@std@@@std@@QEAAAEAU01@$$QEAU01@@Z 00000001800483fc     priorityqueue_api.obj
 0002:00003404       $unwind$??$_Pop_heap_hole_by_index@PEAU?$pair@HV?$vector@NV?$allocator@N@std@@@std@@@std@@U12@Ucomparator@PriorityQueueImpl@nav@@@std@@YAXPEAU?$pair@HV?$vector@NV?$allocator@N@std@@@std@@@0@_J1$$QEAU10@Ucomparator@PriorityQueueImpl@nav@@@Z 0000000180048404     priorityqueue_api.obj
 0002:0000340c       $unwind$??$?0U_Exact_args_t@std@@AEBH$$V$0A@@?$tuple@AEBH@std@@QEAA@U_Exact_args_t@1@AEBH@Z 000000018004840c     priorityqueue_api.obj
 0002:00003414       $unwind$??$?0AEBH$$Z$$V@?$pair@$$CBHH@std@@QEAA@Upiecewise_construct_t@1@V?$tuple@AEBH@1@V?$tuple@$$V@1@@Z 0000000180048414     priorityqueue_api.obj
 0002:0000341c       $unwind$??$construct@NAEAN@?$_Default_allocator_traits@V?$allocator@N@std@@@std@@SAXAEAV?$allocator@N@1@QEANAEAN@Z 000000018004841c     priorityqueue_api.obj
 0002:00003424       $unwind$??$construct@NAEBN@?$_Default_allocator_traits@V?$allocator@N@std@@@std@@SAXAEAV?$allocator@N@1@QEANAEBN@Z 0000000180048424     priorityqueue_api.obj
 0002:0000342c       $unwind$??$?0AEBH$$Z$$V@?$pair@$$CBHV?$vector@NV?$allocator@N@std@@@std@@@std@@QEAA@Upiecewise_construct_t@1@V?$tuple@AEBH@1@V?$tuple@$$V@1@@Z 000000018004842c     priorityqueue_api.obj
 0002:00003434       $unwind$??$construct@V?$vector@NV?$allocator@N@std@@@std@@V12@@?$_Default_allocator_traits@V?$allocator@V?$vector@NV?$allocator@N@std@@@std@@@std@@@std@@SAXAEAV?$allocator@V?$vector@NV?$allocator@N@std@@@std@@@1@QEAV?$vector@NV?$allocator@N@std@@@1@$$QEAV31@@Z 0000000180048434     priorityqueue_api.obj
 0002:0000343c       $unwind$??1?$_Uninitialized_backout_al@V?$allocator@U?$pair@HV?$vector@NV?$allocator@N@std@@@std@@@std@@@std@@@std@@QEAA@XZ 000000018004843c     priorityqueue_api.obj
 0002:00003444       $unwind$??$_Emplace_back@U?$pair@HV?$vector@NV?$allocator@N@std@@@std@@@std@@@?$_Uninitialized_backout_al@V?$allocator@U?$pair@HV?$vector@NV?$allocator@N@std@@@std@@@std@@@std@@@std@@QEAAX$$QEAU?$pair@HV?$vector@NV?$allocator@N@std@@@std@@@1@@Z 0000000180048444     priorityqueue_api.obj
 0002:0000344c       $unwind$??$?0AEBH@?$_Tuple_val@AEBH@std@@QEAA@AEBH@Z 000000018004844c     priorityqueue_api.obj
 0002:00003454       $unwind$??$?0V?$tuple@AEBH@std@@V?$tuple@$$V@1@$0A@$$Z$S@?$pair@$$CBHH@std@@QEAA@AEAV?$tuple@AEBH@1@AEAV?$tuple@$$V@1@U?$integer_sequence@_K$0A@@1@U?$integer_sequence@_K$S@1@@Z 0000000180048454     priorityqueue_api.obj
 0002:0000345c       $unwind$??$?0V?$tuple@AEBH@std@@V?$tuple@$$V@1@$0A@$$Z$S@?$pair@$$CBHV?$vector@NV?$allocator@N@std@@@std@@@std@@QEAA@AEAV?$tuple@AEBH@1@AEAV?$tuple@$$V@1@U?$integer_sequence@_K$0A@@1@U?$integer_sequence@_K$S@1@@Z 000000018004845c     priorityqueue_api.obj
 0002:00003464       $unwind$??$_Get_size_of_n@$0CA@@std@@YA_K_K@Z 0000000180048464     priorityqueue_api.obj
 0002:0000346c       $unwind$??$construct@U?$pair@HV?$vector@NV?$allocator@N@std@@@std@@@std@@U12@@?$_Default_allocator_traits@V?$allocator@U?$pair@HV?$vector@NV?$allocator@N@std@@@std@@@std@@@std@@@std@@SAXAEAV?$allocator@U?$pair@HV?$vector@NV?$allocator@N@std@@@std@@@std@@@1@QEAU?$pair@HV?$vector@NV?$allocator@N@std@@@std@@@1@$$QEAU31@@Z 000000018004846c     priorityqueue_api.obj
 0002:00003474       $unwind$??$?0$$V@?$_Compressed_pair@V?$allocator@N@std@@V?$_Vector_val@U?$_Simple_types@N@std@@@2@$00@std@@QEAA@U_Zero_then_variadic_args_t@1@@Z 0000000180048474     priorityqueue_api.obj
 0002:0000347c       $unwind$getBitfieldFromFloat 000000018004847c     half_type.obj
 0002:00003484       $unwind$getFloatFromBitfield 0000000180048484     half_type.obj
 0002:0000348c       $unwind$getHalfFromBitfield 000000018004848c     half_type.obj
 0002:00003494       $unwind$halfToFloat        0000000180048494     half_type.obj
 0002:0000349c       $unwind$halfToDouble       000000018004849c     half_type.obj
 0002:000034a4       $unwind$floatToHalf        00000001800484a4     half_type.obj
 0002:000034ac       $unwind$doubleToHalf       00000001800484ac     half_type.obj
 0002:000034b4       $unwind$__report_securityfailure 00000001800484b4     MSVCRT:gs_report.obj
 0002:000034bc       $unwind$__report_securityfailureEx 00000001800484bc     MSVCRT:gs_report.obj
 0002:000034c4       $unwind$__report_rangecheckfailure 00000001800484c4     MSVCRT:gs_report.obj
 0002:000034cc       $unwind$__report_gsfailure 00000001800484cc     MSVCRT:gs_report.obj
 0002:000034d4       $unwind$capture_current_context 00000001800484d4     MSVCRT:gs_report.obj
 0002:000034e0       $unwind$capture_previous_context 00000001800484e0     MSVCRT:gs_report.obj
 0002:000034ec       $unwind$__raise_securityfailure 00000001800484ec     MSVCRT:gs_report.obj
 0002:000034f4       $unwind$__GSHandlerCheckCommon 00000001800484f4     MSVCRT:gshandler.obj
 0002:000034fc       $unwind$__GSHandlerCheck   00000001800484fc     MSVCRT:gshandler.obj
 0002:00003508       $xdatasym                  0000000180048508     MSVCRT:amdsecgs.obj
 0002:00003510       $xdatasym                  0000000180048510     MSVCRT:chkstk.obj
 0002:00003518       $unwind$??2@YAPEAX_K@Z     0000000180048518     MSVCRT:new_scalar.obj
 0002:00003520       $unwind$??_Gtype_info@@UEAAPEAXI@Z 0000000180048520     MSVCRT:std_type_info_static.obj
 0002:00003528       $unwind$?dllmain_crt_process_attach@@YAHQEAUHINSTANCE__@@QEAX@Z 0000000180048528     MSVCRT:dll_dllmain.obj
 0002:00003564       $unwind$?fin$0@?0??dllmain_crt_process_attach@@YAHQEAUHINSTANCE__@@QEAX@Z@4HA 0000000180048564     MSVCRT:dll_dllmain.obj
 0002:0000356c       $unwind$?dllmain_crt_process_detach@@YAH_N@Z 000000018004856c     MSVCRT:dll_dllmain.obj
 0002:000035c0       $unwind$?fin$0@?0??dllmain_crt_process_detach@@YAH_N@Z@4HA 00000001800485c0     MSVCRT:dll_dllmain.obj
 0002:000035c8       $unwind$?fin$1@?0??dllmain_crt_process_detach@@YAH_N@Z@4HA 00000001800485c8     MSVCRT:dll_dllmain.obj
 0002:000035d0       $unwind$?dllmain_crt_dispatch@@YAHQEAUHINSTANCE__@@KQEAX@Z 00000001800485d0     MSVCRT:dll_dllmain.obj
 0002:000035d8       $unwind$?dllmain_dispatch@@YAHQEAUHINSTANCE__@@KQEAX@Z 00000001800485d8     MSVCRT:dll_dllmain.obj
 0002:00003600       $unwind$?filt$0@?0??dllmain_dispatch@@YAHQEAUHINSTANCE__@@KQEAX@Z@4HA 0000000180048600     MSVCRT:dll_dllmain.obj
 0002:00003608       $unwind$_DllMainCRTStartup 0000000180048608     MSVCRT:dll_dllmain.obj
 0002:00003618       $unwind$?__scrt_throw_std_bad_alloc@@YAXXZ 0000000180048618     MSVCRT:throw_bad_alloc.obj
 0002:00003620       $unwind$?__scrt_throw_std_bad_array_new_length@@YAXXZ 0000000180048620     MSVCRT:throw_bad_alloc.obj
 0002:00003628       $unwind$__security_init_cookie 0000000180048628     MSVCRT:gs_support.obj
 0002:00003634       $unwind$__get_entropy      0000000180048634     MSVCRT:gs_support.obj
 0002:0000363c       $unwind$DllMain            000000018004863c     MSVCRT:dll_dllmain_stub.obj
 0002:00003644       $unwind$__scrt_initialize_default_local_stdio_options 0000000180048644     MSVCRT:default_local_stdio_options.obj
 0002:0000364c       $unwind$atexit             000000018004864c     MSVCRT:utility.obj
 0002:00003654       $unwind$_onexit            0000000180048654     MSVCRT:utility.obj
 0002:0000365c       $unwind$__scrt_is_nonwritable_in_current_image 000000018004865c     MSVCRT:utility.obj
 0002:0000367c       $unwind$__scrt_is_nonwritable_in_current_image$filt$0 000000018004867c     MSVCRT:utility.obj
 0002:00003684       $unwind$__scrt_acquire_startup_lock 0000000180048684     MSVCRT:utility.obj
 0002:0000368c       $unwind$__scrt_release_startup_lock 000000018004868c     MSVCRT:utility.obj
 0002:00003694       $unwind$__scrt_initialize_crt 0000000180048694     MSVCRT:utility.obj
 0002:0000369c       $unwind$__scrt_uninitialize_crt 000000018004869c     MSVCRT:utility.obj
 0002:000036a4       $unwind$__scrt_initialize_onexit_tables 00000001800486a4     MSVCRT:utility.obj
 0002:000036ac       $unwind$__scrt_dllmain_exception_filter 00000001800486ac     MSVCRT:utility.obj
 0002:000036c0       $unwind$__scrt_dllmain_before_initialize_c 00000001800486c0     MSVCRT:utility.obj
 0002:000036c8       $unwind$__scrt_dllmain_after_initialize_c 00000001800486c8     MSVCRT:utility.obj
 0002:000036d0       $unwind$__scrt_dllmain_uninitialize_c 00000001800486d0     MSVCRT:utility.obj
 0002:000036d8       $unwind$__scrt_dllmain_uninitialize_critical 00000001800486d8     MSVCRT:utility.obj
 0002:000036e0       $unwind$__scrt_dllmain_crt_thread_attach 00000001800486e0     MSVCRT:utility.obj
 0002:000036e8       $unwind$__scrt_dllmain_crt_thread_detach 00000001800486e8     MSVCRT:utility.obj
 0002:000036f0       $unwind$?configure_argv@__scrt_narrow_argv_policy@@SAHXZ 00000001800486f0     MSVCRT:utility.obj
 0002:000036f8       $unwind$__scrt_get_show_window_mode 00000001800486f8     MSVCRT:utility_desktop.obj
 0002:00003700       $unwind$__scrt_is_managed_app 0000000180048700     MSVCRT:utility_desktop.obj
 0002:00003708       $unwind$__scrt_fastfail    0000000180048708     MSVCRT:utility_desktop.obj
 0002:00003718       $unwind$__scrt_unhandled_exception_filter 0000000180048718     MSVCRT:utility_desktop.obj
 0002:00003724       $unwind$_RTC_Initialize    0000000180048724     MSVCRT:initsect.obj
 0002:00003730       $unwind$_RTC_Terminate     0000000180048730     MSVCRT:initsect.obj
 0002:0000373c       $unwind$__castguard_check_failure_os_handled_wrapper 000000018004873c     MSVCRT:guard_support.obj
 0002:00003744       $unwind$__castguard_check_failure_user_handled_wrapper 0000000180048744     MSVCRT:guard_support.obj
 0002:0000374c       $unwind$__castguard_check_failure_os_handled 000000018004874c     MSVCRT:guard_support.obj
 0002:00003754       $unwind$__castguard_check_failure_user_handled 0000000180048754     MSVCRT:guard_support.obj
 0002:0000375c       $unwind$__castguard_slow_path_check_os_handled 000000018004875c     MSVCRT:guard_support.obj
 0002:00003764       $unwind$__castguard_slow_path_check_user_handled 0000000180048764     MSVCRT:guard_support.obj
 0002:0000376c       $unwind$__isa_available_init 000000018004876c     MSVCRT:cpu_disp.obj
 0002:00003780       $xdatasym                  0000000180048780     MSVCRT:guard_dispatch.obj
 0002:00003788       $xdatasym                  0000000180048788     MSVCRT:guard_xfg_dispatch.obj
 0002:00003880       .edata                     0000000180048880     sl_groundvehicleDynamics_sfun.exp
 0002:000038a8       rgpv                       00000001800488a8     sl_groundvehicleDynamics_sfun.exp
 0002:000038b0       rgszName                   00000001800488b0     sl_groundvehicleDynamics_sfun.exp
 0002:000038b8       rgwOrd                     00000001800488b8     sl_groundvehicleDynamics_sfun.exp
 0002:000038bc       szName                     00000001800488bc     sl_groundvehicleDynamics_sfun.exp
 0002:000038e1       $N00001                    00000001800488e1     sl_groundvehicleDynamics_sfun.exp
 0002:000038ed       $N00002                    00000001800488ed     sl_groundvehicleDynamics_sfun.exp
 0002:000046b6       .idata$6                   00000001800496b6     sf_runtime:sf_runtime.dll
 0002:00004870       .idata$6                   0000000180049870     libmx:libmx.dll
 0002:00004904       .idata$6                   0000000180049904     libmex:libmex.dll
 0002:00004926       .idata$6                   0000000180049926     libut:libut.dll
 0002:00004a1a       .idata$6                   0000000180049a1a     libmwmathutil:libmwmathutil.dll
 0002:00004bec       .idata$6                   0000000180049bec     libemlrt:libemlrt.dll
 0002:00004d6a       .idata$6                   0000000180049d6a     libcovrt:libcovrt.dll
 0002:00004d9a       .idata$6                   0000000180049d9a     msvcprt:MSVCP140.dll
 0002:00004f34       .idata$6                   0000000180049f34     kernel32:KERNEL32.dll
 0002:00005034       .idata$6                   000000018004a034     vcruntime:VCRUNTIME140.dll
 0002:00005046       .idata$6                   000000018004a046     vcruntime:VCRUNTIME140_1.dll
 0002:000051ec       .idata$6                   000000018004a1ec     ucrt:api-ms-win-crt-string-l1-1-0.dll
 0002:0000520e       .idata$6                   000000018004a20e     ucrt:api-ms-win-crt-math-l1-1-0.dll
 0002:0000522e       .idata$6                   000000018004a22e     ucrt:api-ms-win-crt-stdio-l1-1-0.dll
 0002:0000524e       .idata$6                   000000018004a24e     ucrt:api-ms-win-crt-heap-l1-1-0.dll
 0002:0000526e       .idata$6                   000000018004a26e     ucrt:api-ms-win-crt-runtime-l1-1-0.dll
 0003:00000000       $SG21372                   000000018004b000     sl_groundvehicleDynamics_sfun.obj
 0003:00000018       $SG21377                   000000018004b018     sl_groundvehicleDynamics_sfun.obj
 0003:00000020       $SG21380                   000000018004b020     sl_groundvehicleDynamics_sfun.obj
 0003:00000028       $SG21385                   000000018004b028     sl_groundvehicleDynamics_sfun.obj
 0003:00000030       $SG21411                   000000018004b030     sl_groundvehicleDynamics_sfun.obj
 0003:00000050       $SG21414                   000000018004b050     sl_groundvehicleDynamics_sfun.obj
 0003:00000068       $SG21439                   000000018004b068     sl_groundvehicleDynamics_sfun.obj
 0003:00000088       $SG21442                   000000018004b088     sl_groundvehicleDynamics_sfun.obj
 0003:000000a0       $SG21467                   000000018004b0a0     sl_groundvehicleDynamics_sfun.obj
 0003:000000b8       $SG21470                   000000018004b0b8     sl_groundvehicleDynamics_sfun.obj
 0003:000000d0       $SG21496                   000000018004b0d0     sl_groundvehicleDynamics_sfun.obj
 0003:000000e8       $SG21499                   000000018004b0e8     sl_groundvehicleDynamics_sfun.obj
 0003:00000100       $SG21524                   000000018004b100     sl_groundvehicleDynamics_sfun.obj
 0003:00000120       $SG21527                   000000018004b120     sl_groundvehicleDynamics_sfun.obj
 0003:00000138       $SG21546                   000000018004b138     sl_groundvehicleDynamics_sfun.obj
 0003:00000158       $SG21547                   000000018004b158     sl_groundvehicleDynamics_sfun.obj
 0003:00000180       $SG21312                   000000018004b180     c5_sl_groundvehicleDynamics.obj
 0003:000001a0       $SG21313                   000000018004b1a0     c5_sl_groundvehicleDynamics.obj
 0003:000001fc       $SG29506                   000000018004b1fc     c5_sl_groundvehicleDynamics.obj
 0003:00000200       $SG29507                   000000018004b200     c5_sl_groundvehicleDynamics.obj
 0003:00000208       $SG21315                   000000018004b208     c5_sl_groundvehicleDynamics.obj
 0003:00000220       $SG21316                   000000018004b220     c5_sl_groundvehicleDynamics.obj
 0003:00000268       $SG21318                   000000018004b268     c5_sl_groundvehicleDynamics.obj
 0003:00000270       $SG21319                   000000018004b270     c5_sl_groundvehicleDynamics.obj
 0003:000002b8       $SG21321                   000000018004b2b8     c5_sl_groundvehicleDynamics.obj
 0003:000002c0       $SG21322                   000000018004b2c0     c5_sl_groundvehicleDynamics.obj
 0003:00000310       $SG21324                   000000018004b310     c5_sl_groundvehicleDynamics.obj
 0003:00000320       $SG21325                   000000018004b320     c5_sl_groundvehicleDynamics.obj
 0003:00000370       $SG21327                   000000018004b370     c5_sl_groundvehicleDynamics.obj
 0003:00000380       $SG21328                   000000018004b380     c5_sl_groundvehicleDynamics.obj
 0003:000003d0       $SG21330                   000000018004b3d0     c5_sl_groundvehicleDynamics.obj
 0003:000003e4       $SG29523                   000000018004b3e4     c5_sl_groundvehicleDynamics.obj
 0003:000003f0       $SG21331                   000000018004b3f0     c5_sl_groundvehicleDynamics.obj
 0003:00000438       $SG29524                   000000018004b438     c5_sl_groundvehicleDynamics.obj
 0003:00000440       $SG21333                   000000018004b440     c5_sl_groundvehicleDynamics.obj
 0003:00000460       $SG21334                   000000018004b460     c5_sl_groundvehicleDynamics.obj
 0003:000004a8       $SG21336                   000000018004b4a8     c5_sl_groundvehicleDynamics.obj
 0003:000004c0       $SG21337                   000000018004b4c0     c5_sl_groundvehicleDynamics.obj
 0003:00000508       $SG21339                   000000018004b508     c5_sl_groundvehicleDynamics.obj
 0003:00000520       $SG21340                   000000018004b520     c5_sl_groundvehicleDynamics.obj
 0003:00000580       $SG21342                   000000018004b580     c5_sl_groundvehicleDynamics.obj
 0003:00000590       $SG21343                   000000018004b590     c5_sl_groundvehicleDynamics.obj
 0003:000005f0       $SG21345                   000000018004b5f0     c5_sl_groundvehicleDynamics.obj
 0003:00000600       $SG21346                   000000018004b600     c5_sl_groundvehicleDynamics.obj
 0003:00000658       $SG21348                   000000018004b658     c5_sl_groundvehicleDynamics.obj
 0003:00000670       $SG21349                   000000018004b670     c5_sl_groundvehicleDynamics.obj
 0003:000006b8       $SG21351                   000000018004b6b8     c5_sl_groundvehicleDynamics.obj
 0003:000006d0       $SG21352                   000000018004b6d0     c5_sl_groundvehicleDynamics.obj
 0003:00000718       $SG21354                   000000018004b718     c5_sl_groundvehicleDynamics.obj
 0003:00000730       $SG21355                   000000018004b730     c5_sl_groundvehicleDynamics.obj
 0003:00000778       $SG21357                   000000018004b778     c5_sl_groundvehicleDynamics.obj
 0003:00000790       $SG21358                   000000018004b790     c5_sl_groundvehicleDynamics.obj
 0003:000007f0       $SG21360                   000000018004b7f0     c5_sl_groundvehicleDynamics.obj
 0003:00000810       $SG21361                   000000018004b810     c5_sl_groundvehicleDynamics.obj
 0003:00000878       $SG21363                   000000018004b878     c5_sl_groundvehicleDynamics.obj
 0003:00000880       $SG21364                   000000018004b880     c5_sl_groundvehicleDynamics.obj
 0003:000008c8       $SG21366                   000000018004b8c8     c5_sl_groundvehicleDynamics.obj
 0003:000008e0       $SG21367                   000000018004b8e0     c5_sl_groundvehicleDynamics.obj
 0003:00000948       $SG21369                   000000018004b948     c5_sl_groundvehicleDynamics.obj
 0003:00000960       $SG21370                   000000018004b960     c5_sl_groundvehicleDynamics.obj
 0003:000009c8       $SG21372                   000000018004b9c8     c5_sl_groundvehicleDynamics.obj
 0003:000009e0       $SG21373                   000000018004b9e0     c5_sl_groundvehicleDynamics.obj
 0003:00000a48       $SG21375                   000000018004ba48     c5_sl_groundvehicleDynamics.obj
 0003:00000a60       $SG21376                   000000018004ba60     c5_sl_groundvehicleDynamics.obj
 0003:00000ab8       $SG21378                   000000018004bab8     c5_sl_groundvehicleDynamics.obj
 0003:00000ad0       $SG21379                   000000018004bad0     c5_sl_groundvehicleDynamics.obj
 0003:00000b18       $SG21381                   000000018004bb18     c5_sl_groundvehicleDynamics.obj
 0003:00000b30       $SG21382                   000000018004bb30     c5_sl_groundvehicleDynamics.obj
 0003:00000b78       $SG21384                   000000018004bb78     c5_sl_groundvehicleDynamics.obj
 0003:00000b90       $SG21385                   000000018004bb90     c5_sl_groundvehicleDynamics.obj
 0003:00000bec       $SG21387                   000000018004bbec     c5_sl_groundvehicleDynamics.obj
 0003:00000bf0       $SG21388                   000000018004bbf0     c5_sl_groundvehicleDynamics.obj
 0003:00000c38       $SG21390                   000000018004bc38     c5_sl_groundvehicleDynamics.obj
 0003:00000c50       $SG21391                   000000018004bc50     c5_sl_groundvehicleDynamics.obj
 0003:00000cb0       $SG21393                   000000018004bcb0     c5_sl_groundvehicleDynamics.obj
 0003:00000cd8       $SG21394                   000000018004bcd8     c5_sl_groundvehicleDynamics.obj
 0003:00000cf8       $SG21396                   000000018004bcf8     c5_sl_groundvehicleDynamics.obj
 0003:00000d20       $SG21397                   000000018004bd20     c5_sl_groundvehicleDynamics.obj
 0003:00000d40       $SG21399                   000000018004bd40     c5_sl_groundvehicleDynamics.obj
 0003:00000d68       $SG21400                   000000018004bd68     c5_sl_groundvehicleDynamics.obj
 0003:00000d88       $SG21402                   000000018004bd88     c5_sl_groundvehicleDynamics.obj
 0003:00000db0       $SG21403                   000000018004bdb0     c5_sl_groundvehicleDynamics.obj
 0003:00000dd0       $SG21405                   000000018004bdd0     c5_sl_groundvehicleDynamics.obj
 0003:00000df8       $SG21406                   000000018004bdf8     c5_sl_groundvehicleDynamics.obj
 0003:00000e18       $SG21408                   000000018004be18     c5_sl_groundvehicleDynamics.obj
 0003:00000e40       $SG21409                   000000018004be40     c5_sl_groundvehicleDynamics.obj
 0003:00000e60       $SG21411                   000000018004be60     c5_sl_groundvehicleDynamics.obj
 0003:00000e88       $SG21412                   000000018004be88     c5_sl_groundvehicleDynamics.obj
 0003:00000ea8       $SG21414                   000000018004bea8     c5_sl_groundvehicleDynamics.obj
 0003:00000ed0       $SG21415                   000000018004bed0     c5_sl_groundvehicleDynamics.obj
 0003:00000ef0       $SG21417                   000000018004bef0     c5_sl_groundvehicleDynamics.obj
 0003:00000f18       $SG21418                   000000018004bf18     c5_sl_groundvehicleDynamics.obj
 0003:00000f38       $SG21420                   000000018004bf38     c5_sl_groundvehicleDynamics.obj
 0003:00000f60       $SG21421                   000000018004bf60     c5_sl_groundvehicleDynamics.obj
 0003:00000f80       $SG21423                   000000018004bf80     c5_sl_groundvehicleDynamics.obj
 0003:00000fa8       $SG21424                   000000018004bfa8     c5_sl_groundvehicleDynamics.obj
 0003:00000fc8       $SG21426                   000000018004bfc8     c5_sl_groundvehicleDynamics.obj
 0003:00000ff0       $SG21427                   000000018004bff0     c5_sl_groundvehicleDynamics.obj
 0003:00001010       $SG21429                   000000018004c010     c5_sl_groundvehicleDynamics.obj
 0003:00001020       $SG21430                   000000018004c020     c5_sl_groundvehicleDynamics.obj
 0003:000010a0       $SG21432                   000000018004c0a0     c5_sl_groundvehicleDynamics.obj
 0003:000010b0       $SG21433                   000000018004c0b0     c5_sl_groundvehicleDynamics.obj
 0003:00001138       $SG21435                   000000018004c138     c5_sl_groundvehicleDynamics.obj
 0003:00001150       $SG21436                   000000018004c150     c5_sl_groundvehicleDynamics.obj
 0003:000011b8       $SG21438                   000000018004c1b8     c5_sl_groundvehicleDynamics.obj
 0003:000011d0       $SG21439                   000000018004c1d0     c5_sl_groundvehicleDynamics.obj
 0003:00001238       $SG21441                   000000018004c238     c5_sl_groundvehicleDynamics.obj
 0003:00001250       $SG21442                   000000018004c250     c5_sl_groundvehicleDynamics.obj
 0003:000012b8       $SG21444                   000000018004c2b8     c5_sl_groundvehicleDynamics.obj
 0003:000012d0       $SG21445                   000000018004c2d0     c5_sl_groundvehicleDynamics.obj
 0003:00001338       $SG21447                   000000018004c338     c5_sl_groundvehicleDynamics.obj
 0003:00001350       $SG21448                   000000018004c350     c5_sl_groundvehicleDynamics.obj
 0003:000013b8       $SG21450                   000000018004c3b8     c5_sl_groundvehicleDynamics.obj
 0003:000013d0       $SG21451                   000000018004c3d0     c5_sl_groundvehicleDynamics.obj
 0003:00001438       $SG21453                   000000018004c438     c5_sl_groundvehicleDynamics.obj
 0003:00001450       $SG21454                   000000018004c450     c5_sl_groundvehicleDynamics.obj
 0003:000014b8       $SG21456                   000000018004c4b8     c5_sl_groundvehicleDynamics.obj
 0003:000014d0       $SG21457                   000000018004c4d0     c5_sl_groundvehicleDynamics.obj
 0003:00001528       $SG21459                   000000018004c528     c5_sl_groundvehicleDynamics.obj
 0003:00001540       $SG21460                   000000018004c540     c5_sl_groundvehicleDynamics.obj
 0003:000015b8       $SG21462                   000000018004c5b8     c5_sl_groundvehicleDynamics.obj
 0003:000015d0       $SG21463                   000000018004c5d0     c5_sl_groundvehicleDynamics.obj
 0003:00001648       $SG21465                   000000018004c648     c5_sl_groundvehicleDynamics.obj
 0003:00001660       $SG21466                   000000018004c660     c5_sl_groundvehicleDynamics.obj
 0003:000016d8       $SG21468                   000000018004c6d8     c5_sl_groundvehicleDynamics.obj
 0003:000016f0       $SG21469                   000000018004c6f0     c5_sl_groundvehicleDynamics.obj
 0003:00001768       $SG21471                   000000018004c768     c5_sl_groundvehicleDynamics.obj
 0003:00001780       $SG21472                   000000018004c780     c5_sl_groundvehicleDynamics.obj
 0003:000017f8       $SG21474                   000000018004c7f8     c5_sl_groundvehicleDynamics.obj
 0003:00001810       $SG21475                   000000018004c810     c5_sl_groundvehicleDynamics.obj
 0003:00001888       $SG21477                   000000018004c888     c5_sl_groundvehicleDynamics.obj
 0003:000018a0       $SG21478                   000000018004c8a0     c5_sl_groundvehicleDynamics.obj
 0003:00001918       $SG21480                   000000018004c918     c5_sl_groundvehicleDynamics.obj
 0003:00001930       $SG21481                   000000018004c930     c5_sl_groundvehicleDynamics.obj
 0003:000019b8       $SG21483                   000000018004c9b8     c5_sl_groundvehicleDynamics.obj
 0003:000019d0       $SG21484                   000000018004c9d0     c5_sl_groundvehicleDynamics.obj
 0003:00001a50       $SG21486                   000000018004ca50     c5_sl_groundvehicleDynamics.obj
 0003:00001a60       $SG21487                   000000018004ca60     c5_sl_groundvehicleDynamics.obj
 0003:00001ae0       $SG21489                   000000018004cae0     c5_sl_groundvehicleDynamics.obj
 0003:00001b00       $SG21490                   000000018004cb00     c5_sl_groundvehicleDynamics.obj
 0003:00001b88       $SG21492                   000000018004cb88     c5_sl_groundvehicleDynamics.obj
 0003:00001ba0       $SG21493                   000000018004cba0     c5_sl_groundvehicleDynamics.obj
 0003:00001c20       $SG21495                   000000018004cc20     c5_sl_groundvehicleDynamics.obj
 0003:00001c40       $SG21496                   000000018004cc40     c5_sl_groundvehicleDynamics.obj
 0003:00001c98       $SG21498                   000000018004cc98     c5_sl_groundvehicleDynamics.obj
 0003:00001cb0       $SG21499                   000000018004ccb0     c5_sl_groundvehicleDynamics.obj
 0003:00001d08       $SG21501                   000000018004cd08     c5_sl_groundvehicleDynamics.obj
 0003:00001d20       $SG21502                   000000018004cd20     c5_sl_groundvehicleDynamics.obj
 0003:00001d78       $SG21504                   000000018004cd78     c5_sl_groundvehicleDynamics.obj
 0003:00001d90       $SG21505                   000000018004cd90     c5_sl_groundvehicleDynamics.obj
 0003:00001e08       $SG21507                   000000018004ce08     c5_sl_groundvehicleDynamics.obj
 0003:00001e20       $SG21508                   000000018004ce20     c5_sl_groundvehicleDynamics.obj
 0003:00001e98       $SG21510                   000000018004ce98     c5_sl_groundvehicleDynamics.obj
 0003:00001eb0       $SG21511                   000000018004ceb0     c5_sl_groundvehicleDynamics.obj
 0003:00001f08       $SG21513                   000000018004cf08     c5_sl_groundvehicleDynamics.obj
 0003:00001f20       $SG21514                   000000018004cf20     c5_sl_groundvehicleDynamics.obj
 0003:00001f78       $SG21516                   000000018004cf78     c5_sl_groundvehicleDynamics.obj
 0003:00001f90       $SG21517                   000000018004cf90     c5_sl_groundvehicleDynamics.obj
 0003:00001fe8       $SG21519                   000000018004cfe8     c5_sl_groundvehicleDynamics.obj
 0003:00002000       $SG21520                   000000018004d000     c5_sl_groundvehicleDynamics.obj
 0003:00002078       $SG21522                   000000018004d078     c5_sl_groundvehicleDynamics.obj
 0003:00002090       $SG21523                   000000018004d090     c5_sl_groundvehicleDynamics.obj
 0003:00002108       $SG21525                   000000018004d108     c5_sl_groundvehicleDynamics.obj
 0003:00002120       $SG21526                   000000018004d120     c5_sl_groundvehicleDynamics.obj
 0003:00002198       $SG21528                   000000018004d198     c5_sl_groundvehicleDynamics.obj
 0003:000021a0       $SG21529                   000000018004d1a0     c5_sl_groundvehicleDynamics.obj
 0003:000021f0       $SG21531                   000000018004d1f0     c5_sl_groundvehicleDynamics.obj
 0003:00002200       $SG21532                   000000018004d200     c5_sl_groundvehicleDynamics.obj
 0003:0000225c       $SG21534                   000000018004d25c     c5_sl_groundvehicleDynamics.obj
 0003:00002270       $SG21535                   000000018004d270     c5_sl_groundvehicleDynamics.obj
 0003:000022b8       $SG21537                   000000018004d2b8     c5_sl_groundvehicleDynamics.obj
 0003:000022c0       $SG21538                   000000018004d2c0     c5_sl_groundvehicleDynamics.obj
 0003:00002308       $SG21540                   000000018004d308     c5_sl_groundvehicleDynamics.obj
 0003:00002320       $SG21541                   000000018004d320     c5_sl_groundvehicleDynamics.obj
 0003:00002388       $SG21543                   000000018004d388     c5_sl_groundvehicleDynamics.obj
 0003:00002390       $SG21544                   000000018004d390     c5_sl_groundvehicleDynamics.obj
 0003:000023f8       $SG21546                   000000018004d3f8     c5_sl_groundvehicleDynamics.obj
 0003:00002400       $SG21547                   000000018004d400     c5_sl_groundvehicleDynamics.obj
 0003:00002468       $SG21549                   000000018004d468     c5_sl_groundvehicleDynamics.obj
 0003:00002470       $SG21550                   000000018004d470     c5_sl_groundvehicleDynamics.obj
 0003:000024b8       $SG21552                   000000018004d4b8     c5_sl_groundvehicleDynamics.obj
 0003:000024d0       $SG21553                   000000018004d4d0     c5_sl_groundvehicleDynamics.obj
 0003:00002550       $SG21555                   000000018004d550     c5_sl_groundvehicleDynamics.obj
 0003:00002560       $SG21556                   000000018004d560     c5_sl_groundvehicleDynamics.obj
 0003:000025e0       $SG21558                   000000018004d5e0     c5_sl_groundvehicleDynamics.obj
 0003:000025f0       $SG21559                   000000018004d5f0     c5_sl_groundvehicleDynamics.obj
 0003:00002670       $SG21561                   000000018004d670     c5_sl_groundvehicleDynamics.obj
 0003:00002690       $SG21562                   000000018004d690     c5_sl_groundvehicleDynamics.obj
 0003:000026d8       $SG21564                   000000018004d6d8     c5_sl_groundvehicleDynamics.obj
 0003:000026f0       $SG21565                   000000018004d6f0     c5_sl_groundvehicleDynamics.obj
 0003:00002738       $SG21567                   000000018004d738     c5_sl_groundvehicleDynamics.obj
 0003:00002750       $SG21568                   000000018004d750     c5_sl_groundvehicleDynamics.obj
 0003:00002798       $SG21570                   000000018004d798     c5_sl_groundvehicleDynamics.obj
 0003:000027b0       $SG21571                   000000018004d7b0     c5_sl_groundvehicleDynamics.obj
 0003:000027f8       $SG21573                   000000018004d7f8     c5_sl_groundvehicleDynamics.obj
 0003:00002810       $SG21574                   000000018004d810     c5_sl_groundvehicleDynamics.obj
 0003:00002858       $SG21576                   000000018004d858     c5_sl_groundvehicleDynamics.obj
 0003:00002870       $SG21577                   000000018004d870     c5_sl_groundvehicleDynamics.obj
 0003:000028b8       $SG21579                   000000018004d8b8     c5_sl_groundvehicleDynamics.obj
 0003:000028d0       $SG21580                   000000018004d8d0     c5_sl_groundvehicleDynamics.obj
 0003:00002918       $SG21582                   000000018004d918     c5_sl_groundvehicleDynamics.obj
 0003:00002930       $SG21583                   000000018004d930     c5_sl_groundvehicleDynamics.obj
 0003:00002978       $SG21585                   000000018004d978     c5_sl_groundvehicleDynamics.obj
 0003:00002990       $SG21586                   000000018004d990     c5_sl_groundvehicleDynamics.obj
 0003:000029d8       $SG21588                   000000018004d9d8     c5_sl_groundvehicleDynamics.obj
 0003:000029f0       $SG21589                   000000018004d9f0     c5_sl_groundvehicleDynamics.obj
 0003:00002a58       $SG21591                   000000018004da58     c5_sl_groundvehicleDynamics.obj
 0003:00002a70       $SG21592                   000000018004da70     c5_sl_groundvehicleDynamics.obj
 0003:00002ab8       $SG21594                   000000018004dab8     c5_sl_groundvehicleDynamics.obj
 0003:00002ad0       $SG21595                   000000018004dad0     c5_sl_groundvehicleDynamics.obj
 0003:00002b18       $SG21597                   000000018004db18     c5_sl_groundvehicleDynamics.obj
 0003:00002b30       $SG21598                   000000018004db30     c5_sl_groundvehicleDynamics.obj
 0003:00002b78       $SG21600                   000000018004db78     c5_sl_groundvehicleDynamics.obj
 0003:00002b80       $SG21601                   000000018004db80     c5_sl_groundvehicleDynamics.obj
 0003:00002bc8       $SG21603                   000000018004dbc8     c5_sl_groundvehicleDynamics.obj
 0003:00002be0       $SG21604                   000000018004dbe0     c5_sl_groundvehicleDynamics.obj
 0003:00002c28       $SG21606                   000000018004dc28     c5_sl_groundvehicleDynamics.obj
 0003:00002c40       $SG21607                   000000018004dc40     c5_sl_groundvehicleDynamics.obj
 0003:00002c88       $SG21609                   000000018004dc88     c5_sl_groundvehicleDynamics.obj
 0003:00002ca0       $SG21610                   000000018004dca0     c5_sl_groundvehicleDynamics.obj
 0003:00002ce8       $SG21612                   000000018004dce8     c5_sl_groundvehicleDynamics.obj
 0003:00002d00       $SG21613                   000000018004dd00     c5_sl_groundvehicleDynamics.obj
 0003:00002d48       $SG21615                   000000018004dd48     c5_sl_groundvehicleDynamics.obj
 0003:00002d60       $SG21616                   000000018004dd60     c5_sl_groundvehicleDynamics.obj
 0003:00002da8       $SG21618                   000000018004dda8     c5_sl_groundvehicleDynamics.obj
 0003:00002dc0       $SG21619                   000000018004ddc0     c5_sl_groundvehicleDynamics.obj
 0003:00002e08       $SG21621                   000000018004de08     c5_sl_groundvehicleDynamics.obj
 0003:00002e20       $SG21622                   000000018004de20     c5_sl_groundvehicleDynamics.obj
 0003:00002e68       $SG21624                   000000018004de68     c5_sl_groundvehicleDynamics.obj
 0003:00002e80       $SG21625                   000000018004de80     c5_sl_groundvehicleDynamics.obj
 0003:00002ec8       $SG21627                   000000018004dec8     c5_sl_groundvehicleDynamics.obj
 0003:00002ee0       $SG21628                   000000018004dee0     c5_sl_groundvehicleDynamics.obj
 0003:00002f28       $SG21630                   000000018004df28     c5_sl_groundvehicleDynamics.obj
 0003:00002f40       $SG21631                   000000018004df40     c5_sl_groundvehicleDynamics.obj
 0003:00002f88       $SG21633                   000000018004df88     c5_sl_groundvehicleDynamics.obj
 0003:00002fa0       $SG21634                   000000018004dfa0     c5_sl_groundvehicleDynamics.obj
 0003:00002fe8       $SG21636                   000000018004dfe8     c5_sl_groundvehicleDynamics.obj
 0003:00003000       $SG21637                   000000018004e000     c5_sl_groundvehicleDynamics.obj
 0003:00003048       $SG21639                   000000018004e048     c5_sl_groundvehicleDynamics.obj
 0003:00003060       $SG21640                   000000018004e060     c5_sl_groundvehicleDynamics.obj
 0003:000030a8       $SG21642                   000000018004e0a8     c5_sl_groundvehicleDynamics.obj
 0003:000030c0       $SG21643                   000000018004e0c0     c5_sl_groundvehicleDynamics.obj
 0003:00003108       $SG21645                   000000018004e108     c5_sl_groundvehicleDynamics.obj
 0003:00003120       $SG21646                   000000018004e120     c5_sl_groundvehicleDynamics.obj
 0003:00003168       $SG21648                   000000018004e168     c5_sl_groundvehicleDynamics.obj
 0003:00003180       $SG21649                   000000018004e180     c5_sl_groundvehicleDynamics.obj
 0003:000031c8       $SG21651                   000000018004e1c8     c5_sl_groundvehicleDynamics.obj
 0003:000031e0       $SG21652                   000000018004e1e0     c5_sl_groundvehicleDynamics.obj
 0003:00003228       $SG21654                   000000018004e228     c5_sl_groundvehicleDynamics.obj
 0003:00003240       $SG21655                   000000018004e240     c5_sl_groundvehicleDynamics.obj
 0003:00003288       $SG21657                   000000018004e288     c5_sl_groundvehicleDynamics.obj
 0003:000032a0       $SG21658                   000000018004e2a0     c5_sl_groundvehicleDynamics.obj
 0003:000032e8       $SG21660                   000000018004e2e8     c5_sl_groundvehicleDynamics.obj
 0003:00003300       $SG21661                   000000018004e300     c5_sl_groundvehicleDynamics.obj
 0003:00003348       $SG21663                   000000018004e348     c5_sl_groundvehicleDynamics.obj
 0003:00003360       $SG21664                   000000018004e360     c5_sl_groundvehicleDynamics.obj
 0003:000033a8       $SG21666                   000000018004e3a8     c5_sl_groundvehicleDynamics.obj
 0003:000033c0       $SG21667                   000000018004e3c0     c5_sl_groundvehicleDynamics.obj
 0003:00003410       $SG21669                   000000018004e410     c5_sl_groundvehicleDynamics.obj
 0003:00003430       $SG21670                   000000018004e430     c5_sl_groundvehicleDynamics.obj
 0003:00003478       $SG21672                   000000018004e478     c5_sl_groundvehicleDynamics.obj
 0003:00003490       $SG21673                   000000018004e490     c5_sl_groundvehicleDynamics.obj
 0003:000034d8       $SG21675                   000000018004e4d8     c5_sl_groundvehicleDynamics.obj
 0003:000034f0       $SG21676                   000000018004e4f0     c5_sl_groundvehicleDynamics.obj
 0003:00003538       $SG21678                   000000018004e538     c5_sl_groundvehicleDynamics.obj
 0003:00003550       $SG21679                   000000018004e550     c5_sl_groundvehicleDynamics.obj
 0003:00003598       $SG21681                   000000018004e598     c5_sl_groundvehicleDynamics.obj
 0003:000035b0       $SG21682                   000000018004e5b0     c5_sl_groundvehicleDynamics.obj
 0003:000035f8       $SG21684                   000000018004e5f8     c5_sl_groundvehicleDynamics.obj
 0003:00003610       $SG21685                   000000018004e610     c5_sl_groundvehicleDynamics.obj
 0003:00003658       $SG21687                   000000018004e658     c5_sl_groundvehicleDynamics.obj
 0003:00003670       $SG21688                   000000018004e670     c5_sl_groundvehicleDynamics.obj
 0003:000036b8       $SG21690                   000000018004e6b8     c5_sl_groundvehicleDynamics.obj
 0003:000036d0       $SG21691                   000000018004e6d0     c5_sl_groundvehicleDynamics.obj
 0003:00003718       $SG21693                   000000018004e718     c5_sl_groundvehicleDynamics.obj
 0003:00003730       $SG21694                   000000018004e730     c5_sl_groundvehicleDynamics.obj
 0003:000037b0       $SG21696                   000000018004e7b0     c5_sl_groundvehicleDynamics.obj
 0003:000037c0       $SG21697                   000000018004e7c0     c5_sl_groundvehicleDynamics.obj
 0003:00003840       $SG21699                   000000018004e840     c5_sl_groundvehicleDynamics.obj
 0003:00003850       $SG21700                   000000018004e850     c5_sl_groundvehicleDynamics.obj
 0003:000038d0       $SG21702                   000000018004e8d0     c5_sl_groundvehicleDynamics.obj
 0003:000038f0       $SG21703                   000000018004e8f0     c5_sl_groundvehicleDynamics.obj
 0003:00003938       $SG21705                   000000018004e938     c5_sl_groundvehicleDynamics.obj
 0003:00003950       $SG21706                   000000018004e950     c5_sl_groundvehicleDynamics.obj
 0003:000039a8       $SG21708                   000000018004e9a8     c5_sl_groundvehicleDynamics.obj
 0003:000039c0       $SG21709                   000000018004e9c0     c5_sl_groundvehicleDynamics.obj
 0003:00003a08       $SG21711                   000000018004ea08     c5_sl_groundvehicleDynamics.obj
 0003:00003a20       $SG21712                   000000018004ea20     c5_sl_groundvehicleDynamics.obj
 0003:00003a68       $SG21714                   000000018004ea68     c5_sl_groundvehicleDynamics.obj
 0003:00003a80       $SG21715                   000000018004ea80     c5_sl_groundvehicleDynamics.obj
 0003:00003ac8       $SG21717                   000000018004eac8     c5_sl_groundvehicleDynamics.obj
 0003:00003ae0       $SG21718                   000000018004eae0     c5_sl_groundvehicleDynamics.obj
 0003:00003b28       $SG21720                   000000018004eb28     c5_sl_groundvehicleDynamics.obj
 0003:00003b40       $SG21721                   000000018004eb40     c5_sl_groundvehicleDynamics.obj
 0003:00003b88       $SG21723                   000000018004eb88     c5_sl_groundvehicleDynamics.obj
 0003:00003ba0       $SG21724                   000000018004eba0     c5_sl_groundvehicleDynamics.obj
 0003:00003be8       $SG21726                   000000018004ebe8     c5_sl_groundvehicleDynamics.obj
 0003:00003c00       $SG21727                   000000018004ec00     c5_sl_groundvehicleDynamics.obj
 0003:00003c48       $SG21729                   000000018004ec48     c5_sl_groundvehicleDynamics.obj
 0003:00003c60       $SG21730                   000000018004ec60     c5_sl_groundvehicleDynamics.obj
 0003:00003ca8       $SG21732                   000000018004eca8     c5_sl_groundvehicleDynamics.obj
 0003:00003cc0       $SG21733                   000000018004ecc0     c5_sl_groundvehicleDynamics.obj
 0003:00003d08       $SG21735                   000000018004ed08     c5_sl_groundvehicleDynamics.obj
 0003:00003d20       $SG21736                   000000018004ed20     c5_sl_groundvehicleDynamics.obj
 0003:00003d88       $SG21738                   000000018004ed88     c5_sl_groundvehicleDynamics.obj
 0003:00003da0       $SG21739                   000000018004eda0     c5_sl_groundvehicleDynamics.obj
 0003:00003e08       $SG21741                   000000018004ee08     c5_sl_groundvehicleDynamics.obj
 0003:00003e20       $SG21742                   000000018004ee20     c5_sl_groundvehicleDynamics.obj
 0003:00003e88       $SG21744                   000000018004ee88     c5_sl_groundvehicleDynamics.obj
 0003:00003ea0       $SG21745                   000000018004eea0     c5_sl_groundvehicleDynamics.obj
 0003:00003f08       $SG21747                   000000018004ef08     c5_sl_groundvehicleDynamics.obj
 0003:00003f20       $SG21748                   000000018004ef20     c5_sl_groundvehicleDynamics.obj
 0003:00003f88       $SG21750                   000000018004ef88     c5_sl_groundvehicleDynamics.obj
 0003:00003fa0       $SG21751                   000000018004efa0     c5_sl_groundvehicleDynamics.obj
 0003:00004008       $SG21753                   000000018004f008     c5_sl_groundvehicleDynamics.obj
 0003:00004020       $SG21754                   000000018004f020     c5_sl_groundvehicleDynamics.obj
 0003:000040a0       $SG21756                   000000018004f0a0     c5_sl_groundvehicleDynamics.obj
 0003:000040c0       $SG21757                   000000018004f0c0     c5_sl_groundvehicleDynamics.obj
 0003:00004140       $SG21759                   000000018004f140     c5_sl_groundvehicleDynamics.obj
 0003:00004160       $SG21760                   000000018004f160     c5_sl_groundvehicleDynamics.obj
 0003:000041a8       $SG21762                   000000018004f1a8     c5_sl_groundvehicleDynamics.obj
 0003:000041c0       $SG21763                   000000018004f1c0     c5_sl_groundvehicleDynamics.obj
 0003:00004208       $SG21765                   000000018004f208     c5_sl_groundvehicleDynamics.obj
 0003:00004220       $SG21766                   000000018004f220     c5_sl_groundvehicleDynamics.obj
 0003:00004288       $SG21768                   000000018004f288     c5_sl_groundvehicleDynamics.obj
 0003:000042a0       $SG21769                   000000018004f2a0     c5_sl_groundvehicleDynamics.obj
 0003:00004308       $SG21771                   000000018004f308     c5_sl_groundvehicleDynamics.obj
 0003:00004320       $SG21772                   000000018004f320     c5_sl_groundvehicleDynamics.obj
 0003:00004388       $SG21774                   000000018004f388     c5_sl_groundvehicleDynamics.obj
 0003:000043a0       $SG21775                   000000018004f3a0     c5_sl_groundvehicleDynamics.obj
 0003:00004408       $SG21777                   000000018004f408     c5_sl_groundvehicleDynamics.obj
 0003:00004420       $SG21778                   000000018004f420     c5_sl_groundvehicleDynamics.obj
 0003:00004488       $SG21780                   000000018004f488     c5_sl_groundvehicleDynamics.obj
 0003:000044a0       $SG21781                   000000018004f4a0     c5_sl_groundvehicleDynamics.obj
 0003:00004508       $SG21783                   000000018004f508     c5_sl_groundvehicleDynamics.obj
 0003:00004520       $SG21784                   000000018004f520     c5_sl_groundvehicleDynamics.obj
 0003:00004588       $SG21786                   000000018004f588     c5_sl_groundvehicleDynamics.obj
 0003:000045a0       $SG21787                   000000018004f5a0     c5_sl_groundvehicleDynamics.obj
 0003:00004608       $SG21789                   000000018004f608     c5_sl_groundvehicleDynamics.obj
 0003:00004620       $SG21790                   000000018004f620     c5_sl_groundvehicleDynamics.obj
 0003:00004688       $SG21792                   000000018004f688     c5_sl_groundvehicleDynamics.obj
 0003:000046a0       $SG21793                   000000018004f6a0     c5_sl_groundvehicleDynamics.obj
 0003:00004708       $SG21795                   000000018004f708     c5_sl_groundvehicleDynamics.obj
 0003:00004720       $SG21796                   000000018004f720     c5_sl_groundvehicleDynamics.obj
 0003:00004788       $SG21798                   000000018004f788     c5_sl_groundvehicleDynamics.obj
 0003:000047a0       $SG21799                   000000018004f7a0     c5_sl_groundvehicleDynamics.obj
 0003:00004808       $SG21801                   000000018004f808     c5_sl_groundvehicleDynamics.obj
 0003:00004820       $SG21802                   000000018004f820     c5_sl_groundvehicleDynamics.obj
 0003:00004888       $SG21804                   000000018004f888     c5_sl_groundvehicleDynamics.obj
 0003:000048a0       $SG21805                   000000018004f8a0     c5_sl_groundvehicleDynamics.obj
 0003:00004908       $SG21807                   000000018004f908     c5_sl_groundvehicleDynamics.obj
 0003:00004920       $SG21808                   000000018004f920     c5_sl_groundvehicleDynamics.obj
 0003:00004988       $SG21810                   000000018004f988     c5_sl_groundvehicleDynamics.obj
 0003:000049a0       $SG21811                   000000018004f9a0     c5_sl_groundvehicleDynamics.obj
 0003:00004a08       $SG21813                   000000018004fa08     c5_sl_groundvehicleDynamics.obj
 0003:00004a20       $SG21814                   000000018004fa20     c5_sl_groundvehicleDynamics.obj
 0003:00004a88       $SG21816                   000000018004fa88     c5_sl_groundvehicleDynamics.obj
 0003:00004aa0       $SG21817                   000000018004faa0     c5_sl_groundvehicleDynamics.obj
 0003:00004b08       $SG21819                   000000018004fb08     c5_sl_groundvehicleDynamics.obj
 0003:00004b20       $SG21820                   000000018004fb20     c5_sl_groundvehicleDynamics.obj
 0003:00004b88       $SG21822                   000000018004fb88     c5_sl_groundvehicleDynamics.obj
 0003:00004ba0       $SG21823                   000000018004fba0     c5_sl_groundvehicleDynamics.obj
 0003:00004c08       $SG21825                   000000018004fc08     c5_sl_groundvehicleDynamics.obj
 0003:00004c20       $SG21826                   000000018004fc20     c5_sl_groundvehicleDynamics.obj
 0003:00004c88       $SG21828                   000000018004fc88     c5_sl_groundvehicleDynamics.obj
 0003:00004ca0       $SG21829                   000000018004fca0     c5_sl_groundvehicleDynamics.obj
 0003:00004d08       $SG21831                   000000018004fd08     c5_sl_groundvehicleDynamics.obj
 0003:00004d20       $SG21832                   000000018004fd20     c5_sl_groundvehicleDynamics.obj
 0003:00004d68       $SG21834                   000000018004fd68     c5_sl_groundvehicleDynamics.obj
 0003:00004d80       $SG21835                   000000018004fd80     c5_sl_groundvehicleDynamics.obj
 0003:00004de8       $SG21837                   000000018004fde8     c5_sl_groundvehicleDynamics.obj
 0003:00004e00       $SG21838                   000000018004fe00     c5_sl_groundvehicleDynamics.obj
 0003:00004e68       $SG21840                   000000018004fe68     c5_sl_groundvehicleDynamics.obj
 0003:00004e80       $SG21841                   000000018004fe80     c5_sl_groundvehicleDynamics.obj
 0003:00004ee8       $SG21843                   000000018004fee8     c5_sl_groundvehicleDynamics.obj
 0003:00004f00       $SG21844                   000000018004ff00     c5_sl_groundvehicleDynamics.obj
 0003:00004f68       $SG21846                   000000018004ff68     c5_sl_groundvehicleDynamics.obj
 0003:00004f70       $SG21847                   000000018004ff70     c5_sl_groundvehicleDynamics.obj
 0003:00004fb4       $SG21849                   000000018004ffb4     c5_sl_groundvehicleDynamics.obj
 0003:00004fc0       $SG21850                   000000018004ffc0     c5_sl_groundvehicleDynamics.obj
 0003:00005004       $SG21852                   0000000180050004     c5_sl_groundvehicleDynamics.obj
 0003:00005010       $SG21853                   0000000180050010     c5_sl_groundvehicleDynamics.obj
 0003:00005058       $SG21855                   0000000180050058     c5_sl_groundvehicleDynamics.obj
 0003:00005070       $SG21856                   0000000180050070     c5_sl_groundvehicleDynamics.obj
 0003:000050c8       $SG21858                   00000001800500c8     c5_sl_groundvehicleDynamics.obj
 0003:000050e0       $SG21859                   00000001800500e0     c5_sl_groundvehicleDynamics.obj
 0003:00005128       $SG21861                   0000000180050128     c5_sl_groundvehicleDynamics.obj
 0003:00005140       $SG21862                   0000000180050140     c5_sl_groundvehicleDynamics.obj
 0003:00005188       $SG21864                   0000000180050188     c5_sl_groundvehicleDynamics.obj
 0003:000051a0       $SG21865                   00000001800501a0     c5_sl_groundvehicleDynamics.obj
 0003:000051e8       $SG21867                   00000001800501e8     c5_sl_groundvehicleDynamics.obj
 0003:00005200       $SG21868                   0000000180050200     c5_sl_groundvehicleDynamics.obj
 0003:00005248       $SG21870                   0000000180050248     c5_sl_groundvehicleDynamics.obj
 0003:00005260       $SG21871                   0000000180050260     c5_sl_groundvehicleDynamics.obj
 0003:000052a8       $SG21873                   00000001800502a8     c5_sl_groundvehicleDynamics.obj
 0003:000052c0       $SG21874                   00000001800502c0     c5_sl_groundvehicleDynamics.obj
 0003:00005308       $SG21876                   0000000180050308     c5_sl_groundvehicleDynamics.obj
 0003:00005320       $SG21877                   0000000180050320     c5_sl_groundvehicleDynamics.obj
 0003:00005368       $SG21879                   0000000180050368     c5_sl_groundvehicleDynamics.obj
 0003:00005380       $SG21880                   0000000180050380     c5_sl_groundvehicleDynamics.obj
 0003:000053e8       $SG21882                   00000001800503e8     c5_sl_groundvehicleDynamics.obj
 0003:00005400       $SG21883                   0000000180050400     c5_sl_groundvehicleDynamics.obj
 0003:00005468       $SG21885                   0000000180050468     c5_sl_groundvehicleDynamics.obj
 0003:00005470       $SG21886                   0000000180050470     c5_sl_groundvehicleDynamics.obj
 0003:000054d0       $SG21888                   00000001800504d0     c5_sl_groundvehicleDynamics.obj
 0003:000054f0       $SG21889                   00000001800504f0     c5_sl_groundvehicleDynamics.obj
 0003:00005538       $SG21891                   0000000180050538     c5_sl_groundvehicleDynamics.obj
 0003:00005550       $SG21892                   0000000180050550     c5_sl_groundvehicleDynamics.obj
 0003:00005598       $SG21894                   0000000180050598     c5_sl_groundvehicleDynamics.obj
 0003:000055b0       $SG21895                   00000001800505b0     c5_sl_groundvehicleDynamics.obj
 0003:000055f8       $SG21897                   00000001800505f8     c5_sl_groundvehicleDynamics.obj
 0003:00005610       $SG21898                   0000000180050610     c5_sl_groundvehicleDynamics.obj
 0003:00005658       $SG21900                   0000000180050658     c5_sl_groundvehicleDynamics.obj
 0003:00005670       $SG21901                   0000000180050670     c5_sl_groundvehicleDynamics.obj
 0003:000056b8       $SG21903                   00000001800506b8     c5_sl_groundvehicleDynamics.obj
 0003:000056d0       $SG21904                   00000001800506d0     c5_sl_groundvehicleDynamics.obj
 0003:00005718       $SG21906                   0000000180050718     c5_sl_groundvehicleDynamics.obj
 0003:00005730       $SG21907                   0000000180050730     c5_sl_groundvehicleDynamics.obj
 0003:000057b0       $SG21909                   00000001800507b0     c5_sl_groundvehicleDynamics.obj
 0003:000057c0       $SG21910                   00000001800507c0     c5_sl_groundvehicleDynamics.obj
 0003:00005840       $SG21912                   0000000180050840     c5_sl_groundvehicleDynamics.obj
 0003:00005850       $SG21913                   0000000180050850     c5_sl_groundvehicleDynamics.obj
 0003:000058d0       $SG21915                   00000001800508d0     c5_sl_groundvehicleDynamics.obj
 0003:000058e0       $SG21916                   00000001800508e0     c5_sl_groundvehicleDynamics.obj
 0003:00005960       $SG21918                   0000000180050960     c5_sl_groundvehicleDynamics.obj
 0003:00005970       $SG21919                   0000000180050970     c5_sl_groundvehicleDynamics.obj
 0003:000059ec       $SG21921                   00000001800509ec     c5_sl_groundvehicleDynamics.obj
 0003:000059f0       $SG21922                   00000001800509f0     c5_sl_groundvehicleDynamics.obj
 0003:00005a38       $SG21924                   0000000180050a38     c5_sl_groundvehicleDynamics.obj
 0003:00005a40       $SG21925                   0000000180050a40     c5_sl_groundvehicleDynamics.obj
 0003:00005a88       $SG21927                   0000000180050a88     c5_sl_groundvehicleDynamics.obj
 0003:00005aa0       $SG21928                   0000000180050aa0     c5_sl_groundvehicleDynamics.obj
 0003:00005af8       $SG21930                   0000000180050af8     c5_sl_groundvehicleDynamics.obj
 0003:00005b20       $SG21931                   0000000180050b20     c5_sl_groundvehicleDynamics.obj
 0003:00005b40       $SG21933                   0000000180050b40     c5_sl_groundvehicleDynamics.obj
 0003:00005b68       $SG21934                   0000000180050b68     c5_sl_groundvehicleDynamics.obj
 0003:00005b88       $SG21936                   0000000180050b88     c5_sl_groundvehicleDynamics.obj
 0003:00005bb0       $SG21937                   0000000180050bb0     c5_sl_groundvehicleDynamics.obj
 0003:00005bd0       $SG21939                   0000000180050bd0     c5_sl_groundvehicleDynamics.obj
 0003:00005bf8       $SG21940                   0000000180050bf8     c5_sl_groundvehicleDynamics.obj
 0003:00005c18       $SG21942                   0000000180050c18     c5_sl_groundvehicleDynamics.obj
 0003:00005c40       $SG21943                   0000000180050c40     c5_sl_groundvehicleDynamics.obj
 0003:00005c60       $SG21945                   0000000180050c60     c5_sl_groundvehicleDynamics.obj
 0003:00005c88       $SG21946                   0000000180050c88     c5_sl_groundvehicleDynamics.obj
 0003:00005ca8       $SG21948                   0000000180050ca8     c5_sl_groundvehicleDynamics.obj
 0003:00005cc0       $SG21949                   0000000180050cc0     c5_sl_groundvehicleDynamics.obj
 0003:00005d28       $SG21951                   0000000180050d28     c5_sl_groundvehicleDynamics.obj
 0003:00005d40       $SG21952                   0000000180050d40     c5_sl_groundvehicleDynamics.obj
 0003:00005da8       $SG21954                   0000000180050da8     c5_sl_groundvehicleDynamics.obj
 0003:00005dc0       $SG21955                   0000000180050dc0     c5_sl_groundvehicleDynamics.obj
 0003:00005e28       $SG21957                   0000000180050e28     c5_sl_groundvehicleDynamics.obj
 0003:00005e40       $SG21958                   0000000180050e40     c5_sl_groundvehicleDynamics.obj
 0003:00005ea8       $SG21960                   0000000180050ea8     c5_sl_groundvehicleDynamics.obj
 0003:00005ec0       $SG21961                   0000000180050ec0     c5_sl_groundvehicleDynamics.obj
 0003:00005f28       $SG21963                   0000000180050f28     c5_sl_groundvehicleDynamics.obj
 0003:00005f40       $SG21964                   0000000180050f40     c5_sl_groundvehicleDynamics.obj
 0003:00005f98       $SG21966                   0000000180050f98     c5_sl_groundvehicleDynamics.obj
 0003:00005fa0       $SG21967                   0000000180050fa0     c5_sl_groundvehicleDynamics.obj
 0003:00005ff0       $SG21969                   0000000180050ff0     c5_sl_groundvehicleDynamics.obj
 0003:00006000       $SG21970                   0000000180051000     c5_sl_groundvehicleDynamics.obj
 0003:00006050       $SG21972                   0000000180051050     c5_sl_groundvehicleDynamics.obj
 0003:00006060       $SG21973                   0000000180051060     c5_sl_groundvehicleDynamics.obj
 0003:000060b0       $SG21975                   00000001800510b0     c5_sl_groundvehicleDynamics.obj
 0003:000060c0       $SG21976                   00000001800510c0     c5_sl_groundvehicleDynamics.obj
 0003:00006110       $SG21978                   0000000180051110     c5_sl_groundvehicleDynamics.obj
 0003:00006120       $SG21979                   0000000180051120     c5_sl_groundvehicleDynamics.obj
 0003:00006188       $SG21981                   0000000180051188     c5_sl_groundvehicleDynamics.obj
 0003:00006190       $SG21982                   0000000180051190     c5_sl_groundvehicleDynamics.obj
 0003:000061f8       $SG21984                   00000001800511f8     c5_sl_groundvehicleDynamics.obj
 0003:00006200       $SG21985                   0000000180051200     c5_sl_groundvehicleDynamics.obj
 0003:00006268       $SG21987                   0000000180051268     c5_sl_groundvehicleDynamics.obj
 0003:00006270       $SG21988                   0000000180051270     c5_sl_groundvehicleDynamics.obj
 0003:000062d8       $SG21990                   00000001800512d8     c5_sl_groundvehicleDynamics.obj
 0003:000062f0       $SG21991                   00000001800512f0     c5_sl_groundvehicleDynamics.obj
 0003:00006340       $SG21993                   0000000180051340     c5_sl_groundvehicleDynamics.obj
 0003:00006370       $SG21994                   0000000180051370     c5_sl_groundvehicleDynamics.obj
 0003:000063e8       $SG21996                   00000001800513e8     c5_sl_groundvehicleDynamics.obj
 0003:00006410       $SG21997                   0000000180051410     c5_sl_groundvehicleDynamics.obj
 0003:00006484       $SG21999                   0000000180051484     c5_sl_groundvehicleDynamics.obj
 0003:00006490       $SG22000                   0000000180051490     c5_sl_groundvehicleDynamics.obj
 0003:000064dc       $SG22002                   00000001800514dc     c5_sl_groundvehicleDynamics.obj
 0003:000064f0       $SG22003                   00000001800514f0     c5_sl_groundvehicleDynamics.obj
 0003:00006534       $SG22005                   0000000180051534     c5_sl_groundvehicleDynamics.obj
 0003:00006540       $SG22006                   0000000180051540     c5_sl_groundvehicleDynamics.obj
 0003:00006588       $SG22008                   0000000180051588     c5_sl_groundvehicleDynamics.obj
 0003:000065b0       $SG22009                   00000001800515b0     c5_sl_groundvehicleDynamics.obj
 0003:00006628       $SG22011                   0000000180051628     c5_sl_groundvehicleDynamics.obj
 0003:00006640       $SG22012                   0000000180051640     c5_sl_groundvehicleDynamics.obj
 0003:00006688       $SG22014                   0000000180051688     c5_sl_groundvehicleDynamics.obj
 0003:000066a0       $SG22015                   00000001800516a0     c5_sl_groundvehicleDynamics.obj
 0003:000066e8       $SG22017                   00000001800516e8     c5_sl_groundvehicleDynamics.obj
 0003:00006700       $SG22018                   0000000180051700     c5_sl_groundvehicleDynamics.obj
 0003:00006748       $SG22020                   0000000180051748     c5_sl_groundvehicleDynamics.obj
 0003:00006760       $SG22021                   0000000180051760     c5_sl_groundvehicleDynamics.obj
 0003:000067a8       $SG22023                   00000001800517a8     c5_sl_groundvehicleDynamics.obj
 0003:000067c0       $SG22024                   00000001800517c0     c5_sl_groundvehicleDynamics.obj
 0003:00006808       $SG22026                   0000000180051808     c5_sl_groundvehicleDynamics.obj
 0003:00006820       $SG22027                   0000000180051820     c5_sl_groundvehicleDynamics.obj
 0003:00006888       $SG22029                   0000000180051888     c5_sl_groundvehicleDynamics.obj
 0003:000068a0       $SG22030                   00000001800518a0     c5_sl_groundvehicleDynamics.obj
 0003:00006908       $SG22032                   0000000180051908     c5_sl_groundvehicleDynamics.obj
 0003:00006910       $SG22033                   0000000180051910     c5_sl_groundvehicleDynamics.obj
 0003:00006958       $SG22035                   0000000180051958     c5_sl_groundvehicleDynamics.obj
 0003:00006970       $SG22036                   0000000180051970     c5_sl_groundvehicleDynamics.obj
 0003:000069d8       $SG22038                   00000001800519d8     c5_sl_groundvehicleDynamics.obj
 0003:000069f0       $SG22039                   00000001800519f0     c5_sl_groundvehicleDynamics.obj
 0003:00006a58       $SG22041                   0000000180051a58     c5_sl_groundvehicleDynamics.obj
 0003:00006a70       $SG22042                   0000000180051a70     c5_sl_groundvehicleDynamics.obj
 0003:00006ad8       $SG22044                   0000000180051ad8     c5_sl_groundvehicleDynamics.obj
 0003:00006af0       $SG22045                   0000000180051af0     c5_sl_groundvehicleDynamics.obj
 0003:00006b58       $SG22047                   0000000180051b58     c5_sl_groundvehicleDynamics.obj
 0003:00006b70       $SG22048                   0000000180051b70     c5_sl_groundvehicleDynamics.obj
 0003:00006bd8       $SG22050                   0000000180051bd8     c5_sl_groundvehicleDynamics.obj
 0003:00006bf0       $SG22051                   0000000180051bf0     c5_sl_groundvehicleDynamics.obj
 0003:00006c58       $SG22053                   0000000180051c58     c5_sl_groundvehicleDynamics.obj
 0003:00006c70       $SG22054                   0000000180051c70     c5_sl_groundvehicleDynamics.obj
 0003:00006cd8       $SG22056                   0000000180051cd8     c5_sl_groundvehicleDynamics.obj
 0003:00006cf0       $SG22057                   0000000180051cf0     c5_sl_groundvehicleDynamics.obj
 0003:00006d58       $SG22059                   0000000180051d58     c5_sl_groundvehicleDynamics.obj
 0003:00006d70       $SG22060                   0000000180051d70     c5_sl_groundvehicleDynamics.obj
 0003:00006dd8       $SG22062                   0000000180051dd8     c5_sl_groundvehicleDynamics.obj
 0003:00006df0       $SG22063                   0000000180051df0     c5_sl_groundvehicleDynamics.obj
 0003:00006e58       $SG22065                   0000000180051e58     c5_sl_groundvehicleDynamics.obj
 0003:00006e70       $SG22066                   0000000180051e70     c5_sl_groundvehicleDynamics.obj
 0003:00006ed8       $SG22068                   0000000180051ed8     c5_sl_groundvehicleDynamics.obj
 0003:00006ef0       $SG22069                   0000000180051ef0     c5_sl_groundvehicleDynamics.obj
 0003:00006f38       $SG22071                   0000000180051f38     c5_sl_groundvehicleDynamics.obj
 0003:00006f50       $SG22072                   0000000180051f50     c5_sl_groundvehicleDynamics.obj
 0003:00006f98       $SG22074                   0000000180051f98     c5_sl_groundvehicleDynamics.obj
 0003:00006fb0       $SG22075                   0000000180051fb0     c5_sl_groundvehicleDynamics.obj
 0003:00006ff8       $SG22077                   0000000180051ff8     c5_sl_groundvehicleDynamics.obj
 0003:00007010       $SG22078                   0000000180052010     c5_sl_groundvehicleDynamics.obj
 0003:00007058       $SG22080                   0000000180052058     c5_sl_groundvehicleDynamics.obj
 0003:00007070       $SG22081                   0000000180052070     c5_sl_groundvehicleDynamics.obj
 0003:000070b8       $SG22083                   00000001800520b8     c5_sl_groundvehicleDynamics.obj
 0003:000070d0       $SG22084                   00000001800520d0     c5_sl_groundvehicleDynamics.obj
 0003:00007118       $SG22086                   0000000180052118     c5_sl_groundvehicleDynamics.obj
 0003:00007130       $SG22087                   0000000180052130     c5_sl_groundvehicleDynamics.obj
 0003:00007178       $SG22089                   0000000180052178     c5_sl_groundvehicleDynamics.obj
 0003:00007190       $SG22090                   0000000180052190     c5_sl_groundvehicleDynamics.obj
 0003:000071d8       $SG22092                   00000001800521d8     c5_sl_groundvehicleDynamics.obj
 0003:000071f0       $SG22093                   00000001800521f0     c5_sl_groundvehicleDynamics.obj
 0003:00007238       $SG22095                   0000000180052238     c5_sl_groundvehicleDynamics.obj
 0003:00007250       $SG22096                   0000000180052250     c5_sl_groundvehicleDynamics.obj
 0003:00007298       $SG22098                   0000000180052298     c5_sl_groundvehicleDynamics.obj
 0003:000072b0       $SG22099                   00000001800522b0     c5_sl_groundvehicleDynamics.obj
 0003:000072f8       $SG22101                   00000001800522f8     c5_sl_groundvehicleDynamics.obj
 0003:00007310       $SG22102                   0000000180052310     c5_sl_groundvehicleDynamics.obj
 0003:00007358       $SG22104                   0000000180052358     c5_sl_groundvehicleDynamics.obj
 0003:00007370       $SG22105                   0000000180052370     c5_sl_groundvehicleDynamics.obj
 0003:000073b8       $SG22107                   00000001800523b8     c5_sl_groundvehicleDynamics.obj
 0003:000073d0       $SG22108                   00000001800523d0     c5_sl_groundvehicleDynamics.obj
 0003:00007418       $SG22110                   0000000180052418     c5_sl_groundvehicleDynamics.obj
 0003:00007430       $SG22111                   0000000180052430     c5_sl_groundvehicleDynamics.obj
 0003:00007478       $SG22113                   0000000180052478     c5_sl_groundvehicleDynamics.obj
 0003:00007490       $SG22114                   0000000180052490     c5_sl_groundvehicleDynamics.obj
 0003:000074d8       $SG22116                   00000001800524d8     c5_sl_groundvehicleDynamics.obj
 0003:000074f0       $SG22117                   00000001800524f0     c5_sl_groundvehicleDynamics.obj
 0003:00007538       $SG22119                   0000000180052538     c5_sl_groundvehicleDynamics.obj
 0003:00007550       $SG22120                   0000000180052550     c5_sl_groundvehicleDynamics.obj
 0003:00007598       $SG22122                   0000000180052598     c5_sl_groundvehicleDynamics.obj
 0003:000075b0       $SG22123                   00000001800525b0     c5_sl_groundvehicleDynamics.obj
 0003:000075f8       $SG22125                   00000001800525f8     c5_sl_groundvehicleDynamics.obj
 0003:00007610       $SG22126                   0000000180052610     c5_sl_groundvehicleDynamics.obj
 0003:00007690       $SG22128                   0000000180052690     c5_sl_groundvehicleDynamics.obj
 0003:000076a0       $SG22129                   00000001800526a0     c5_sl_groundvehicleDynamics.obj
 0003:00007720       $SG22131                   0000000180052720     c5_sl_groundvehicleDynamics.obj
 0003:00007730       $SG22132                   0000000180052730     c5_sl_groundvehicleDynamics.obj
 0003:000077ac       $SG22134                   00000001800527ac     c5_sl_groundvehicleDynamics.obj
 0003:000077b0       $SG22135                   00000001800527b0     c5_sl_groundvehicleDynamics.obj
 0003:000077f8       $SG22137                   00000001800527f8     c5_sl_groundvehicleDynamics.obj
 0003:00007800       $SG22138                   0000000180052800     c5_sl_groundvehicleDynamics.obj
 0003:00007848       $SG22140                   0000000180052848     c5_sl_groundvehicleDynamics.obj
 0003:00007850       $SG22141                   0000000180052850     c5_sl_groundvehicleDynamics.obj
 0003:00007898       $SG22143                   0000000180052898     c5_sl_groundvehicleDynamics.obj
 0003:000078b0       $SG22144                   00000001800528b0     c5_sl_groundvehicleDynamics.obj
 0003:00007930       $SG22146                   0000000180052930     c5_sl_groundvehicleDynamics.obj
 0003:00007940       $SG22147                   0000000180052940     c5_sl_groundvehicleDynamics.obj
 0003:000079c0       $SG22149                   00000001800529c0     c5_sl_groundvehicleDynamics.obj
 0003:000079d0       $SG22150                   00000001800529d0     c5_sl_groundvehicleDynamics.obj
 0003:00007a50       $SG22152                   0000000180052a50     c5_sl_groundvehicleDynamics.obj
 0003:00007a78       $SG22153                   0000000180052a78     c5_sl_groundvehicleDynamics.obj
 0003:00007a98       $SG22155                   0000000180052a98     c5_sl_groundvehicleDynamics.obj
 0003:00007ac0       $SG22156                   0000000180052ac0     c5_sl_groundvehicleDynamics.obj
 0003:00007ae0       $SG22158                   0000000180052ae0     c5_sl_groundvehicleDynamics.obj
 0003:00007b08       $SG22159                   0000000180052b08     c5_sl_groundvehicleDynamics.obj
 0003:00007b28       $SG22161                   0000000180052b28     c5_sl_groundvehicleDynamics.obj
 0003:00007b40       $SG22162                   0000000180052b40     c5_sl_groundvehicleDynamics.obj
 0003:00007ba8       $SG22164                   0000000180052ba8     c5_sl_groundvehicleDynamics.obj
 0003:00007bc0       $SG22165                   0000000180052bc0     c5_sl_groundvehicleDynamics.obj
 0003:00007c28       $SG22167                   0000000180052c28     c5_sl_groundvehicleDynamics.obj
 0003:00007c30       $SG22168                   0000000180052c30     c5_sl_groundvehicleDynamics.obj
 0003:00007c80       $SG22170                   0000000180052c80     c5_sl_groundvehicleDynamics.obj
 0003:00007ca0       $SG22171                   0000000180052ca0     c5_sl_groundvehicleDynamics.obj
 0003:00007d08       $SG22173                   0000000180052d08     c5_sl_groundvehicleDynamics.obj
 0003:00007d10       $SG22174                   0000000180052d10     c5_sl_groundvehicleDynamics.obj
 0003:00007d58       $SG22176                   0000000180052d58     c5_sl_groundvehicleDynamics.obj
 0003:00007d70       $SG22177                   0000000180052d70     c5_sl_groundvehicleDynamics.obj
 0003:00007dd8       $SG22179                   0000000180052dd8     c5_sl_groundvehicleDynamics.obj
 0003:00007df0       $SG22180                   0000000180052df0     c5_sl_groundvehicleDynamics.obj
 0003:00007e38       $SG22182                   0000000180052e38     c5_sl_groundvehicleDynamics.obj
 0003:00007e50       $SG22183                   0000000180052e50     c5_sl_groundvehicleDynamics.obj
 0003:00007e98       $SG22185                   0000000180052e98     c5_sl_groundvehicleDynamics.obj
 0003:00007eb0       $SG22186                   0000000180052eb0     c5_sl_groundvehicleDynamics.obj
 0003:00007ef8       $SG22188                   0000000180052ef8     c5_sl_groundvehicleDynamics.obj
 0003:00007f10       $SG22189                   0000000180052f10     c5_sl_groundvehicleDynamics.obj
 0003:00007f8c       $SG22191                   0000000180052f8c     c5_sl_groundvehicleDynamics.obj
 0003:00007f90       $SG22192                   0000000180052f90     c5_sl_groundvehicleDynamics.obj
 0003:00007fd8       $SG22195                   0000000180052fd8     c5_sl_groundvehicleDynamics.obj
 0003:00007fe0       $SG22196                   0000000180052fe0     c5_sl_groundvehicleDynamics.obj
 0003:00008008       $SG22197                   0000000180053008     c5_sl_groundvehicleDynamics.obj
 0003:00008028       $SG22199                   0000000180053028     c5_sl_groundvehicleDynamics.obj
 0003:00008030       $SG22200                   0000000180053030     c5_sl_groundvehicleDynamics.obj
 0003:00008058       $SG22201                   0000000180053058     c5_sl_groundvehicleDynamics.obj
 0003:00008078       $SG22203                   0000000180053078     c5_sl_groundvehicleDynamics.obj
 0003:000080a0       $SG22204                   00000001800530a0     c5_sl_groundvehicleDynamics.obj
 0003:000080c0       $SG22206                   00000001800530c0     c5_sl_groundvehicleDynamics.obj
 0003:000080c8       $SG22207                   00000001800530c8     c5_sl_groundvehicleDynamics.obj
 0003:000080f0       $SG22208                   00000001800530f0     c5_sl_groundvehicleDynamics.obj
 0003:00008110       $SG22210                   0000000180053110     c5_sl_groundvehicleDynamics.obj
 0003:00008138       $SG22211                   0000000180053138     c5_sl_groundvehicleDynamics.obj
 0003:00008158       $SG22213                   0000000180053158     c5_sl_groundvehicleDynamics.obj
 0003:00008160       $SG22214                   0000000180053160     c5_sl_groundvehicleDynamics.obj
 0003:00008188       $SG22215                   0000000180053188     c5_sl_groundvehicleDynamics.obj
 0003:000081a8       $SG22217                   00000001800531a8     c5_sl_groundvehicleDynamics.obj
 0003:000081d0       $SG22218                   00000001800531d0     c5_sl_groundvehicleDynamics.obj
 0003:000081f0       $SG22220                   00000001800531f0     c5_sl_groundvehicleDynamics.obj
 0003:000081f8       $SG22221                   00000001800531f8     c5_sl_groundvehicleDynamics.obj
 0003:00008220       $SG22222                   0000000180053220     c5_sl_groundvehicleDynamics.obj
 0003:00008240       $SG22224                   0000000180053240     c5_sl_groundvehicleDynamics.obj
 0003:00008268       $SG22225                   0000000180053268     c5_sl_groundvehicleDynamics.obj
 0003:00008288       $SG22227                   0000000180053288     c5_sl_groundvehicleDynamics.obj
 0003:00008290       $SG22228                   0000000180053290     c5_sl_groundvehicleDynamics.obj
 0003:000082b8       $SG22229                   00000001800532b8     c5_sl_groundvehicleDynamics.obj
 0003:000082d8       $SG22231                   00000001800532d8     c5_sl_groundvehicleDynamics.obj
 0003:00008300       $SG22232                   0000000180053300     c5_sl_groundvehicleDynamics.obj
 0003:00008320       $SG22234                   0000000180053320     c5_sl_groundvehicleDynamics.obj
 0003:00008328       $SG22235                   0000000180053328     c5_sl_groundvehicleDynamics.obj
 0003:00008350       $SG22236                   0000000180053350     c5_sl_groundvehicleDynamics.obj
 0003:00008370       $SG22238                   0000000180053370     c5_sl_groundvehicleDynamics.obj
 0003:00008398       $SG22239                   0000000180053398     c5_sl_groundvehicleDynamics.obj
 0003:000083b8       $SG22241                   00000001800533b8     c5_sl_groundvehicleDynamics.obj
 0003:000083c8       $SG22242                   00000001800533c8     c5_sl_groundvehicleDynamics.obj
 0003:000083f0       $SG22243                   00000001800533f0     c5_sl_groundvehicleDynamics.obj
 0003:00008410       $SG22245                   0000000180053410     c5_sl_groundvehicleDynamics.obj
 0003:00008438       $SG22246                   0000000180053438     c5_sl_groundvehicleDynamics.obj
 0003:00008458       $SG22248                   0000000180053458     c5_sl_groundvehicleDynamics.obj
 0003:00008468       $SG22249                   0000000180053468     c5_sl_groundvehicleDynamics.obj
 0003:00008490       $SG22250                   0000000180053490     c5_sl_groundvehicleDynamics.obj
 0003:000084b0       $SG22252                   00000001800534b0     c5_sl_groundvehicleDynamics.obj
 0003:000084d8       $SG22253                   00000001800534d8     c5_sl_groundvehicleDynamics.obj
 0003:000084f8       $SG22255                   00000001800534f8     c5_sl_groundvehicleDynamics.obj
 0003:00008508       $SG22256                   0000000180053508     c5_sl_groundvehicleDynamics.obj
 0003:00008530       $SG22257                   0000000180053530     c5_sl_groundvehicleDynamics.obj
 0003:00008550       $SG22259                   0000000180053550     c5_sl_groundvehicleDynamics.obj
 0003:00008578       $SG22260                   0000000180053578     c5_sl_groundvehicleDynamics.obj
 0003:00008598       $SG22262                   0000000180053598     c5_sl_groundvehicleDynamics.obj
 0003:000085a8       $SG22263                   00000001800535a8     c5_sl_groundvehicleDynamics.obj
 0003:000085d0       $SG22264                   00000001800535d0     c5_sl_groundvehicleDynamics.obj
 0003:000085f0       $SG22266                   00000001800535f0     c5_sl_groundvehicleDynamics.obj
 0003:00008618       $SG22267                   0000000180053618     c5_sl_groundvehicleDynamics.obj
 0003:00008638       $SG22269                   0000000180053638     c5_sl_groundvehicleDynamics.obj
 0003:00008640       $SG22270                   0000000180053640     c5_sl_groundvehicleDynamics.obj
 0003:000086a8       $SG22272                   00000001800536a8     c5_sl_groundvehicleDynamics.obj
 0003:000086b0       $SG22273                   00000001800536b0     c5_sl_groundvehicleDynamics.obj
 0003:00008718       $SG22276                   0000000180053718     c5_sl_groundvehicleDynamics.obj
 0003:00008720       $SG22277                   0000000180053720     c5_sl_groundvehicleDynamics.obj
 0003:00008788       $SG22280                   0000000180053788     c5_sl_groundvehicleDynamics.obj
 0003:000087b0       $SG22281                   00000001800537b0     c5_sl_groundvehicleDynamics.obj
 0003:00008828       $SG22284                   0000000180053828     c5_sl_groundvehicleDynamics.obj
 0003:00008840       $SG22285                   0000000180053840     c5_sl_groundvehicleDynamics.obj
 0003:00008888       $SG22287                   0000000180053888     c5_sl_groundvehicleDynamics.obj
 0003:000088a0       $SG22288                   00000001800538a0     c5_sl_groundvehicleDynamics.obj
 0003:000088e8       $SG22291                   00000001800538e8     c5_sl_groundvehicleDynamics.obj
 0003:00008900       $SG22292                   0000000180053900     c5_sl_groundvehicleDynamics.obj
 0003:00008948       $SG22294                   0000000180053948     c5_sl_groundvehicleDynamics.obj
 0003:00008960       $SG22295                   0000000180053960     c5_sl_groundvehicleDynamics.obj
 0003:000089a8       $SG22298                   00000001800539a8     c5_sl_groundvehicleDynamics.obj
 0003:000089c0       $SG22299                   00000001800539c0     c5_sl_groundvehicleDynamics.obj
 0003:00008a08       $SG22301                   0000000180053a08     c5_sl_groundvehicleDynamics.obj
 0003:00008a20       $SG22302                   0000000180053a20     c5_sl_groundvehicleDynamics.obj
 0003:00008a68       $SG22305                   0000000180053a68     c5_sl_groundvehicleDynamics.obj
 0003:00008a80       $SG22306                   0000000180053a80     c5_sl_groundvehicleDynamics.obj
 0003:00008ac8       $SG22308                   0000000180053ac8     c5_sl_groundvehicleDynamics.obj
 0003:00008ae0       $SG22309                   0000000180053ae0     c5_sl_groundvehicleDynamics.obj
 0003:00008b28       $SG22312                   0000000180053b28     c5_sl_groundvehicleDynamics.obj
 0003:00008b40       $SG22313                   0000000180053b40     c5_sl_groundvehicleDynamics.obj
 0003:00008b88       $SG22315                   0000000180053b88     c5_sl_groundvehicleDynamics.obj
 0003:00008ba0       $SG22316                   0000000180053ba0     c5_sl_groundvehicleDynamics.obj
 0003:00008be8       $SG22319                   0000000180053be8     c5_sl_groundvehicleDynamics.obj
 0003:00008c00       $SG22320                   0000000180053c00     c5_sl_groundvehicleDynamics.obj
 0003:00008c68       $SG22323                   0000000180053c68     c5_sl_groundvehicleDynamics.obj
 0003:00008c80       $SG22324                   0000000180053c80     c5_sl_groundvehicleDynamics.obj
 0003:00008ce8       $SG22327                   0000000180053ce8     c5_sl_groundvehicleDynamics.obj
 0003:00008d00       $SG22328                   0000000180053d00     c5_sl_groundvehicleDynamics.obj
 0003:00008d68       $SG22331                   0000000180053d68     c5_sl_groundvehicleDynamics.obj
 0003:00008d80       $SG22332                   0000000180053d80     c5_sl_groundvehicleDynamics.obj
 0003:00008de8       $SG22334                   0000000180053de8     c5_sl_groundvehicleDynamics.obj
 0003:00008e00       $SG22335                   0000000180053e00     c5_sl_groundvehicleDynamics.obj
 0003:00008e68       $SG22338                   0000000180053e68     c5_sl_groundvehicleDynamics.obj
 0003:00008e80       $SG22339                   0000000180053e80     c5_sl_groundvehicleDynamics.obj
 0003:00008ee8       $SG22341                   0000000180053ee8     c5_sl_groundvehicleDynamics.obj
 0003:00008f00       $SG22342                   0000000180053f00     c5_sl_groundvehicleDynamics.obj
 0003:00008f68       $SG22345                   0000000180053f68     c5_sl_groundvehicleDynamics.obj
 0003:00008f80       $SG22346                   0000000180053f80     c5_sl_groundvehicleDynamics.obj
 0003:00008fe8       $SG22349                   0000000180053fe8     c5_sl_groundvehicleDynamics.obj
 0003:00009000       $SG22350                   0000000180054000     c5_sl_groundvehicleDynamics.obj
 0003:00009068       $SG22353                   0000000180054068     c5_sl_groundvehicleDynamics.obj
 0003:00009080       $SG22354                   0000000180054080     c5_sl_groundvehicleDynamics.obj
 0003:000090e8       $SG22357                   00000001800540e8     c5_sl_groundvehicleDynamics.obj
 0003:00009100       $SG22358                   0000000180054100     c5_sl_groundvehicleDynamics.obj
 0003:00009168       $SG22361                   0000000180054168     c5_sl_groundvehicleDynamics.obj
 0003:00009180       $SG22362                   0000000180054180     c5_sl_groundvehicleDynamics.obj
 0003:000091e8       $SG22365                   00000001800541e8     c5_sl_groundvehicleDynamics.obj
 0003:00009200       $SG22366                   0000000180054200     c5_sl_groundvehicleDynamics.obj
 0003:00009268       $SG22369                   0000000180054268     c5_sl_groundvehicleDynamics.obj
 0003:00009280       $SG22370                   0000000180054280     c5_sl_groundvehicleDynamics.obj
 0003:000092e8       $SG22373                   00000001800542e8     c5_sl_groundvehicleDynamics.obj
 0003:00009300       $SG22374                   0000000180054300     c5_sl_groundvehicleDynamics.obj
 0003:00009368       $SG22377                   0000000180054368     c5_sl_groundvehicleDynamics.obj
 0003:00009380       $SG22378                   0000000180054380     c5_sl_groundvehicleDynamics.obj
 0003:000093e8       $SG22381                   00000001800543e8     c5_sl_groundvehicleDynamics.obj
 0003:00009400       $SG22382                   0000000180054400     c5_sl_groundvehicleDynamics.obj
 0003:00009468       $SG22385                   0000000180054468     c5_sl_groundvehicleDynamics.obj
 0003:00009480       $SG22386                   0000000180054480     c5_sl_groundvehicleDynamics.obj
 0003:000094e8       $SG22389                   00000001800544e8     c5_sl_groundvehicleDynamics.obj
 0003:00009500       $SG22390                   0000000180054500     c5_sl_groundvehicleDynamics.obj
 0003:00009568       $SG22393                   0000000180054568     c5_sl_groundvehicleDynamics.obj
 0003:00009580       $SG22394                   0000000180054580     c5_sl_groundvehicleDynamics.obj
 0003:000095e8       $SG22397                   00000001800545e8     c5_sl_groundvehicleDynamics.obj
 0003:00009600       $SG22398                   0000000180054600     c5_sl_groundvehicleDynamics.obj
 0003:00009668       $SG22401                   0000000180054668     c5_sl_groundvehicleDynamics.obj
 0003:00009680       $SG22402                   0000000180054680     c5_sl_groundvehicleDynamics.obj
 0003:000096e8       $SG22405                   00000001800546e8     c5_sl_groundvehicleDynamics.obj
 0003:00009700       $SG22406                   0000000180054700     c5_sl_groundvehicleDynamics.obj
 0003:00009768       $SG22409                   0000000180054768     c5_sl_groundvehicleDynamics.obj
 0003:00009780       $SG22410                   0000000180054780     c5_sl_groundvehicleDynamics.obj
 0003:000097e8       $SG22412                   00000001800547e8     c5_sl_groundvehicleDynamics.obj
 0003:00009800       $SG22413                   0000000180054800     c5_sl_groundvehicleDynamics.obj
 0003:00009868       $SG22416                   0000000180054868     c5_sl_groundvehicleDynamics.obj
 0003:00009880       $SG22417                   0000000180054880     c5_sl_groundvehicleDynamics.obj
 0003:000098e8       $SG22419                   00000001800548e8     c5_sl_groundvehicleDynamics.obj
 0003:00009900       $SG22420                   0000000180054900     c5_sl_groundvehicleDynamics.obj
 0003:00009968       $SG22422                   0000000180054968     c5_sl_groundvehicleDynamics.obj
 0003:00009980       $SG22423                   0000000180054980     c5_sl_groundvehicleDynamics.obj
 0003:000099e8       $SG22426                   00000001800549e8     c5_sl_groundvehicleDynamics.obj
 0003:00009a00       $SG22427                   0000000180054a00     c5_sl_groundvehicleDynamics.obj
 0003:00009a68       $SG22429                   0000000180054a68     c5_sl_groundvehicleDynamics.obj
 0003:00009a80       $SG22430                   0000000180054a80     c5_sl_groundvehicleDynamics.obj
 0003:00009ae8       $SG22432                   0000000180054ae8     c5_sl_groundvehicleDynamics.obj
 0003:00009b00       $SG22433                   0000000180054b00     c5_sl_groundvehicleDynamics.obj
 0003:00009b68       $SG22436                   0000000180054b68     c5_sl_groundvehicleDynamics.obj
 0003:00009b80       $SG22437                   0000000180054b80     c5_sl_groundvehicleDynamics.obj
 0003:00009be8       $SG22439                   0000000180054be8     c5_sl_groundvehicleDynamics.obj
 0003:00009c00       $SG22440                   0000000180054c00     c5_sl_groundvehicleDynamics.obj
 0003:00009c68       $SG22443                   0000000180054c68     c5_sl_groundvehicleDynamics.obj
 0003:00009c80       $SG22444                   0000000180054c80     c5_sl_groundvehicleDynamics.obj
 0003:00009ce8       $SG22447                   0000000180054ce8     c5_sl_groundvehicleDynamics.obj
 0003:00009d00       $SG22448                   0000000180054d00     c5_sl_groundvehicleDynamics.obj
 0003:00009d68       $SG22450                   0000000180054d68     c5_sl_groundvehicleDynamics.obj
 0003:00009d80       $SG22451                   0000000180054d80     c5_sl_groundvehicleDynamics.obj
 0003:00009de8       $SG22454                   0000000180054de8     c5_sl_groundvehicleDynamics.obj
 0003:00009e00       $SG22455                   0000000180054e00     c5_sl_groundvehicleDynamics.obj
 0003:00009e68       $SG22457                   0000000180054e68     c5_sl_groundvehicleDynamics.obj
 0003:00009e80       $SG22458                   0000000180054e80     c5_sl_groundvehicleDynamics.obj
 0003:00009ee8       $SG22461                   0000000180054ee8     c5_sl_groundvehicleDynamics.obj
 0003:00009f00       $SG22462                   0000000180054f00     c5_sl_groundvehicleDynamics.obj
 0003:00009f68       $SG22464                   0000000180054f68     c5_sl_groundvehicleDynamics.obj
 0003:00009f80       $SG22465                   0000000180054f80     c5_sl_groundvehicleDynamics.obj
 0003:00009fe8       $SG22468                   0000000180054fe8     c5_sl_groundvehicleDynamics.obj
 0003:0000a000       $SG22469                   0000000180055000     c5_sl_groundvehicleDynamics.obj
 0003:0000a068       $SG22471                   0000000180055068     c5_sl_groundvehicleDynamics.obj
 0003:0000a080       $SG22472                   0000000180055080     c5_sl_groundvehicleDynamics.obj
 0003:0000a0e8       $SG22475                   00000001800550e8     c5_sl_groundvehicleDynamics.obj
 0003:0000a100       $SG22476                   0000000180055100     c5_sl_groundvehicleDynamics.obj
 0003:0000a168       $SG22478                   0000000180055168     c5_sl_groundvehicleDynamics.obj
 0003:0000a180       $SG22479                   0000000180055180     c5_sl_groundvehicleDynamics.obj
 0003:0000a1e8       $SG22482                   00000001800551e8     c5_sl_groundvehicleDynamics.obj
 0003:0000a200       $SG22483                   0000000180055200     c5_sl_groundvehicleDynamics.obj
 0003:0000a268       $SG22486                   0000000180055268     c5_sl_groundvehicleDynamics.obj
 0003:0000a280       $SG22487                   0000000180055280     c5_sl_groundvehicleDynamics.obj
 0003:0000a2e8       $SG22489                   00000001800552e8     c5_sl_groundvehicleDynamics.obj
 0003:0000a300       $SG22490                   0000000180055300     c5_sl_groundvehicleDynamics.obj
 0003:0000a368       $SG22493                   0000000180055368     c5_sl_groundvehicleDynamics.obj
 0003:0000a380       $SG22494                   0000000180055380     c5_sl_groundvehicleDynamics.obj
 0003:0000a3e8       $SG22497                   00000001800553e8     c5_sl_groundvehicleDynamics.obj
 0003:0000a400       $SG22498                   0000000180055400     c5_sl_groundvehicleDynamics.obj
 0003:0000a468       $SG22500                   0000000180055468     c5_sl_groundvehicleDynamics.obj
 0003:0000a480       $SG22501                   0000000180055480     c5_sl_groundvehicleDynamics.obj
 0003:0000a4e8       $SG22504                   00000001800554e8     c5_sl_groundvehicleDynamics.obj
 0003:0000a500       $SG22505                   0000000180055500     c5_sl_groundvehicleDynamics.obj
 0003:0000a568       $SG22508                   0000000180055568     c5_sl_groundvehicleDynamics.obj
 0003:0000a580       $SG22509                   0000000180055580     c5_sl_groundvehicleDynamics.obj
 0003:0000a5e8       $SG22511                   00000001800555e8     c5_sl_groundvehicleDynamics.obj
 0003:0000a600       $SG22512                   0000000180055600     c5_sl_groundvehicleDynamics.obj
 0003:0000a668       $SG22515                   0000000180055668     c5_sl_groundvehicleDynamics.obj
 0003:0000a680       $SG22516                   0000000180055680     c5_sl_groundvehicleDynamics.obj
 0003:0000a6e8       $SG22519                   00000001800556e8     c5_sl_groundvehicleDynamics.obj
 0003:0000a700       $SG22520                   0000000180055700     c5_sl_groundvehicleDynamics.obj
 0003:0000a768       $SG22522                   0000000180055768     c5_sl_groundvehicleDynamics.obj
 0003:0000a780       $SG22523                   0000000180055780     c5_sl_groundvehicleDynamics.obj
 0003:0000a7e8       $SG22526                   00000001800557e8     c5_sl_groundvehicleDynamics.obj
 0003:0000a800       $SG22527                   0000000180055800     c5_sl_groundvehicleDynamics.obj
 0003:0000a868       $SG22529                   0000000180055868     c5_sl_groundvehicleDynamics.obj
 0003:0000a880       $SG22530                   0000000180055880     c5_sl_groundvehicleDynamics.obj
 0003:0000a8e8       $SG22533                   00000001800558e8     c5_sl_groundvehicleDynamics.obj
 0003:0000a900       $SG22534                   0000000180055900     c5_sl_groundvehicleDynamics.obj
 0003:0000a968       $SG22536                   0000000180055968     c5_sl_groundvehicleDynamics.obj
 0003:0000a980       $SG22537                   0000000180055980     c5_sl_groundvehicleDynamics.obj
 0003:0000a9e8       $SG22540                   00000001800559e8     c5_sl_groundvehicleDynamics.obj
 0003:0000aa00       $SG22541                   0000000180055a00     c5_sl_groundvehicleDynamics.obj
 0003:0000aa68       $SG22543                   0000000180055a68     c5_sl_groundvehicleDynamics.obj
 0003:0000aa80       $SG22544                   0000000180055a80     c5_sl_groundvehicleDynamics.obj
 0003:0000aae8       $SG22546                   0000000180055ae8     c5_sl_groundvehicleDynamics.obj
 0003:0000ab00       $SG22547                   0000000180055b00     c5_sl_groundvehicleDynamics.obj
 0003:0000ab68       $SG22549                   0000000180055b68     c5_sl_groundvehicleDynamics.obj
 0003:0000ab80       $SG22550                   0000000180055b80     c5_sl_groundvehicleDynamics.obj
 0003:0000abe8       $SG22553                   0000000180055be8     c5_sl_groundvehicleDynamics.obj
 0003:0000ac00       $SG22554                   0000000180055c00     c5_sl_groundvehicleDynamics.obj
 0003:0000ac68       $SG22556                   0000000180055c68     c5_sl_groundvehicleDynamics.obj
 0003:0000ac80       $SG22557                   0000000180055c80     c5_sl_groundvehicleDynamics.obj
 0003:0000ace8       $SG22560                   0000000180055ce8     c5_sl_groundvehicleDynamics.obj
 0003:0000ad00       $SG22561                   0000000180055d00     c5_sl_groundvehicleDynamics.obj
 0003:0000ad68       $SG22563                   0000000180055d68     c5_sl_groundvehicleDynamics.obj
 0003:0000ad80       $SG22564                   0000000180055d80     c5_sl_groundvehicleDynamics.obj
 0003:0000ade8       $SG22567                   0000000180055de8     c5_sl_groundvehicleDynamics.obj
 0003:0000ae00       $SG22568                   0000000180055e00     c5_sl_groundvehicleDynamics.obj
 0003:0000ae68       $SG22570                   0000000180055e68     c5_sl_groundvehicleDynamics.obj
 0003:0000ae80       $SG22571                   0000000180055e80     c5_sl_groundvehicleDynamics.obj
 0003:0000aee8       $SG22574                   0000000180055ee8     c5_sl_groundvehicleDynamics.obj
 0003:0000af00       $SG22575                   0000000180055f00     c5_sl_groundvehicleDynamics.obj
 0003:0000af68       $SG22577                   0000000180055f68     c5_sl_groundvehicleDynamics.obj
 0003:0000af80       $SG22578                   0000000180055f80     c5_sl_groundvehicleDynamics.obj
 0003:0000afe8       $SG22581                   0000000180055fe8     c5_sl_groundvehicleDynamics.obj
 0003:0000b000       $SG22582                   0000000180056000     c5_sl_groundvehicleDynamics.obj
 0003:0000b068       $SG22584                   0000000180056068     c5_sl_groundvehicleDynamics.obj
 0003:0000b080       $SG22585                   0000000180056080     c5_sl_groundvehicleDynamics.obj
 0003:0000b0e8       $SG22588                   00000001800560e8     c5_sl_groundvehicleDynamics.obj
 0003:0000b100       $SG22589                   0000000180056100     c5_sl_groundvehicleDynamics.obj
 0003:0000b168       $SG22591                   0000000180056168     c5_sl_groundvehicleDynamics.obj
 0003:0000b180       $SG22592                   0000000180056180     c5_sl_groundvehicleDynamics.obj
 0003:0000b1e8       $SG22595                   00000001800561e8     c5_sl_groundvehicleDynamics.obj
 0003:0000b200       $SG22596                   0000000180056200     c5_sl_groundvehicleDynamics.obj
 0003:0000b268       $SG22598                   0000000180056268     c5_sl_groundvehicleDynamics.obj
 0003:0000b280       $SG22599                   0000000180056280     c5_sl_groundvehicleDynamics.obj
 0003:0000b2e8       $SG22602                   00000001800562e8     c5_sl_groundvehicleDynamics.obj
 0003:0000b300       $SG22603                   0000000180056300     c5_sl_groundvehicleDynamics.obj
 0003:0000b368       $SG22605                   0000000180056368     c5_sl_groundvehicleDynamics.obj
 0003:0000b380       $SG22606                   0000000180056380     c5_sl_groundvehicleDynamics.obj
 0003:0000b3e8       $SG22609                   00000001800563e8     c5_sl_groundvehicleDynamics.obj
 0003:0000b400       $SG22610                   0000000180056400     c5_sl_groundvehicleDynamics.obj
 0003:0000b468       $SG22612                   0000000180056468     c5_sl_groundvehicleDynamics.obj
 0003:0000b480       $SG22613                   0000000180056480     c5_sl_groundvehicleDynamics.obj
 0003:0000b4e8       $SG22616                   00000001800564e8     c5_sl_groundvehicleDynamics.obj
 0003:0000b500       $SG22617                   0000000180056500     c5_sl_groundvehicleDynamics.obj
 0003:0000b568       $SG22619                   0000000180056568     c5_sl_groundvehicleDynamics.obj
 0003:0000b580       $SG22620                   0000000180056580     c5_sl_groundvehicleDynamics.obj
 0003:0000b5e8       $SG22623                   00000001800565e8     c5_sl_groundvehicleDynamics.obj
 0003:0000b600       $SG22624                   0000000180056600     c5_sl_groundvehicleDynamics.obj
 0003:0000b668       $SG22627                   0000000180056668     c5_sl_groundvehicleDynamics.obj
 0003:0000b680       $SG22628                   0000000180056680     c5_sl_groundvehicleDynamics.obj
 0003:0000b6e8       $SG22631                   00000001800566e8     c5_sl_groundvehicleDynamics.obj
 0003:0000b700       $SG22632                   0000000180056700     c5_sl_groundvehicleDynamics.obj
 0003:0000b768       $SG22635                   0000000180056768     c5_sl_groundvehicleDynamics.obj
 0003:0000b780       $SG22636                   0000000180056780     c5_sl_groundvehicleDynamics.obj
 0003:0000b7e8       $SG22639                   00000001800567e8     c5_sl_groundvehicleDynamics.obj
 0003:0000b800       $SG22640                   0000000180056800     c5_sl_groundvehicleDynamics.obj
 0003:0000b868       $SG22642                   0000000180056868     c5_sl_groundvehicleDynamics.obj
 0003:0000b880       $SG22643                   0000000180056880     c5_sl_groundvehicleDynamics.obj
 0003:0000b8e8       $SG22646                   00000001800568e8     c5_sl_groundvehicleDynamics.obj
 0003:0000b900       $SG22647                   0000000180056900     c5_sl_groundvehicleDynamics.obj
 0003:0000b968       $SG22650                   0000000180056968     c5_sl_groundvehicleDynamics.obj
 0003:0000b980       $SG22651                   0000000180056980     c5_sl_groundvehicleDynamics.obj
 0003:0000b9e8       $SG22654                   00000001800569e8     c5_sl_groundvehicleDynamics.obj
 0003:0000ba00       $SG22655                   0000000180056a00     c5_sl_groundvehicleDynamics.obj
 0003:0000ba68       $SG22658                   0000000180056a68     c5_sl_groundvehicleDynamics.obj
 0003:0000ba80       $SG22659                   0000000180056a80     c5_sl_groundvehicleDynamics.obj
 0003:0000bae8       $SG22662                   0000000180056ae8     c5_sl_groundvehicleDynamics.obj
 0003:0000bb00       $SG22663                   0000000180056b00     c5_sl_groundvehicleDynamics.obj
 0003:0000bb68       $SG22666                   0000000180056b68     c5_sl_groundvehicleDynamics.obj
 0003:0000bb80       $SG22667                   0000000180056b80     c5_sl_groundvehicleDynamics.obj
 0003:0000bbe8       $SG22670                   0000000180056be8     c5_sl_groundvehicleDynamics.obj
 0003:0000bc00       $SG22671                   0000000180056c00     c5_sl_groundvehicleDynamics.obj
 0003:0000bc68       $SG22674                   0000000180056c68     c5_sl_groundvehicleDynamics.obj
 0003:0000bc80       $SG22675                   0000000180056c80     c5_sl_groundvehicleDynamics.obj
 0003:0000bce8       $SG22678                   0000000180056ce8     c5_sl_groundvehicleDynamics.obj
 0003:0000bd00       $SG22679                   0000000180056d00     c5_sl_groundvehicleDynamics.obj
 0003:0000bd68       $SG22682                   0000000180056d68     c5_sl_groundvehicleDynamics.obj
 0003:0000bd80       $SG22683                   0000000180056d80     c5_sl_groundvehicleDynamics.obj
 0003:0000bde8       $SG22686                   0000000180056de8     c5_sl_groundvehicleDynamics.obj
 0003:0000be00       $SG22687                   0000000180056e00     c5_sl_groundvehicleDynamics.obj
 0003:0000be68       $SG22690                   0000000180056e68     c5_sl_groundvehicleDynamics.obj
 0003:0000be80       $SG22691                   0000000180056e80     c5_sl_groundvehicleDynamics.obj
 0003:0000bee8       $SG22694                   0000000180056ee8     c5_sl_groundvehicleDynamics.obj
 0003:0000bf00       $SG22695                   0000000180056f00     c5_sl_groundvehicleDynamics.obj
 0003:0000bf68       $SG22698                   0000000180056f68     c5_sl_groundvehicleDynamics.obj
 0003:0000bf80       $SG22699                   0000000180056f80     c5_sl_groundvehicleDynamics.obj
 0003:0000bfe8       $SG22702                   0000000180056fe8     c5_sl_groundvehicleDynamics.obj
 0003:0000c000       $SG22703                   0000000180057000     c5_sl_groundvehicleDynamics.obj
 0003:0000c068       $SG22706                   0000000180057068     c5_sl_groundvehicleDynamics.obj
 0003:0000c080       $SG22707                   0000000180057080     c5_sl_groundvehicleDynamics.obj
 0003:0000c0e8       $SG22710                   00000001800570e8     c5_sl_groundvehicleDynamics.obj
 0003:0000c100       $SG22711                   0000000180057100     c5_sl_groundvehicleDynamics.obj
 0003:0000c168       $SG22714                   0000000180057168     c5_sl_groundvehicleDynamics.obj
 0003:0000c180       $SG22715                   0000000180057180     c5_sl_groundvehicleDynamics.obj
 0003:0000c1e8       $SG22718                   00000001800571e8     c5_sl_groundvehicleDynamics.obj
 0003:0000c200       $SG22719                   0000000180057200     c5_sl_groundvehicleDynamics.obj
 0003:0000c268       $SG22722                   0000000180057268     c5_sl_groundvehicleDynamics.obj
 0003:0000c280       $SG22723                   0000000180057280     c5_sl_groundvehicleDynamics.obj
 0003:0000c2e8       $SG22726                   00000001800572e8     c5_sl_groundvehicleDynamics.obj
 0003:0000c300       $SG22727                   0000000180057300     c5_sl_groundvehicleDynamics.obj
 0003:0000c368       $SG22730                   0000000180057368     c5_sl_groundvehicleDynamics.obj
 0003:0000c380       $SG22731                   0000000180057380     c5_sl_groundvehicleDynamics.obj
 0003:0000c3e8       $SG22734                   00000001800573e8     c5_sl_groundvehicleDynamics.obj
 0003:0000c400       $SG22735                   0000000180057400     c5_sl_groundvehicleDynamics.obj
 0003:0000c468       $SG22737                   0000000180057468     c5_sl_groundvehicleDynamics.obj
 0003:0000c480       $SG22738                   0000000180057480     c5_sl_groundvehicleDynamics.obj
 0003:0000c4e8       $SG22741                   00000001800574e8     c5_sl_groundvehicleDynamics.obj
 0003:0000c500       $SG22742                   0000000180057500     c5_sl_groundvehicleDynamics.obj
 0003:0000c568       $SG22744                   0000000180057568     c5_sl_groundvehicleDynamics.obj
 0003:0000c580       $SG22745                   0000000180057580     c5_sl_groundvehicleDynamics.obj
 0003:0000c5e8       $SG22747                   00000001800575e8     c5_sl_groundvehicleDynamics.obj
 0003:0000c600       $SG22748                   0000000180057600     c5_sl_groundvehicleDynamics.obj
 0003:0000c668       $SG22750                   0000000180057668     c5_sl_groundvehicleDynamics.obj
 0003:0000c680       $SG22751                   0000000180057680     c5_sl_groundvehicleDynamics.obj
 0003:0000c6e8       $SG22753                   00000001800576e8     c5_sl_groundvehicleDynamics.obj
 0003:0000c700       $SG22754                   0000000180057700     c5_sl_groundvehicleDynamics.obj
 0003:0000c768       $SG22756                   0000000180057768     c5_sl_groundvehicleDynamics.obj
 0003:0000c780       $SG22757                   0000000180057780     c5_sl_groundvehicleDynamics.obj
 0003:0000c7e8       $SG22760                   00000001800577e8     c5_sl_groundvehicleDynamics.obj
 0003:0000c800       $SG22761                   0000000180057800     c5_sl_groundvehicleDynamics.obj
 0003:0000c868       $SG22763                   0000000180057868     c5_sl_groundvehicleDynamics.obj
 0003:0000c880       $SG22764                   0000000180057880     c5_sl_groundvehicleDynamics.obj
 0003:0000c8e8       $SG22767                   00000001800578e8     c5_sl_groundvehicleDynamics.obj
 0003:0000c900       $SG22768                   0000000180057900     c5_sl_groundvehicleDynamics.obj
 0003:0000c968       $SG22770                   0000000180057968     c5_sl_groundvehicleDynamics.obj
 0003:0000c980       $SG22771                   0000000180057980     c5_sl_groundvehicleDynamics.obj
 0003:0000c9e8       $SG22774                   00000001800579e8     c5_sl_groundvehicleDynamics.obj
 0003:0000ca00       $SG22775                   0000000180057a00     c5_sl_groundvehicleDynamics.obj
 0003:0000ca68       $SG22777                   0000000180057a68     c5_sl_groundvehicleDynamics.obj
 0003:0000ca80       $SG22778                   0000000180057a80     c5_sl_groundvehicleDynamics.obj
 0003:0000cae8       $SG22781                   0000000180057ae8     c5_sl_groundvehicleDynamics.obj
 0003:0000cb00       $SG22782                   0000000180057b00     c5_sl_groundvehicleDynamics.obj
 0003:0000cb68       $SG22784                   0000000180057b68     c5_sl_groundvehicleDynamics.obj
 0003:0000cb80       $SG22785                   0000000180057b80     c5_sl_groundvehicleDynamics.obj
 0003:0000cbe8       $SG22787                   0000000180057be8     c5_sl_groundvehicleDynamics.obj
 0003:0000cc00       $SG22788                   0000000180057c00     c5_sl_groundvehicleDynamics.obj
 0003:0000cc48       $SG22791                   0000000180057c48     c5_sl_groundvehicleDynamics.obj
 0003:0000cc60       $SG22792                   0000000180057c60     c5_sl_groundvehicleDynamics.obj
 0003:0000cca8       $SG22794                   0000000180057ca8     c5_sl_groundvehicleDynamics.obj
 0003:0000ccc0       $SG22795                   0000000180057cc0     c5_sl_groundvehicleDynamics.obj
 0003:0000cd08       $SG22797                   0000000180057d08     c5_sl_groundvehicleDynamics.obj
 0003:0000cd20       $SG22798                   0000000180057d20     c5_sl_groundvehicleDynamics.obj
 0003:0000cd68       $SG22801                   0000000180057d68     c5_sl_groundvehicleDynamics.obj
 0003:0000cd80       $SG22802                   0000000180057d80     c5_sl_groundvehicleDynamics.obj
 0003:0000cdc8       $SG22804                   0000000180057dc8     c5_sl_groundvehicleDynamics.obj
 0003:0000cde0       $SG22805                   0000000180057de0     c5_sl_groundvehicleDynamics.obj
 0003:0000ce28       $SG22808                   0000000180057e28     c5_sl_groundvehicleDynamics.obj
 0003:0000ce40       $SG22809                   0000000180057e40     c5_sl_groundvehicleDynamics.obj
 0003:0000ce88       $SG22811                   0000000180057e88     c5_sl_groundvehicleDynamics.obj
 0003:0000cea0       $SG22812                   0000000180057ea0     c5_sl_groundvehicleDynamics.obj
 0003:0000cee8       $SG22815                   0000000180057ee8     c5_sl_groundvehicleDynamics.obj
 0003:0000cf00       $SG22816                   0000000180057f00     c5_sl_groundvehicleDynamics.obj
 0003:0000cf48       $SG22818                   0000000180057f48     c5_sl_groundvehicleDynamics.obj
 0003:0000cf60       $SG22819                   0000000180057f60     c5_sl_groundvehicleDynamics.obj
 0003:0000cfc8       $SG22822                   0000000180057fc8     c5_sl_groundvehicleDynamics.obj
 0003:0000cfe0       $SG22823                   0000000180057fe0     c5_sl_groundvehicleDynamics.obj
 0003:0000d048       $SG22825                   0000000180058048     c5_sl_groundvehicleDynamics.obj
 0003:0000d060       $SG22826                   0000000180058060     c5_sl_groundvehicleDynamics.obj
 0003:0000d0a8       $SG22829                   00000001800580a8     c5_sl_groundvehicleDynamics.obj
 0003:0000d0c0       $SG22830                   00000001800580c0     c5_sl_groundvehicleDynamics.obj
 0003:0000d108       $SG22832                   0000000180058108     c5_sl_groundvehicleDynamics.obj
 0003:0000d120       $SG22833                   0000000180058120     c5_sl_groundvehicleDynamics.obj
 0003:0000d168       $SG22835                   0000000180058168     c5_sl_groundvehicleDynamics.obj
 0003:0000d180       $SG22836                   0000000180058180     c5_sl_groundvehicleDynamics.obj
 0003:0000d1c8       $SG22839                   00000001800581c8     c5_sl_groundvehicleDynamics.obj
 0003:0000d1e0       $SG22840                   00000001800581e0     c5_sl_groundvehicleDynamics.obj
 0003:0000d228       $SG22842                   0000000180058228     c5_sl_groundvehicleDynamics.obj
 0003:0000d240       $SG22843                   0000000180058240     c5_sl_groundvehicleDynamics.obj
 0003:0000d288       $SG22845                   0000000180058288     c5_sl_groundvehicleDynamics.obj
 0003:0000d2a0       $SG22846                   00000001800582a0     c5_sl_groundvehicleDynamics.obj
 0003:0000d2e8       $SG22849                   00000001800582e8     c5_sl_groundvehicleDynamics.obj
 0003:0000d300       $SG22850                   0000000180058300     c5_sl_groundvehicleDynamics.obj
 0003:0000d348       $SG22852                   0000000180058348     c5_sl_groundvehicleDynamics.obj
 0003:0000d360       $SG22853                   0000000180058360     c5_sl_groundvehicleDynamics.obj
 0003:0000d3a8       $SG22856                   00000001800583a8     c5_sl_groundvehicleDynamics.obj
 0003:0000d3c0       $SG22857                   00000001800583c0     c5_sl_groundvehicleDynamics.obj
 0003:0000d408       $SG22859                   0000000180058408     c5_sl_groundvehicleDynamics.obj
 0003:0000d420       $SG22860                   0000000180058420     c5_sl_groundvehicleDynamics.obj
 0003:0000d468       $SG22863                   0000000180058468     c5_sl_groundvehicleDynamics.obj
 0003:0000d480       $SG22864                   0000000180058480     c5_sl_groundvehicleDynamics.obj
 0003:0000d4c8       $SG22867                   00000001800584c8     c5_sl_groundvehicleDynamics.obj
 0003:0000d4e0       $SG22868                   00000001800584e0     c5_sl_groundvehicleDynamics.obj
 0003:0000d528       $SG22870                   0000000180058528     c5_sl_groundvehicleDynamics.obj
 0003:0000d540       $SG22871                   0000000180058540     c5_sl_groundvehicleDynamics.obj
 0003:0000d588       $SG22874                   0000000180058588     c5_sl_groundvehicleDynamics.obj
 0003:0000d5a0       $SG22875                   00000001800585a0     c5_sl_groundvehicleDynamics.obj
 0003:0000d620       $SG22878                   0000000180058620     c5_sl_groundvehicleDynamics.obj
 0003:0000d630       $SG22879                   0000000180058630     c5_sl_groundvehicleDynamics.obj
 0003:0000d6b0       $SG22881                   00000001800586b0     c5_sl_groundvehicleDynamics.obj
 0003:0000d6c0       $SG22882                   00000001800586c0     c5_sl_groundvehicleDynamics.obj
 0003:0000d740       $SG22884                   0000000180058740     c5_sl_groundvehicleDynamics.obj
 0003:0000d760       $SG22885                   0000000180058760     c5_sl_groundvehicleDynamics.obj
 0003:0000d7a8       $SG22887                   00000001800587a8     c5_sl_groundvehicleDynamics.obj
 0003:0000d7c0       $SG22888                   00000001800587c0     c5_sl_groundvehicleDynamics.obj
 0003:0000d828       $SG22890                   0000000180058828     c5_sl_groundvehicleDynamics.obj
 0003:0000d840       $SG22891                   0000000180058840     c5_sl_groundvehicleDynamics.obj
 0003:0000d8c0       $SG22893                   00000001800588c0     c5_sl_groundvehicleDynamics.obj
 0003:0000d8e0       $SG22894                   00000001800588e0     c5_sl_groundvehicleDynamics.obj
 0003:0000d928       $SG22896                   0000000180058928     c5_sl_groundvehicleDynamics.obj
 0003:0000d940       $SG22897                   0000000180058940     c5_sl_groundvehicleDynamics.obj
 0003:0000d988       $SG22899                   0000000180058988     c5_sl_groundvehicleDynamics.obj
 0003:0000d9a0       $SG22900                   00000001800589a0     c5_sl_groundvehicleDynamics.obj
 0003:0000da08       $SG22902                   0000000180058a08     c5_sl_groundvehicleDynamics.obj
 0003:0000da20       $SG22903                   0000000180058a20     c5_sl_groundvehicleDynamics.obj
 0003:0000da68       c5_b_emlrtMCI              0000000180058a68     c5_sl_groundvehicleDynamics.obj
 0003:0000da80       c5_d_emlrtMCI              0000000180058a80     c5_sl_groundvehicleDynamics.obj
 0003:0000da98       c5_e_emlrtMCI              0000000180058a98     c5_sl_groundvehicleDynamics.obj
 0003:0000dab0       c5_g_emlrtMCI              0000000180058ab0     c5_sl_groundvehicleDynamics.obj
 0003:0000dac8       c5_h_emlrtMCI              0000000180058ac8     c5_sl_groundvehicleDynamics.obj
 0003:0000dae0       c5_i_emlrtMCI              0000000180058ae0     c5_sl_groundvehicleDynamics.obj
 0003:0000daf8       c5_j_emlrtMCI              0000000180058af8     c5_sl_groundvehicleDynamics.obj
 0003:0000db10       c5_k_emlrtMCI              0000000180058b10     c5_sl_groundvehicleDynamics.obj
 0003:0000db28       c5_l_emlrtMCI              0000000180058b28     c5_sl_groundvehicleDynamics.obj
 0003:0000db40       c5_m_emlrtMCI              0000000180058b40     c5_sl_groundvehicleDynamics.obj
 0003:0000db58       c5_n_emlrtMCI              0000000180058b58     c5_sl_groundvehicleDynamics.obj
 0003:0000db70       c5_o_emlrtMCI              0000000180058b70     c5_sl_groundvehicleDynamics.obj
 0003:0000db88       c5_p_emlrtMCI              0000000180058b88     c5_sl_groundvehicleDynamics.obj
 0003:0000dba0       c5_q_emlrtMCI              0000000180058ba0     c5_sl_groundvehicleDynamics.obj
 0003:0000dbb8       c5_r_emlrtMCI              0000000180058bb8     c5_sl_groundvehicleDynamics.obj
 0003:0000dbd0       c5_s_emlrtMCI              0000000180058bd0     c5_sl_groundvehicleDynamics.obj
 0003:0000dbe8       c5_t_emlrtMCI              0000000180058be8     c5_sl_groundvehicleDynamics.obj
 0003:0000dc00       c5_u_emlrtMCI              0000000180058c00     c5_sl_groundvehicleDynamics.obj
 0003:0000dc18       c5_w_emlrtMCI              0000000180058c18     c5_sl_groundvehicleDynamics.obj
 0003:0000dc30       c5_x_emlrtMCI              0000000180058c30     c5_sl_groundvehicleDynamics.obj
 0003:0000dc48       c5_y_emlrtMCI              0000000180058c48     c5_sl_groundvehicleDynamics.obj
 0003:0000dc60       c5_ab_emlrtMCI             0000000180058c60     c5_sl_groundvehicleDynamics.obj
 0003:0000dc78       c5_bb_emlrtMCI             0000000180058c78     c5_sl_groundvehicleDynamics.obj
 0003:0000dc90       c5_emlrtRSI                0000000180058c90     c5_sl_groundvehicleDynamics.obj
 0003:0000dca8       c5_b_emlrtRSI              0000000180058ca8     c5_sl_groundvehicleDynamics.obj
 0003:0000dcc0       c5_c_emlrtRSI              0000000180058cc0     c5_sl_groundvehicleDynamics.obj
 0003:0000dcd8       c5_d_emlrtRSI              0000000180058cd8     c5_sl_groundvehicleDynamics.obj
 0003:0000dcf0       c5_e_emlrtRSI              0000000180058cf0     c5_sl_groundvehicleDynamics.obj
 0003:0000dd08       c5_f_emlrtRSI              0000000180058d08     c5_sl_groundvehicleDynamics.obj
 0003:0000dd20       c5_g_emlrtRSI              0000000180058d20     c5_sl_groundvehicleDynamics.obj
 0003:0000dd38       c5_h_emlrtRSI              0000000180058d38     c5_sl_groundvehicleDynamics.obj
 0003:0000dd50       c5_i_emlrtRSI              0000000180058d50     c5_sl_groundvehicleDynamics.obj
 0003:0000dd68       c5_j_emlrtRSI              0000000180058d68     c5_sl_groundvehicleDynamics.obj
 0003:0000dd80       c5_k_emlrtRSI              0000000180058d80     c5_sl_groundvehicleDynamics.obj
 0003:0000dd98       c5_l_emlrtRSI              0000000180058d98     c5_sl_groundvehicleDynamics.obj
 0003:0000ddb0       c5_o_emlrtRSI              0000000180058db0     c5_sl_groundvehicleDynamics.obj
 0003:0000ddc8       c5_p_emlrtRSI              0000000180058dc8     c5_sl_groundvehicleDynamics.obj
 0003:0000dde0       c5_q_emlrtRSI              0000000180058de0     c5_sl_groundvehicleDynamics.obj
 0003:0000ddf8       c5_r_emlrtRSI              0000000180058df8     c5_sl_groundvehicleDynamics.obj
 0003:0000de10       c5_s_emlrtRSI              0000000180058e10     c5_sl_groundvehicleDynamics.obj
 0003:0000de28       c5_t_emlrtRSI              0000000180058e28     c5_sl_groundvehicleDynamics.obj
 0003:0000de40       c5_u_emlrtRSI              0000000180058e40     c5_sl_groundvehicleDynamics.obj
 0003:0000de58       c5_mb_emlrtRSI             0000000180058e58     c5_sl_groundvehicleDynamics.obj
 0003:0000de70       c5_nb_emlrtRSI             0000000180058e70     c5_sl_groundvehicleDynamics.obj
 0003:0000de88       c5_ob_emlrtRSI             0000000180058e88     c5_sl_groundvehicleDynamics.obj
 0003:0000dea0       c5_pb_emlrtRSI             0000000180058ea0     c5_sl_groundvehicleDynamics.obj
 0003:0000deb8       c5_qb_emlrtRSI             0000000180058eb8     c5_sl_groundvehicleDynamics.obj
 0003:0000ded0       c5_rb_emlrtRSI             0000000180058ed0     c5_sl_groundvehicleDynamics.obj
 0003:0000dee8       c5_sb_emlrtRSI             0000000180058ee8     c5_sl_groundvehicleDynamics.obj
 0003:0000df00       c5_tb_emlrtRSI             0000000180058f00     c5_sl_groundvehicleDynamics.obj
 0003:0000df18       c5_ub_emlrtRSI             0000000180058f18     c5_sl_groundvehicleDynamics.obj
 0003:0000df30       c5_vb_emlrtRSI             0000000180058f30     c5_sl_groundvehicleDynamics.obj
 0003:0000df48       c5_yb_emlrtRSI             0000000180058f48     c5_sl_groundvehicleDynamics.obj
 0003:0000df60       c5_ac_emlrtRSI             0000000180058f60     c5_sl_groundvehicleDynamics.obj
 0003:0000df78       c5_bc_emlrtRSI             0000000180058f78     c5_sl_groundvehicleDynamics.obj
 0003:0000df90       c5_cc_emlrtRSI             0000000180058f90     c5_sl_groundvehicleDynamics.obj
 0003:0000dfa8       c5_gc_emlrtRSI             0000000180058fa8     c5_sl_groundvehicleDynamics.obj
 0003:0000dfc0       c5_hc_emlrtRSI             0000000180058fc0     c5_sl_groundvehicleDynamics.obj
 0003:0000dfd8       c5_ic_emlrtRSI             0000000180058fd8     c5_sl_groundvehicleDynamics.obj
 0003:0000dff0       c5_jc_emlrtRSI             0000000180058ff0     c5_sl_groundvehicleDynamics.obj
 0003:0000e008       c5_kc_emlrtRSI             0000000180059008     c5_sl_groundvehicleDynamics.obj
 0003:0000e020       c5_lc_emlrtRSI             0000000180059020     c5_sl_groundvehicleDynamics.obj
 0003:0000e038       c5_mc_emlrtRSI             0000000180059038     c5_sl_groundvehicleDynamics.obj
 0003:0000e050       c5_nc_emlrtRSI             0000000180059050     c5_sl_groundvehicleDynamics.obj
 0003:0000e068       c5_oc_emlrtRSI             0000000180059068     c5_sl_groundvehicleDynamics.obj
 0003:0000e080       c5_pc_emlrtRSI             0000000180059080     c5_sl_groundvehicleDynamics.obj
 0003:0000e098       c5_qc_emlrtRSI             0000000180059098     c5_sl_groundvehicleDynamics.obj
 0003:0000e0b0       c5_uc_emlrtRSI             00000001800590b0     c5_sl_groundvehicleDynamics.obj
 0003:0000e0c8       c5_vc_emlrtRSI             00000001800590c8     c5_sl_groundvehicleDynamics.obj
 0003:0000e0e0       c5_wc_emlrtRSI             00000001800590e0     c5_sl_groundvehicleDynamics.obj
 0003:0000e0f8       c5_xc_emlrtRSI             00000001800590f8     c5_sl_groundvehicleDynamics.obj
 0003:0000e110       c5_yc_emlrtRSI             0000000180059110     c5_sl_groundvehicleDynamics.obj
 0003:0000e128       c5_ad_emlrtRSI             0000000180059128     c5_sl_groundvehicleDynamics.obj
 0003:0000e140       c5_bd_emlrtRSI             0000000180059140     c5_sl_groundvehicleDynamics.obj
 0003:0000e158       c5_cd_emlrtRSI             0000000180059158     c5_sl_groundvehicleDynamics.obj
 0003:0000e170       c5_dd_emlrtRSI             0000000180059170     c5_sl_groundvehicleDynamics.obj
 0003:0000e188       c5_ed_emlrtRSI             0000000180059188     c5_sl_groundvehicleDynamics.obj
 0003:0000e1a0       c5_fd_emlrtRSI             00000001800591a0     c5_sl_groundvehicleDynamics.obj
 0003:0000e1b8       c5_gd_emlrtRSI             00000001800591b8     c5_sl_groundvehicleDynamics.obj
 0003:0000e1d0       c5_hd_emlrtRSI             00000001800591d0     c5_sl_groundvehicleDynamics.obj
 0003:0000e1e8       c5_id_emlrtRSI             00000001800591e8     c5_sl_groundvehicleDynamics.obj
 0003:0000e200       c5_jd_emlrtRSI             0000000180059200     c5_sl_groundvehicleDynamics.obj
 0003:0000e218       c5_kd_emlrtRSI             0000000180059218     c5_sl_groundvehicleDynamics.obj
 0003:0000e230       c5_ld_emlrtRSI             0000000180059230     c5_sl_groundvehicleDynamics.obj
 0003:0000e248       c5_md_emlrtRSI             0000000180059248     c5_sl_groundvehicleDynamics.obj
 0003:0000e260       c5_nd_emlrtRSI             0000000180059260     c5_sl_groundvehicleDynamics.obj
 0003:0000e278       c5_od_emlrtRSI             0000000180059278     c5_sl_groundvehicleDynamics.obj
 0003:0000e290       c5_pd_emlrtRSI             0000000180059290     c5_sl_groundvehicleDynamics.obj
 0003:0000e2a8       c5_qd_emlrtRSI             00000001800592a8     c5_sl_groundvehicleDynamics.obj
 0003:0000e2c0       c5_rd_emlrtRSI             00000001800592c0     c5_sl_groundvehicleDynamics.obj
 0003:0000e2d8       c5_sd_emlrtRSI             00000001800592d8     c5_sl_groundvehicleDynamics.obj
 0003:0000e2f0       c5_td_emlrtRSI             00000001800592f0     c5_sl_groundvehicleDynamics.obj
 0003:0000e308       c5_ud_emlrtRSI             0000000180059308     c5_sl_groundvehicleDynamics.obj
 0003:0000e320       c5_vd_emlrtRSI             0000000180059320     c5_sl_groundvehicleDynamics.obj
 0003:0000e338       c5_wd_emlrtRSI             0000000180059338     c5_sl_groundvehicleDynamics.obj
 0003:0000e350       c5_xd_emlrtRSI             0000000180059350     c5_sl_groundvehicleDynamics.obj
 0003:0000e368       c5_yd_emlrtRSI             0000000180059368     c5_sl_groundvehicleDynamics.obj
 0003:0000e380       c5_ae_emlrtRSI             0000000180059380     c5_sl_groundvehicleDynamics.obj
 0003:0000e398       c5_be_emlrtRSI             0000000180059398     c5_sl_groundvehicleDynamics.obj
 0003:0000e3b0       c5_ce_emlrtRSI             00000001800593b0     c5_sl_groundvehicleDynamics.obj
 0003:0000e3c8       c5_de_emlrtRSI             00000001800593c8     c5_sl_groundvehicleDynamics.obj
 0003:0000e3e0       c5_ee_emlrtRSI             00000001800593e0     c5_sl_groundvehicleDynamics.obj
 0003:0000e3f8       c5_fe_emlrtRSI             00000001800593f8     c5_sl_groundvehicleDynamics.obj
 0003:0000e410       c5_ge_emlrtRSI             0000000180059410     c5_sl_groundvehicleDynamics.obj
 0003:0000e428       c5_he_emlrtRSI             0000000180059428     c5_sl_groundvehicleDynamics.obj
 0003:0000e440       c5_ie_emlrtRSI             0000000180059440     c5_sl_groundvehicleDynamics.obj
 0003:0000e458       c5_je_emlrtRSI             0000000180059458     c5_sl_groundvehicleDynamics.obj
 0003:0000e470       c5_ke_emlrtRSI             0000000180059470     c5_sl_groundvehicleDynamics.obj
 0003:0000e488       c5_le_emlrtRSI             0000000180059488     c5_sl_groundvehicleDynamics.obj
 0003:0000e4a0       c5_me_emlrtRSI             00000001800594a0     c5_sl_groundvehicleDynamics.obj
 0003:0000e4b8       c5_ne_emlrtRSI             00000001800594b8     c5_sl_groundvehicleDynamics.obj
 0003:0000e4d0       c5_we_emlrtRSI             00000001800594d0     c5_sl_groundvehicleDynamics.obj
 0003:0000e4e8       c5_xe_emlrtRSI             00000001800594e8     c5_sl_groundvehicleDynamics.obj
 0003:0000e500       c5_ye_emlrtRSI             0000000180059500     c5_sl_groundvehicleDynamics.obj
 0003:0000e518       c5_af_emlrtRSI             0000000180059518     c5_sl_groundvehicleDynamics.obj
 0003:0000e530       c5_bf_emlrtRSI             0000000180059530     c5_sl_groundvehicleDynamics.obj
 0003:0000e548       c5_cf_emlrtRSI             0000000180059548     c5_sl_groundvehicleDynamics.obj
 0003:0000e560       c5_df_emlrtRSI             0000000180059560     c5_sl_groundvehicleDynamics.obj
 0003:0000e578       c5_ef_emlrtRSI             0000000180059578     c5_sl_groundvehicleDynamics.obj
 0003:0000e590       c5_ff_emlrtRSI             0000000180059590     c5_sl_groundvehicleDynamics.obj
 0003:0000e5a8       c5_gf_emlrtRSI             00000001800595a8     c5_sl_groundvehicleDynamics.obj
 0003:0000e5c0       c5_hf_emlrtRSI             00000001800595c0     c5_sl_groundvehicleDynamics.obj
 0003:0000e5d8       c5_if_emlrtRSI             00000001800595d8     c5_sl_groundvehicleDynamics.obj
 0003:0000e5f0       c5_jf_emlrtRSI             00000001800595f0     c5_sl_groundvehicleDynamics.obj
 0003:0000e608       c5_kf_emlrtRSI             0000000180059608     c5_sl_groundvehicleDynamics.obj
 0003:0000e620       c5_lf_emlrtRSI             0000000180059620     c5_sl_groundvehicleDynamics.obj
 0003:0000e638       c5_mf_emlrtRSI             0000000180059638     c5_sl_groundvehicleDynamics.obj
 0003:0000e650       c5_nf_emlrtRSI             0000000180059650     c5_sl_groundvehicleDynamics.obj
 0003:0000e668       c5_of_emlrtRSI             0000000180059668     c5_sl_groundvehicleDynamics.obj
 0003:0000e680       c5_pf_emlrtRSI             0000000180059680     c5_sl_groundvehicleDynamics.obj
 0003:0000e698       c5_qf_emlrtRSI             0000000180059698     c5_sl_groundvehicleDynamics.obj
 0003:0000e6b0       c5_rf_emlrtRSI             00000001800596b0     c5_sl_groundvehicleDynamics.obj
 0003:0000e6c8       c5_sf_emlrtRSI             00000001800596c8     c5_sl_groundvehicleDynamics.obj
 0003:0000e6e0       c5_tf_emlrtRSI             00000001800596e0     c5_sl_groundvehicleDynamics.obj
 0003:0000e6f8       c5_uf_emlrtRSI             00000001800596f8     c5_sl_groundvehicleDynamics.obj
 0003:0000e710       c5_vf_emlrtRSI             0000000180059710     c5_sl_groundvehicleDynamics.obj
 0003:0000e728       c5_wf_emlrtRSI             0000000180059728     c5_sl_groundvehicleDynamics.obj
 0003:0000e740       c5_xf_emlrtRSI             0000000180059740     c5_sl_groundvehicleDynamics.obj
 0003:0000e758       c5_yf_emlrtRSI             0000000180059758     c5_sl_groundvehicleDynamics.obj
 0003:0000e770       c5_ag_emlrtRSI             0000000180059770     c5_sl_groundvehicleDynamics.obj
 0003:0000e788       c5_bg_emlrtRSI             0000000180059788     c5_sl_groundvehicleDynamics.obj
 0003:0000e7a0       c5_cg_emlrtRSI             00000001800597a0     c5_sl_groundvehicleDynamics.obj
 0003:0000e7b8       c5_fg_emlrtRSI             00000001800597b8     c5_sl_groundvehicleDynamics.obj
 0003:0000e7d0       c5_gg_emlrtRSI             00000001800597d0     c5_sl_groundvehicleDynamics.obj
 0003:0000e7e8       c5_hg_emlrtRSI             00000001800597e8     c5_sl_groundvehicleDynamics.obj
 0003:0000e800       c5_ig_emlrtRSI             0000000180059800     c5_sl_groundvehicleDynamics.obj
 0003:0000e818       c5_jg_emlrtRSI             0000000180059818     c5_sl_groundvehicleDynamics.obj
 0003:0000e830       c5_kg_emlrtRSI             0000000180059830     c5_sl_groundvehicleDynamics.obj
 0003:0000e848       c5_lg_emlrtRSI             0000000180059848     c5_sl_groundvehicleDynamics.obj
 0003:0000e860       c5_mg_emlrtRSI             0000000180059860     c5_sl_groundvehicleDynamics.obj
 0003:0000e878       c5_ng_emlrtRSI             0000000180059878     c5_sl_groundvehicleDynamics.obj
 0003:0000e890       c5_og_emlrtRSI             0000000180059890     c5_sl_groundvehicleDynamics.obj
 0003:0000e8a8       c5_pg_emlrtRSI             00000001800598a8     c5_sl_groundvehicleDynamics.obj
 0003:0000e8c0       c5_qg_emlrtRSI             00000001800598c0     c5_sl_groundvehicleDynamics.obj
 0003:0000e8d8       c5_rg_emlrtRSI             00000001800598d8     c5_sl_groundvehicleDynamics.obj
 0003:0000e8f0       c5_sg_emlrtRSI             00000001800598f0     c5_sl_groundvehicleDynamics.obj
 0003:0000e908       c5_tg_emlrtRSI             0000000180059908     c5_sl_groundvehicleDynamics.obj
 0003:0000e920       c5_ug_emlrtRSI             0000000180059920     c5_sl_groundvehicleDynamics.obj
 0003:0000e938       c5_vg_emlrtRSI             0000000180059938     c5_sl_groundvehicleDynamics.obj
 0003:0000e950       c5_wg_emlrtRSI             0000000180059950     c5_sl_groundvehicleDynamics.obj
 0003:0000e968       c5_xg_emlrtRSI             0000000180059968     c5_sl_groundvehicleDynamics.obj
 0003:0000e980       c5_yg_emlrtRSI             0000000180059980     c5_sl_groundvehicleDynamics.obj
 0003:0000e998       c5_ah_emlrtRSI             0000000180059998     c5_sl_groundvehicleDynamics.obj
 0003:0000e9b0       c5_bh_emlrtRSI             00000001800599b0     c5_sl_groundvehicleDynamics.obj
 0003:0000e9c8       c5_ch_emlrtRSI             00000001800599c8     c5_sl_groundvehicleDynamics.obj
 0003:0000e9e0       c5_emlrtRTEI               00000001800599e0     c5_sl_groundvehicleDynamics.obj
 0003:0000e9f8       c5_b_emlrtRTEI             00000001800599f8     c5_sl_groundvehicleDynamics.obj
 0003:0000ea10       c5_c_emlrtRTEI             0000000180059a10     c5_sl_groundvehicleDynamics.obj
 0003:0000ea28       c5_d_emlrtRTEI             0000000180059a28     c5_sl_groundvehicleDynamics.obj
 0003:0000ea40       c5_e_emlrtRTEI             0000000180059a40     c5_sl_groundvehicleDynamics.obj
 0003:0000ea58       c5_f_emlrtRTEI             0000000180059a58     c5_sl_groundvehicleDynamics.obj
 0003:0000ea70       c5_g_emlrtRTEI             0000000180059a70     c5_sl_groundvehicleDynamics.obj
 0003:0000ea88       c5_h_emlrtRTEI             0000000180059a88     c5_sl_groundvehicleDynamics.obj
 0003:0000eaa0       c5_i_emlrtRTEI             0000000180059aa0     c5_sl_groundvehicleDynamics.obj
 0003:0000eab8       c5_j_emlrtRTEI             0000000180059ab8     c5_sl_groundvehicleDynamics.obj
 0003:0000ead0       c5_k_emlrtRTEI             0000000180059ad0     c5_sl_groundvehicleDynamics.obj
 0003:0000eae8       c5_ab_emlrtRTEI            0000000180059ae8     c5_sl_groundvehicleDynamics.obj
 0003:0000eb00       c5_jb_emlrtRTEI            0000000180059b00     c5_sl_groundvehicleDynamics.obj
 0003:0000eb18       c5_kb_emlrtRTEI            0000000180059b18     c5_sl_groundvehicleDynamics.obj
 0003:0000eb30       c5_lb_emlrtRTEI            0000000180059b30     c5_sl_groundvehicleDynamics.obj
 0003:0000eb48       c5_mb_emlrtRTEI            0000000180059b48     c5_sl_groundvehicleDynamics.obj
 0003:0000eb60       c5_nb_emlrtRTEI            0000000180059b60     c5_sl_groundvehicleDynamics.obj
 0003:0000eb78       c5_ob_emlrtRTEI            0000000180059b78     c5_sl_groundvehicleDynamics.obj
 0003:0000eb90       c5_rb_emlrtRTEI            0000000180059b90     c5_sl_groundvehicleDynamics.obj
 0003:0000eba8       c5_sb_emlrtRTEI            0000000180059ba8     c5_sl_groundvehicleDynamics.obj
 0003:0000ebc0       c5_tb_emlrtRTEI            0000000180059bc0     c5_sl_groundvehicleDynamics.obj
 0003:0000ebd8       c5_ub_emlrtRTEI            0000000180059bd8     c5_sl_groundvehicleDynamics.obj
 0003:0000ebf0       c5_vb_emlrtRTEI            0000000180059bf0     c5_sl_groundvehicleDynamics.obj
 0003:0000ec08       c5_wb_emlrtRTEI            0000000180059c08     c5_sl_groundvehicleDynamics.obj
 0003:0000ec20       c5_xb_emlrtRTEI            0000000180059c20     c5_sl_groundvehicleDynamics.obj
 0003:0000ec38       c5_yb_emlrtRTEI            0000000180059c38     c5_sl_groundvehicleDynamics.obj
 0003:0000ec50       c5_ac_emlrtRTEI            0000000180059c50     c5_sl_groundvehicleDynamics.obj
 0003:0000ec68       c5_bc_emlrtRTEI            0000000180059c68     c5_sl_groundvehicleDynamics.obj
 0003:0000ec80       c5_cc_emlrtRTEI            0000000180059c80     c5_sl_groundvehicleDynamics.obj
 0003:0000ec98       c5_dc_emlrtRTEI            0000000180059c98     c5_sl_groundvehicleDynamics.obj
 0003:0000ecb0       c5_ec_emlrtRTEI            0000000180059cb0     c5_sl_groundvehicleDynamics.obj
 0003:0000ecc8       c5_fc_emlrtRTEI            0000000180059cc8     c5_sl_groundvehicleDynamics.obj
 0003:0000ece0       c5_gc_emlrtRTEI            0000000180059ce0     c5_sl_groundvehicleDynamics.obj
 0003:0000ecf8       c5_hc_emlrtRTEI            0000000180059cf8     c5_sl_groundvehicleDynamics.obj
 0003:0000ed10       c5_ic_emlrtRTEI            0000000180059d10     c5_sl_groundvehicleDynamics.obj
 0003:0000ed28       c5_jc_emlrtRTEI            0000000180059d28     c5_sl_groundvehicleDynamics.obj
 0003:0000ed40       c5_kc_emlrtRTEI            0000000180059d40     c5_sl_groundvehicleDynamics.obj
 0003:0000ed58       c5_lc_emlrtRTEI            0000000180059d58     c5_sl_groundvehicleDynamics.obj
 0003:0000ed70       c5_mc_emlrtRTEI            0000000180059d70     c5_sl_groundvehicleDynamics.obj
 0003:0000ed88       c5_nc_emlrtRTEI            0000000180059d88     c5_sl_groundvehicleDynamics.obj
 0003:0000eda0       c5_oc_emlrtRTEI            0000000180059da0     c5_sl_groundvehicleDynamics.obj
 0003:0000edb8       c5_pc_emlrtRTEI            0000000180059db8     c5_sl_groundvehicleDynamics.obj
 0003:0000edd0       c5_qc_emlrtRTEI            0000000180059dd0     c5_sl_groundvehicleDynamics.obj
 0003:0000ede8       c5_rc_emlrtRTEI            0000000180059de8     c5_sl_groundvehicleDynamics.obj
 0003:0000ee00       c5_sc_emlrtRTEI            0000000180059e00     c5_sl_groundvehicleDynamics.obj
 0003:0000ee18       c5_tc_emlrtRTEI            0000000180059e18     c5_sl_groundvehicleDynamics.obj
 0003:0000ee30       c5_uc_emlrtRTEI            0000000180059e30     c5_sl_groundvehicleDynamics.obj
 0003:0000ee48       c5_vc_emlrtRTEI            0000000180059e48     c5_sl_groundvehicleDynamics.obj
 0003:0000ee60       c5_wc_emlrtRTEI            0000000180059e60     c5_sl_groundvehicleDynamics.obj
 0003:0000ee78       c5_xc_emlrtRTEI            0000000180059e78     c5_sl_groundvehicleDynamics.obj
 0003:0000ee90       c5_emlrtBCI                0000000180059e90     c5_sl_groundvehicleDynamics.obj
 0003:0000eec0       c5_b_emlrtBCI              0000000180059ec0     c5_sl_groundvehicleDynamics.obj
 0003:0000eef0       c5_emlrtDCI                0000000180059ef0     c5_sl_groundvehicleDynamics.obj
 0003:0000ef10       c5_c_emlrtBCI              0000000180059f10     c5_sl_groundvehicleDynamics.obj
 0003:0000ef40       c5_b_emlrtDCI              0000000180059f40     c5_sl_groundvehicleDynamics.obj
 0003:0000ef60       c5_d_emlrtBCI              0000000180059f60     c5_sl_groundvehicleDynamics.obj
 0003:0000ef90       c5_c_emlrtDCI              0000000180059f90     c5_sl_groundvehicleDynamics.obj
 0003:0000efb0       c5_e_emlrtBCI              0000000180059fb0     c5_sl_groundvehicleDynamics.obj
 0003:0000efe0       c5_d_emlrtDCI              0000000180059fe0     c5_sl_groundvehicleDynamics.obj
 0003:0000f000       c5_f_emlrtBCI              000000018005a000     c5_sl_groundvehicleDynamics.obj
 0003:0000f030       c5_e_emlrtDCI              000000018005a030     c5_sl_groundvehicleDynamics.obj
 0003:0000f050       c5_g_emlrtBCI              000000018005a050     c5_sl_groundvehicleDynamics.obj
 0003:0000f080       c5_f_emlrtDCI              000000018005a080     c5_sl_groundvehicleDynamics.obj
 0003:0000f0a0       c5_h_emlrtBCI              000000018005a0a0     c5_sl_groundvehicleDynamics.obj
 0003:0000f0d0       c5_g_emlrtDCI              000000018005a0d0     c5_sl_groundvehicleDynamics.obj
 0003:0000f0f0       c5_i_emlrtBCI              000000018005a0f0     c5_sl_groundvehicleDynamics.obj
 0003:0000f120       c5_h_emlrtDCI              000000018005a120     c5_sl_groundvehicleDynamics.obj
 0003:0000f140       c5_j_emlrtBCI              000000018005a140     c5_sl_groundvehicleDynamics.obj
 0003:0000f170       c5_i_emlrtDCI              000000018005a170     c5_sl_groundvehicleDynamics.obj
 0003:0000f190       c5_k_emlrtBCI              000000018005a190     c5_sl_groundvehicleDynamics.obj
 0003:0000f1c0       c5_j_emlrtDCI              000000018005a1c0     c5_sl_groundvehicleDynamics.obj
 0003:0000f1e0       c5_emlrtECI                000000018005a1e0     c5_sl_groundvehicleDynamics.obj
 0003:0000f200       c5_b_emlrtECI              000000018005a200     c5_sl_groundvehicleDynamics.obj
 0003:0000f220       c5_l_emlrtBCI              000000018005a220     c5_sl_groundvehicleDynamics.obj
 0003:0000f250       c5_m_emlrtBCI              000000018005a250     c5_sl_groundvehicleDynamics.obj
 0003:0000f280       c5_n_emlrtBCI              000000018005a280     c5_sl_groundvehicleDynamics.obj
 0003:0000f2b0       c5_k_emlrtDCI              000000018005a2b0     c5_sl_groundvehicleDynamics.obj
 0003:0000f2d0       c5_o_emlrtBCI              000000018005a2d0     c5_sl_groundvehicleDynamics.obj
 0003:0000f300       c5_l_emlrtDCI              000000018005a300     c5_sl_groundvehicleDynamics.obj
 0003:0000f320       c5_p_emlrtBCI              000000018005a320     c5_sl_groundvehicleDynamics.obj
 0003:0000f350       c5_m_emlrtDCI              000000018005a350     c5_sl_groundvehicleDynamics.obj
 0003:0000f370       c5_q_emlrtBCI              000000018005a370     c5_sl_groundvehicleDynamics.obj
 0003:0000f3a0       c5_n_emlrtDCI              000000018005a3a0     c5_sl_groundvehicleDynamics.obj
 0003:0000f3c0       c5_r_emlrtBCI              000000018005a3c0     c5_sl_groundvehicleDynamics.obj
 0003:0000f3f0       c5_o_emlrtDCI              000000018005a3f0     c5_sl_groundvehicleDynamics.obj
 0003:0000f410       c5_s_emlrtBCI              000000018005a410     c5_sl_groundvehicleDynamics.obj
 0003:0000f440       c5_t_emlrtBCI              000000018005a440     c5_sl_groundvehicleDynamics.obj
 0003:0000f470       c5_u_emlrtBCI              000000018005a470     c5_sl_groundvehicleDynamics.obj
 0003:0000f4a0       c5_v_emlrtBCI              000000018005a4a0     c5_sl_groundvehicleDynamics.obj
 0003:0000f4d0       c5_p_emlrtDCI              000000018005a4d0     c5_sl_groundvehicleDynamics.obj
 0003:0000f4f0       c5_w_emlrtBCI              000000018005a4f0     c5_sl_groundvehicleDynamics.obj
 0003:0000f520       c5_q_emlrtDCI              000000018005a520     c5_sl_groundvehicleDynamics.obj
 0003:0000f540       c5_x_emlrtBCI              000000018005a540     c5_sl_groundvehicleDynamics.obj
 0003:0000f570       c5_y_emlrtBCI              000000018005a570     c5_sl_groundvehicleDynamics.obj
 0003:0000f5a0       c5_ab_emlrtBCI             000000018005a5a0     c5_sl_groundvehicleDynamics.obj
 0003:0000f5d0       c5_bb_emlrtBCI             000000018005a5d0     c5_sl_groundvehicleDynamics.obj
 0003:0000f600       c5_cb_emlrtBCI             000000018005a600     c5_sl_groundvehicleDynamics.obj
 0003:0000f630       c5_db_emlrtBCI             000000018005a630     c5_sl_groundvehicleDynamics.obj
 0003:0000f660       c5_eb_emlrtBCI             000000018005a660     c5_sl_groundvehicleDynamics.obj
 0003:0000f690       c5_fb_emlrtBCI             000000018005a690     c5_sl_groundvehicleDynamics.obj
 0003:0000f6c0       c5_gb_emlrtBCI             000000018005a6c0     c5_sl_groundvehicleDynamics.obj
 0003:0000f6f0       c5_hb_emlrtBCI             000000018005a6f0     c5_sl_groundvehicleDynamics.obj
 0003:0000f720       c5_ib_emlrtBCI             000000018005a720     c5_sl_groundvehicleDynamics.obj
 0003:0000f750       c5_jb_emlrtBCI             000000018005a750     c5_sl_groundvehicleDynamics.obj
 0003:0000f780       c5_kb_emlrtBCI             000000018005a780     c5_sl_groundvehicleDynamics.obj
 0003:0000f7b0       c5_lb_emlrtBCI             000000018005a7b0     c5_sl_groundvehicleDynamics.obj
 0003:0000f7e0       c5_mb_emlrtBCI             000000018005a7e0     c5_sl_groundvehicleDynamics.obj
 0003:0000f810       c5_nb_emlrtBCI             000000018005a810     c5_sl_groundvehicleDynamics.obj
 0003:0000f840       c5_ob_emlrtBCI             000000018005a840     c5_sl_groundvehicleDynamics.obj
 0003:0000f870       c5_r_emlrtDCI              000000018005a870     c5_sl_groundvehicleDynamics.obj
 0003:0000f890       c5_pb_emlrtBCI             000000018005a890     c5_sl_groundvehicleDynamics.obj
 0003:0000f8c0       c5_c_emlrtECI              000000018005a8c0     c5_sl_groundvehicleDynamics.obj
 0003:0000f8e0       c5_s_emlrtDCI              000000018005a8e0     c5_sl_groundvehicleDynamics.obj
 0003:0000f900       c5_qb_emlrtBCI             000000018005a900     c5_sl_groundvehicleDynamics.obj
 0003:0000f930       c5_d_emlrtECI              000000018005a930     c5_sl_groundvehicleDynamics.obj
 0003:0000f950       c5_t_emlrtDCI              000000018005a950     c5_sl_groundvehicleDynamics.obj
 0003:0000f970       c5_rb_emlrtBCI             000000018005a970     c5_sl_groundvehicleDynamics.obj
 0003:0000f9a0       c5_u_emlrtDCI              000000018005a9a0     c5_sl_groundvehicleDynamics.obj
 0003:0000f9c0       c5_sb_emlrtBCI             000000018005a9c0     c5_sl_groundvehicleDynamics.obj
 0003:0000f9f0       c5_tb_emlrtBCI             000000018005a9f0     c5_sl_groundvehicleDynamics.obj
 0003:0000fa20       c5_v_emlrtDCI              000000018005aa20     c5_sl_groundvehicleDynamics.obj
 0003:0000fa40       c5_ub_emlrtBCI             000000018005aa40     c5_sl_groundvehicleDynamics.obj
 0003:0000fa70       c5_w_emlrtDCI              000000018005aa70     c5_sl_groundvehicleDynamics.obj
 0003:0000fa90       c5_vb_emlrtBCI             000000018005aa90     c5_sl_groundvehicleDynamics.obj
 0003:0000fac0       c5_x_emlrtDCI              000000018005aac0     c5_sl_groundvehicleDynamics.obj
 0003:0000fae0       c5_wb_emlrtBCI             000000018005aae0     c5_sl_groundvehicleDynamics.obj
 0003:0000fb10       c5_y_emlrtDCI              000000018005ab10     c5_sl_groundvehicleDynamics.obj
 0003:0000fb30       c5_xb_emlrtBCI             000000018005ab30     c5_sl_groundvehicleDynamics.obj
 0003:0000fb60       c5_ab_emlrtDCI             000000018005ab60     c5_sl_groundvehicleDynamics.obj
 0003:0000fb80       c5_yb_emlrtBCI             000000018005ab80     c5_sl_groundvehicleDynamics.obj
 0003:0000fbb0       c5_ac_emlrtBCI             000000018005abb0     c5_sl_groundvehicleDynamics.obj
 0003:0000fbe0       c5_bb_emlrtDCI             000000018005abe0     c5_sl_groundvehicleDynamics.obj
 0003:0000fc00       c5_bc_emlrtBCI             000000018005ac00     c5_sl_groundvehicleDynamics.obj
 0003:0000fc30       c5_cc_emlrtBCI             000000018005ac30     c5_sl_groundvehicleDynamics.obj
 0003:0000fc60       c5_cb_emlrtDCI             000000018005ac60     c5_sl_groundvehicleDynamics.obj
 0003:0000fc80       c5_dc_emlrtBCI             000000018005ac80     c5_sl_groundvehicleDynamics.obj
 0003:0000fcb0       c5_ec_emlrtBCI             000000018005acb0     c5_sl_groundvehicleDynamics.obj
 0003:0000fce0       c5_db_emlrtDCI             000000018005ace0     c5_sl_groundvehicleDynamics.obj
 0003:0000fd00       c5_fc_emlrtBCI             000000018005ad00     c5_sl_groundvehicleDynamics.obj
 0003:0000fd30       c5_gc_emlrtBCI             000000018005ad30     c5_sl_groundvehicleDynamics.obj
 0003:0000fd60       c5_eb_emlrtDCI             000000018005ad60     c5_sl_groundvehicleDynamics.obj
 0003:0000fd80       c5_hc_emlrtBCI             000000018005ad80     c5_sl_groundvehicleDynamics.obj
 0003:0000fdb0       c5_fb_emlrtDCI             000000018005adb0     c5_sl_groundvehicleDynamics.obj
 0003:0000fdd0       c5_ic_emlrtBCI             000000018005add0     c5_sl_groundvehicleDynamics.obj
 0003:0000fe00       c5_gb_emlrtDCI             000000018005ae00     c5_sl_groundvehicleDynamics.obj
 0003:0000fe20       c5_jc_emlrtBCI             000000018005ae20     c5_sl_groundvehicleDynamics.obj
 0003:0000fe50       c5_hb_emlrtDCI             000000018005ae50     c5_sl_groundvehicleDynamics.obj
 0003:0000fe70       c5_ib_emlrtDCI             000000018005ae70     c5_sl_groundvehicleDynamics.obj
 0003:0000fe90       c5_jb_emlrtDCI             000000018005ae90     c5_sl_groundvehicleDynamics.obj
 0003:0000feb0       c5_kc_emlrtBCI             000000018005aeb0     c5_sl_groundvehicleDynamics.obj
 0003:0000fee0       c5_kb_emlrtDCI             000000018005aee0     c5_sl_groundvehicleDynamics.obj
 0003:0000ff00       c5_lc_emlrtBCI             000000018005af00     c5_sl_groundvehicleDynamics.obj
 0003:0000ff30       c5_lb_emlrtDCI             000000018005af30     c5_sl_groundvehicleDynamics.obj
 0003:0000ff50       c5_mc_emlrtBCI             000000018005af50     c5_sl_groundvehicleDynamics.obj
 0003:0000ff80       c5_mb_emlrtDCI             000000018005af80     c5_sl_groundvehicleDynamics.obj
 0003:0000ffa0       c5_nc_emlrtBCI             000000018005afa0     c5_sl_groundvehicleDynamics.obj
 0003:0000ffd0       c5_nb_emlrtDCI             000000018005afd0     c5_sl_groundvehicleDynamics.obj
 0003:0000fff0       c5_oc_emlrtBCI             000000018005aff0     c5_sl_groundvehicleDynamics.obj
 0003:00010020       c5_ob_emlrtDCI             000000018005b020     c5_sl_groundvehicleDynamics.obj
 0003:00010040       c5_pc_emlrtBCI             000000018005b040     c5_sl_groundvehicleDynamics.obj
 0003:00010070       c5_pb_emlrtDCI             000000018005b070     c5_sl_groundvehicleDynamics.obj
 0003:00010090       c5_qc_emlrtBCI             000000018005b090     c5_sl_groundvehicleDynamics.obj
 0003:000100c0       c5_qb_emlrtDCI             000000018005b0c0     c5_sl_groundvehicleDynamics.obj
 0003:000100e0       c5_rc_emlrtBCI             000000018005b0e0     c5_sl_groundvehicleDynamics.obj
 0003:00010110       c5_rb_emlrtDCI             000000018005b110     c5_sl_groundvehicleDynamics.obj
 0003:00010130       c5_sc_emlrtBCI             000000018005b130     c5_sl_groundvehicleDynamics.obj
 0003:00010160       c5_sb_emlrtDCI             000000018005b160     c5_sl_groundvehicleDynamics.obj
 0003:00010180       c5_tc_emlrtBCI             000000018005b180     c5_sl_groundvehicleDynamics.obj
 0003:000101b0       c5_tb_emlrtDCI             000000018005b1b0     c5_sl_groundvehicleDynamics.obj
 0003:000101d0       c5_uc_emlrtBCI             000000018005b1d0     c5_sl_groundvehicleDynamics.obj
 0003:00010200       c5_vc_emlrtBCI             000000018005b200     c5_sl_groundvehicleDynamics.obj
 0003:00010230       c5_wc_emlrtBCI             000000018005b230     c5_sl_groundvehicleDynamics.obj
 0003:00010260       c5_xc_emlrtBCI             000000018005b260     c5_sl_groundvehicleDynamics.obj
 0003:00010290       c5_yc_emlrtBCI             000000018005b290     c5_sl_groundvehicleDynamics.obj
 0003:000102c0       c5_ub_emlrtDCI             000000018005b2c0     c5_sl_groundvehicleDynamics.obj
 0003:000102e0       c5_ad_emlrtBCI             000000018005b2e0     c5_sl_groundvehicleDynamics.obj
 0003:00010310       c5_bd_emlrtBCI             000000018005b310     c5_sl_groundvehicleDynamics.obj
 0003:00010340       c5_cd_emlrtBCI             000000018005b340     c5_sl_groundvehicleDynamics.obj
 0003:00010370       c5_dd_emlrtBCI             000000018005b370     c5_sl_groundvehicleDynamics.obj
 0003:000103a0       c5_ed_emlrtBCI             000000018005b3a0     c5_sl_groundvehicleDynamics.obj
 0003:000103d0       c5_fd_emlrtBCI             000000018005b3d0     c5_sl_groundvehicleDynamics.obj
 0003:00010400       c5_gd_emlrtBCI             000000018005b400     c5_sl_groundvehicleDynamics.obj
 0003:00010430       c5_hd_emlrtBCI             000000018005b430     c5_sl_groundvehicleDynamics.obj
 0003:00010460       c5_id_emlrtBCI             000000018005b460     c5_sl_groundvehicleDynamics.obj
 0003:00010490       c5_jd_emlrtBCI             000000018005b490     c5_sl_groundvehicleDynamics.obj
 0003:000104c0       c5_kd_emlrtBCI             000000018005b4c0     c5_sl_groundvehicleDynamics.obj
 0003:000104f0       c5_ld_emlrtBCI             000000018005b4f0     c5_sl_groundvehicleDynamics.obj
 0003:00010520       c5_md_emlrtBCI             000000018005b520     c5_sl_groundvehicleDynamics.obj
 0003:00010550       c5_nd_emlrtBCI             000000018005b550     c5_sl_groundvehicleDynamics.obj
 0003:00010580       c5_od_emlrtBCI             000000018005b580     c5_sl_groundvehicleDynamics.obj
 0003:000105b0       c5_pd_emlrtBCI             000000018005b5b0     c5_sl_groundvehicleDynamics.obj
 0003:000105e0       c5_qd_emlrtBCI             000000018005b5e0     c5_sl_groundvehicleDynamics.obj
 0003:00010610       c5_rd_emlrtBCI             000000018005b610     c5_sl_groundvehicleDynamics.obj
 0003:00010640       c5_sd_emlrtBCI             000000018005b640     c5_sl_groundvehicleDynamics.obj
 0003:00010670       c5_td_emlrtBCI             000000018005b670     c5_sl_groundvehicleDynamics.obj
 0003:000106a0       c5_ud_emlrtBCI             000000018005b6a0     c5_sl_groundvehicleDynamics.obj
 0003:000106d0       c5_vd_emlrtBCI             000000018005b6d0     c5_sl_groundvehicleDynamics.obj
 0003:00010700       c5_wd_emlrtBCI             000000018005b700     c5_sl_groundvehicleDynamics.obj
 0003:00010730       c5_vb_emlrtDCI             000000018005b730     c5_sl_groundvehicleDynamics.obj
 0003:00010750       c5_xd_emlrtBCI             000000018005b750     c5_sl_groundvehicleDynamics.obj
 0003:00010780       c5_wb_emlrtDCI             000000018005b780     c5_sl_groundvehicleDynamics.obj
 0003:000107a0       c5_xb_emlrtDCI             000000018005b7a0     c5_sl_groundvehicleDynamics.obj
 0003:000107c0       c5_yb_emlrtDCI             000000018005b7c0     c5_sl_groundvehicleDynamics.obj
 0003:000107e0       c5_e_emlrtECI              000000018005b7e0     c5_sl_groundvehicleDynamics.obj
 0003:00010800       c5_f_emlrtECI              000000018005b800     c5_sl_groundvehicleDynamics.obj
 0003:00010820       c5_yd_emlrtBCI             000000018005b820     c5_sl_groundvehicleDynamics.obj
 0003:00010850       c5_ac_emlrtDCI             000000018005b850     c5_sl_groundvehicleDynamics.obj
 0003:00010870       c5_ae_emlrtBCI             000000018005b870     c5_sl_groundvehicleDynamics.obj
 0003:000108a0       c5_bc_emlrtDCI             000000018005b8a0     c5_sl_groundvehicleDynamics.obj
 0003:000108c0       c5_be_emlrtBCI             000000018005b8c0     c5_sl_groundvehicleDynamics.obj
 0003:000108f0       c5_cc_emlrtDCI             000000018005b8f0     c5_sl_groundvehicleDynamics.obj
 0003:00010910       c5_ce_emlrtBCI             000000018005b910     c5_sl_groundvehicleDynamics.obj
 0003:00010940       c5_dc_emlrtDCI             000000018005b940     c5_sl_groundvehicleDynamics.obj
 0003:00010960       c5_g_emlrtECI              000000018005b960     c5_sl_groundvehicleDynamics.obj
 0003:00010980       c5_de_emlrtBCI             000000018005b980     c5_sl_groundvehicleDynamics.obj
 0003:000109b0       c5_ec_emlrtDCI             000000018005b9b0     c5_sl_groundvehicleDynamics.obj
 0003:000109d0       c5_h_emlrtECI              000000018005b9d0     c5_sl_groundvehicleDynamics.obj
 0003:000109f0       c5_ee_emlrtBCI             000000018005b9f0     c5_sl_groundvehicleDynamics.obj
 0003:00010a20       c5_fc_emlrtDCI             000000018005ba20     c5_sl_groundvehicleDynamics.obj
 0003:00010a40       c5_fe_emlrtBCI             000000018005ba40     c5_sl_groundvehicleDynamics.obj
 0003:00010a70       c5_gc_emlrtDCI             000000018005ba70     c5_sl_groundvehicleDynamics.obj
 0003:00010a90       c5_ge_emlrtBCI             000000018005ba90     c5_sl_groundvehicleDynamics.obj
 0003:00010ac0       c5_hc_emlrtDCI             000000018005bac0     c5_sl_groundvehicleDynamics.obj
 0003:00010ae0       c5_he_emlrtBCI             000000018005bae0     c5_sl_groundvehicleDynamics.obj
 0003:00010b10       c5_ic_emlrtDCI             000000018005bb10     c5_sl_groundvehicleDynamics.obj
 0003:00010b30       c5_ie_emlrtBCI             000000018005bb30     c5_sl_groundvehicleDynamics.obj
 0003:00010b60       c5_i_emlrtECI              000000018005bb60     c5_sl_groundvehicleDynamics.obj
 0003:00010b80       c5_jc_emlrtDCI             000000018005bb80     c5_sl_groundvehicleDynamics.obj
 0003:00010ba0       c5_je_emlrtBCI             000000018005bba0     c5_sl_groundvehicleDynamics.obj
 0003:00010bd0       c5_j_emlrtECI              000000018005bbd0     c5_sl_groundvehicleDynamics.obj
 0003:00010bf0       c5_kc_emlrtDCI             000000018005bbf0     c5_sl_groundvehicleDynamics.obj
 0003:00010c10       c5_ke_emlrtBCI             000000018005bc10     c5_sl_groundvehicleDynamics.obj
 0003:00010c40       c5_lc_emlrtDCI             000000018005bc40     c5_sl_groundvehicleDynamics.obj
 0003:00010c60       c5_le_emlrtBCI             000000018005bc60     c5_sl_groundvehicleDynamics.obj
 0003:00010c90       c5_mc_emlrtDCI             000000018005bc90     c5_sl_groundvehicleDynamics.obj
 0003:00010cb0       c5_me_emlrtBCI             000000018005bcb0     c5_sl_groundvehicleDynamics.obj
 0003:00010ce0       c5_ne_emlrtBCI             000000018005bce0     c5_sl_groundvehicleDynamics.obj
 0003:00010d10       c5_nc_emlrtDCI             000000018005bd10     c5_sl_groundvehicleDynamics.obj
 0003:00010d30       c5_oe_emlrtBCI             000000018005bd30     c5_sl_groundvehicleDynamics.obj
 0003:00010d60       c5_pe_emlrtBCI             000000018005bd60     c5_sl_groundvehicleDynamics.obj
 0003:00010d90       c5_eh_emlrtRSI             000000018005bd90     c5_sl_groundvehicleDynamics.obj
 0003:00010da8       c5_fh_emlrtRSI             000000018005bda8     c5_sl_groundvehicleDynamics.obj
 0003:00010dc0       c5_gh_emlrtRSI             000000018005bdc0     c5_sl_groundvehicleDynamics.obj
 0003:00010dd8       c5_hh_emlrtRSI             000000018005bdd8     c5_sl_groundvehicleDynamics.obj
 0003:00010df0       c5_ih_emlrtRSI             000000018005bdf0     c5_sl_groundvehicleDynamics.obj
 0003:00010e08       c5_jh_emlrtRSI             000000018005be08     c5_sl_groundvehicleDynamics.obj
 0003:00010e20       c5_kh_emlrtRSI             000000018005be20     c5_sl_groundvehicleDynamics.obj
 0003:00010e38       c5_lh_emlrtRSI             000000018005be38     c5_sl_groundvehicleDynamics.obj
 0003:00010e50       c5_cv                      000000018005be50     c5_sl_groundvehicleDynamics.obj
 0003:00010e68       c5_cv1                     000000018005be68     c5_sl_groundvehicleDynamics.obj
 0003:00010e98       c5_cv2                     000000018005be98     c5_sl_groundvehicleDynamics.obj
 0003:00010ed0       c5_cv3                     000000018005bed0     c5_sl_groundvehicleDynamics.obj
 0003:00010ee0       c5_cv4                     000000018005bee0     c5_sl_groundvehicleDynamics.obj
 0003:00010f00       c5_cv5                     000000018005bf00     c5_sl_groundvehicleDynamics.obj
 0003:00010f40       c5_cv6                     000000018005bf40     c5_sl_groundvehicleDynamics.obj
 0003:00010f68       c5_cv7                     000000018005bf68     c5_sl_groundvehicleDynamics.obj
 0003:00010f98       c5_cv8                     000000018005bf98     c5_sl_groundvehicleDynamics.obj
 0003:00010fb0       c5_cv9                     000000018005bfb0     c5_sl_groundvehicleDynamics.obj
 0003:00010fd8       c5_cv10                    000000018005bfd8     c5_sl_groundvehicleDynamics.obj
 0003:00011000       $SG23461                   000000018005c000     c5_sl_groundvehicleDynamics.obj
 0003:00011018       $SG23462                   000000018005c018     c5_sl_groundvehicleDynamics.obj
 0003:00011040       $SG23493                   000000018005c040     c5_sl_groundvehicleDynamics.obj
 0003:00011060       $SG23494                   000000018005c060     c5_sl_groundvehicleDynamics.obj
 0003:000110c8       $SG23495                   000000018005c0c8     c5_sl_groundvehicleDynamics.obj
 0003:000110d4       ?c5_b_cv1@?1??sf_gateway_c5_sl_groundvehicleDynamics@@9@9 000000018005c0d4     c5_sl_groundvehicleDynamics.obj
 0003:000110d8       ?c5_b_cv2@?1??sf_gateway_c5_sl_groundvehicleDynamics@@9@9 000000018005c0d8     c5_sl_groundvehicleDynamics.obj
 0003:000110dc       ?c5_b_cv@?1??sf_gateway_c5_sl_groundvehicleDynamics@@9@9 000000018005c0dc     c5_sl_groundvehicleDynamics.obj
 0003:000110e0       $SG23847                   000000018005c0e0     c5_sl_groundvehicleDynamics.obj
 0003:000110f0       $SG23848                   000000018005c0f0     c5_sl_groundvehicleDynamics.obj
 0003:00011100       $SG23849                   000000018005c100     c5_sl_groundvehicleDynamics.obj
 0003:00011110       $SG23850                   000000018005c110     c5_sl_groundvehicleDynamics.obj
 0003:0001111c       $SG23851                   000000018005c11c     c5_sl_groundvehicleDynamics.obj
 0003:00011120       $SG23852                   000000018005c120     c5_sl_groundvehicleDynamics.obj
 0003:00011128       $SG23853                   000000018005c128     c5_sl_groundvehicleDynamics.obj
 0003:00011140       $SG23854                   000000018005c140     c5_sl_groundvehicleDynamics.obj
 0003:00011158       $SG23855                   000000018005c158     c5_sl_groundvehicleDynamics.obj
 0003:00011164       $SG23856                   000000018005c164     c5_sl_groundvehicleDynamics.obj
 0003:00011170       $SG23857                   000000018005c170     c5_sl_groundvehicleDynamics.obj
 0003:00011180       $SG23858                   000000018005c180     c5_sl_groundvehicleDynamics.obj
 0003:00011190       $SG23859                   000000018005c190     c5_sl_groundvehicleDynamics.obj
 0003:000111a0       $SG23860                   000000018005c1a0     c5_sl_groundvehicleDynamics.obj
 0003:000111b0       $SG23861                   000000018005c1b0     c5_sl_groundvehicleDynamics.obj
 0003:000111c0       $SG23862                   000000018005c1c0     c5_sl_groundvehicleDynamics.obj
 0003:000111d0       $SG23863                   000000018005c1d0     c5_sl_groundvehicleDynamics.obj
 0003:000111e0       $SG23864                   000000018005c1e0     c5_sl_groundvehicleDynamics.obj
 0003:000111e8       $SG23865                   000000018005c1e8     c5_sl_groundvehicleDynamics.obj
 0003:000111f0       $SG23866                   000000018005c1f0     c5_sl_groundvehicleDynamics.obj
 0003:00011200       $SG23867                   000000018005c200     c5_sl_groundvehicleDynamics.obj
 0003:00011210       $SG23868                   000000018005c210     c5_sl_groundvehicleDynamics.obj
 0003:00011228       $SG23869                   000000018005c228     c5_sl_groundvehicleDynamics.obj
 0003:00011238       $SG23870                   000000018005c238     c5_sl_groundvehicleDynamics.obj
 0003:00011250       $SG23871                   000000018005c250     c5_sl_groundvehicleDynamics.obj
 0003:00011260       $SG23872                   000000018005c260     c5_sl_groundvehicleDynamics.obj
 0003:00011268       $SG23873                   000000018005c268     c5_sl_groundvehicleDynamics.obj
 0003:00011270       $SG23889                   000000018005c270     c5_sl_groundvehicleDynamics.obj
 0003:00011278       $SG24018                   000000018005c278     c5_sl_groundvehicleDynamics.obj
 0003:00011280       $SG24056                   000000018005c280     c5_sl_groundvehicleDynamics.obj
 0003:00011288       $SG24133                   000000018005c288     c5_sl_groundvehicleDynamics.obj
 0003:0001128c       $SG24134                   000000018005c28c     c5_sl_groundvehicleDynamics.obj
 0003:00011290       $SG24135                   000000018005c290     c5_sl_groundvehicleDynamics.obj
 0003:00011294       $SG24138                   000000018005c294     c5_sl_groundvehicleDynamics.obj
 0003:00011298       $SG24139                   000000018005c298     c5_sl_groundvehicleDynamics.obj
 0003:0001129c       $SG24142                   000000018005c29c     c5_sl_groundvehicleDynamics.obj
 0003:000112a0       $SG24143                   000000018005c2a0     c5_sl_groundvehicleDynamics.obj
 0003:000112a4       $SG24146                   000000018005c2a4     c5_sl_groundvehicleDynamics.obj
 0003:000112a8       $SG24147                   000000018005c2a8     c5_sl_groundvehicleDynamics.obj
 0003:000112ac       $SG24150                   000000018005c2ac     c5_sl_groundvehicleDynamics.obj
 0003:000112b0       $SG24151                   000000018005c2b0     c5_sl_groundvehicleDynamics.obj
 0003:000112b4       $SG24154                   000000018005c2b4     c5_sl_groundvehicleDynamics.obj
 0003:000112b8       $SG24155                   000000018005c2b8     c5_sl_groundvehicleDynamics.obj
 0003:000112bc       $SG24158                   000000018005c2bc     c5_sl_groundvehicleDynamics.obj
 0003:000112c0       $SG24159                   000000018005c2c0     c5_sl_groundvehicleDynamics.obj
 0003:000112c8       $SG24184                   000000018005c2c8     c5_sl_groundvehicleDynamics.obj
 0003:000112dc       $SG24185                   000000018005c2dc     c5_sl_groundvehicleDynamics.obj
 0003:000112e8       $SG24186                   000000018005c2e8     c5_sl_groundvehicleDynamics.obj
 0003:000112f8       $SG24187                   000000018005c2f8     c5_sl_groundvehicleDynamics.obj
 0003:00011308       $SG24188                   000000018005c308     c5_sl_groundvehicleDynamics.obj
 0003:00011318       $SG24189                   000000018005c318     c5_sl_groundvehicleDynamics.obj
 0003:00011320       $SG24190                   000000018005c320     c5_sl_groundvehicleDynamics.obj
 0003:00011328       $SG24191                   000000018005c328     c5_sl_groundvehicleDynamics.obj
 0003:00011330       $SG24192                   000000018005c330     c5_sl_groundvehicleDynamics.obj
 0003:0001133c       $SG24217                   000000018005c33c     c5_sl_groundvehicleDynamics.obj
 0003:00011344       $SG24218                   000000018005c344     c5_sl_groundvehicleDynamics.obj
 0003:0001134c       $SG24219                   000000018005c34c     c5_sl_groundvehicleDynamics.obj
 0003:00011358       $SG24220                   000000018005c358     c5_sl_groundvehicleDynamics.obj
 0003:00011368       $SG24221                   000000018005c368     c5_sl_groundvehicleDynamics.obj
 0003:00011378       $SG24222                   000000018005c378     c5_sl_groundvehicleDynamics.obj
 0003:00011388       $SG24323                   000000018005c388     c5_sl_groundvehicleDynamics.obj
 0003:00011394       $SG24324                   000000018005c394     c5_sl_groundvehicleDynamics.obj
 0003:000113a0       $SG24325                   000000018005c3a0     c5_sl_groundvehicleDynamics.obj
 0003:000113b0       $SG24326                   000000018005c3b0     c5_sl_groundvehicleDynamics.obj
 0003:000113bc       $SG24327                   000000018005c3bc     c5_sl_groundvehicleDynamics.obj
 0003:000113c4       $SG24328                   000000018005c3c4     c5_sl_groundvehicleDynamics.obj
 0003:000113d0       $SG24329                   000000018005c3d0     c5_sl_groundvehicleDynamics.obj
 0003:000113d8       $SG24332                   000000018005c3d8     c5_sl_groundvehicleDynamics.obj
 0003:000113f0       $SG24334                   000000018005c3f0     c5_sl_groundvehicleDynamics.obj
 0003:00011458       $SG24349                   000000018005c458     c5_sl_groundvehicleDynamics.obj
 0003:00011464       $SG24352                   000000018005c464     c5_sl_groundvehicleDynamics.obj
 0003:00011470       $SG24355                   000000018005c470     c5_sl_groundvehicleDynamics.obj
 0003:00011480       $SG24358                   000000018005c480     c5_sl_groundvehicleDynamics.obj
 0003:0001148c       ?c5_b_cv@?1??c5_binaryOccupancyMap_binaryOccupancyMap@@9@9 000000018005c48c     c5_sl_groundvehicleDynamics.obj
 0003:000114a0       ?c5_colIdx@?1??c5_binaryOccupancyMap_inflate@@9@9 000000018005c4a0     c5_sl_groundvehicleDynamics.obj
 0003:00011bb0       ?c5_rowIdx@?1??c5_binaryOccupancyMap_inflate@@9@9 000000018005cbb0     c5_sl_groundvehicleDynamics.obj
 0003:000122b8       ?c5_b_cv1@?1??c5_binaryOccupancyMap_inflate@@9@9 000000018005d2b8     c5_sl_groundvehicleDynamics.obj
 0003:000122e0       ?c5_b_cv@?1??c5_binaryOccupancyMap_inflate@@9@9 000000018005d2e0     c5_sl_groundvehicleDynamics.obj
 0003:00012300       ?c5_se@?1??c5_binaryOccupancyMap_inflate@@9@9 000000018005d300     c5_sl_groundvehicleDynamics.obj
 0003:000123e4       $SG24709                   000000018005d3e4     c5_sl_groundvehicleDynamics.obj
 0003:000123e8       $SG24710                   000000018005d3e8     c5_sl_groundvehicleDynamics.obj
 0003:000123f0       $SG24711                   000000018005d3f0     c5_sl_groundvehicleDynamics.obj
 0003:000123f8       $SG24712                   000000018005d3f8     c5_sl_groundvehicleDynamics.obj
 0003:00012404       $SG24713                   000000018005d404     c5_sl_groundvehicleDynamics.obj
 0003:0001240c       $SG24718                   000000018005d40c     c5_sl_groundvehicleDynamics.obj
 0003:00012410       $SG24719                   000000018005d410     c5_sl_groundvehicleDynamics.obj
 0003:00012418       $SG24720                   000000018005d418     c5_sl_groundvehicleDynamics.obj
 0003:00012420       $SG24721                   000000018005d420     c5_sl_groundvehicleDynamics.obj
 0003:0001242c       $SG24722                   000000018005d42c     c5_sl_groundvehicleDynamics.obj
 0003:00012434       $SG24724                   000000018005d434     c5_sl_groundvehicleDynamics.obj
 0003:00012438       $SG24725                   000000018005d438     c5_sl_groundvehicleDynamics.obj
 0003:00012440       $SG24726                   000000018005d440     c5_sl_groundvehicleDynamics.obj
 0003:00012448       $SG24727                   000000018005d448     c5_sl_groundvehicleDynamics.obj
 0003:00012454       $SG24728                   000000018005d454     c5_sl_groundvehicleDynamics.obj
 0003:00012460       ?c5_b_cv@?1??c5_MapLayer_getValueAllImpl@@9@9 000000018005d460     c5_sl_groundvehicleDynamics.obj
 0003:00012488       ?c5_b_cv1@?1??c5_MapLayer_getValueAllImpl@@9@9 000000018005d488     c5_sl_groundvehicleDynamics.obj
 0003:00012490       $SG24910                   000000018005d490     c5_sl_groundvehicleDynamics.obj
 0003:00012494       $SG24911                   000000018005d494     c5_sl_groundvehicleDynamics.obj
 0003:00012498       $SG24912                   000000018005d498     c5_sl_groundvehicleDynamics.obj
 0003:0001249c       $SG24913                   000000018005d49c     c5_sl_groundvehicleDynamics.obj
 0003:000124a0       $SG24914                   000000018005d4a0     c5_sl_groundvehicleDynamics.obj
 0003:000124a8       $SG24915                   000000018005d4a8     c5_sl_groundvehicleDynamics.obj
 0003:000124b4       $SG24916                   000000018005d4b4     c5_sl_groundvehicleDynamics.obj
 0003:000124c0       ?c5_b_cv@?1??c5_plannerAStarGrid_plannerAStarGrid@@9@9 000000018005d4c0     c5_sl_groundvehicleDynamics.obj
 0003:000124f8       ?c5_b_cv2@?1??c5_plannerAStarGrid_plannerAStarGrid@@9@9 000000018005d4f8     c5_sl_groundvehicleDynamics.obj
 0003:00012530       ?c5_b_cv4@?1??c5_plannerAStarGrid_plannerAStarGrid@@9@9 000000018005d530     c5_sl_groundvehicleDynamics.obj
 0003:00012568       ?c5_b_cv6@?1??c5_plannerAStarGrid_plannerAStarGrid@@9@9 000000018005d568     c5_sl_groundvehicleDynamics.obj
 0003:000125a0       ?c5_b_cv1@?1??c5_plannerAStarGrid_plannerAStarGrid@@9@9 000000018005d5a0     c5_sl_groundvehicleDynamics.obj
 0003:000125a8       ?c5_b_cv5@?1??c5_plannerAStarGrid_plannerAStarGrid@@9@9 000000018005d5a8     c5_sl_groundvehicleDynamics.obj
 0003:000125b0       ?c5_b_cv3@?1??c5_plannerAStarGrid_plannerAStarGrid@@9@9 000000018005d5b0     c5_sl_groundvehicleDynamics.obj
 0003:000125b8       ?c5_b_cv7@?1??c5_plannerAStarGrid_plannerAStarGrid@@9@9 000000018005d5b8     c5_sl_groundvehicleDynamics.obj
 0003:000125c0       $SG25218                   000000018005d5c0     c5_sl_groundvehicleDynamics.obj
 0003:000125c4       $SG25219                   000000018005d5c4     c5_sl_groundvehicleDynamics.obj
 0003:000125c8       $SG25220                   000000018005d5c8     c5_sl_groundvehicleDynamics.obj
 0003:000125d0       $SG25221                   000000018005d5d0     c5_sl_groundvehicleDynamics.obj
 0003:000125d8       $SG25222                   000000018005d5d8     c5_sl_groundvehicleDynamics.obj
 0003:000125e4       $SG25223                   000000018005d5e4     c5_sl_groundvehicleDynamics.obj
 0003:000125ec       $SG25227                   000000018005d5ec     c5_sl_groundvehicleDynamics.obj
 0003:000125f0       $SG25228                   000000018005d5f0     c5_sl_groundvehicleDynamics.obj
 0003:000125f4       $SG25229                   000000018005d5f4     c5_sl_groundvehicleDynamics.obj
 0003:000125f8       $SG25230                   000000018005d5f8     c5_sl_groundvehicleDynamics.obj
 0003:00012600       $SG25231                   000000018005d600     c5_sl_groundvehicleDynamics.obj
 0003:0001260c       $SG25232                   000000018005d60c     c5_sl_groundvehicleDynamics.obj
 0003:00012614       $SG25236                   000000018005d614     c5_sl_groundvehicleDynamics.obj
 0003:00012618       $SG25237                   000000018005d618     c5_sl_groundvehicleDynamics.obj
 0003:0001261c       $SG25238                   000000018005d61c     c5_sl_groundvehicleDynamics.obj
 0003:00012620       $SG25239                   000000018005d620     c5_sl_groundvehicleDynamics.obj
 0003:00012628       $SG25240                   000000018005d628     c5_sl_groundvehicleDynamics.obj
 0003:00012634       $SG25241                   000000018005d634     c5_sl_groundvehicleDynamics.obj
 0003:0001263c       $SG25245                   000000018005d63c     c5_sl_groundvehicleDynamics.obj
 0003:00012640       $SG25246                   000000018005d640     c5_sl_groundvehicleDynamics.obj
 0003:00012644       $SG25247                   000000018005d644     c5_sl_groundvehicleDynamics.obj
 0003:00012648       $SG25248                   000000018005d648     c5_sl_groundvehicleDynamics.obj
 0003:00012650       $SG25249                   000000018005d650     c5_sl_groundvehicleDynamics.obj
 0003:0001265c       $SG25250                   000000018005d65c     c5_sl_groundvehicleDynamics.obj
 0003:00012668       ?c5_b_a@?1??c5_validateAStarBuiltinCostFunction@@9@9 000000018005d668     c5_sl_groundvehicleDynamics.obj
 0003:00012678       ?c5_b_cv@?1??c5_validateAStarBuiltinCostFunction@@9@9 000000018005d678     c5_sl_groundvehicleDynamics.obj
 0003:00012688       ?c5_b_cv1@?1??c5_validateAStarBuiltinCostFunction@@9@9 000000018005d688     c5_sl_groundvehicleDynamics.obj
 0003:00012698       ?c5_b_cv2@?1??c5_validateAStarBuiltinCostFunction@@9@9 000000018005d698     c5_sl_groundvehicleDynamics.obj
 0003:000126a8       ?c5_b_cv1@?1??c5_plannerAStarGrid_plan@@9@9 000000018005d6a8     c5_sl_groundvehicleDynamics.obj
 0003:000126d8       ?c5_b_cv10@?1??c5_plannerAStarGrid_plan@@9@9 000000018005d6d8     c5_sl_groundvehicleDynamics.obj
 0003:00012708       ?c5_b_cv4@?1??c5_plannerAStarGrid_plan@@9@9 000000018005d708     c5_sl_groundvehicleDynamics.obj
 0003:00012738       ?c5_b_cv7@?1??c5_plannerAStarGrid_plan@@9@9 000000018005d738     c5_sl_groundvehicleDynamics.obj
 0003:00012768       ?c5_cv12@?1??c5_plannerAStarGrid_plan@@9@9 000000018005d768     c5_sl_groundvehicleDynamics.obj
 0003:00012798       ?c5_b_cv@?1??c5_plannerAStarGrid_plan@@9@9 000000018005d798     c5_sl_groundvehicleDynamics.obj
 0003:000127c0       ?c5_b_cv3@?1??c5_plannerAStarGrid_plan@@9@9 000000018005d7c0     c5_sl_groundvehicleDynamics.obj
 0003:000127e8       ?c5_b_cv6@?1??c5_plannerAStarGrid_plan@@9@9 000000018005d7e8     c5_sl_groundvehicleDynamics.obj
 0003:00012810       ?c5_b_cv9@?1??c5_plannerAStarGrid_plan@@9@9 000000018005d810     c5_sl_groundvehicleDynamics.obj
 0003:00012838       ?c5_b_cv2@?1??c5_plannerAStarGrid_plan@@9@9 000000018005d838     c5_sl_groundvehicleDynamics.obj
 0003:00012840       ?c5_b_cv5@?1??c5_plannerAStarGrid_plan@@9@9 000000018005d840     c5_sl_groundvehicleDynamics.obj
 0003:00012848       ?c5_cv13@?1??c5_plannerAStarGrid_plan@@9@9 000000018005d848     c5_sl_groundvehicleDynamics.obj
 0003:00012850       ?c5_b_cv8@?1??c5_plannerAStarGrid_plan@@9@9 000000018005d850     c5_sl_groundvehicleDynamics.obj
 0003:00012854       ?c5_cv11@?1??c5_plannerAStarGrid_plan@@9@9 000000018005d854     c5_sl_groundvehicleDynamics.obj
 0003:00012858       ?c5_cv14@?1??c5_plannerAStarGrid_plan@@9@9 000000018005d858     c5_sl_groundvehicleDynamics.obj
 0003:0001285c       $SG25758                   000000018005d85c     c5_sl_groundvehicleDynamics.obj
 0003:00012860       $SG25759                   000000018005d860     c5_sl_groundvehicleDynamics.obj
 0003:00012864       $SG25760                   000000018005d864     c5_sl_groundvehicleDynamics.obj
 0003:00012868       $SG25761                   000000018005d868     c5_sl_groundvehicleDynamics.obj
 0003:00012870       $SG25762                   000000018005d870     c5_sl_groundvehicleDynamics.obj
 0003:0001287c       $SG25763                   000000018005d87c     c5_sl_groundvehicleDynamics.obj
 0003:00012884       $SG25769                   000000018005d884     c5_sl_groundvehicleDynamics.obj
 0003:00012888       $SG25770                   000000018005d888     c5_sl_groundvehicleDynamics.obj
 0003:0001288c       $SG25771                   000000018005d88c     c5_sl_groundvehicleDynamics.obj
 0003:00012890       $SG25772                   000000018005d890     c5_sl_groundvehicleDynamics.obj
 0003:00012898       $SG25773                   000000018005d898     c5_sl_groundvehicleDynamics.obj
 0003:000128a4       $SG25774                   000000018005d8a4     c5_sl_groundvehicleDynamics.obj
 0003:000128ac       $SG25780                   000000018005d8ac     c5_sl_groundvehicleDynamics.obj
 0003:000128b0       $SG25781                   000000018005d8b0     c5_sl_groundvehicleDynamics.obj
 0003:000128b4       $SG25782                   000000018005d8b4     c5_sl_groundvehicleDynamics.obj
 0003:000128b8       $SG25783                   000000018005d8b8     c5_sl_groundvehicleDynamics.obj
 0003:000128c0       $SG25784                   000000018005d8c0     c5_sl_groundvehicleDynamics.obj
 0003:000128cc       $SG25785                   000000018005d8cc     c5_sl_groundvehicleDynamics.obj
 0003:000128d4       $SG25791                   000000018005d8d4     c5_sl_groundvehicleDynamics.obj
 0003:000128d8       $SG25792                   000000018005d8d8     c5_sl_groundvehicleDynamics.obj
 0003:000128dc       $SG25793                   000000018005d8dc     c5_sl_groundvehicleDynamics.obj
 0003:000128e0       $SG25794                   000000018005d8e0     c5_sl_groundvehicleDynamics.obj
 0003:000128e8       $SG25795                   000000018005d8e8     c5_sl_groundvehicleDynamics.obj
 0003:000128f4       $SG25796                   000000018005d8f4     c5_sl_groundvehicleDynamics.obj
 0003:000128fc       $SG25800                   000000018005d8fc     c5_sl_groundvehicleDynamics.obj
 0003:00012900       $SG25801                   000000018005d900     c5_sl_groundvehicleDynamics.obj
 0003:00012904       $SG25802                   000000018005d904     c5_sl_groundvehicleDynamics.obj
 0003:00012908       $SG25803                   000000018005d908     c5_sl_groundvehicleDynamics.obj
 0003:00012910       $SG25804                   000000018005d910     c5_sl_groundvehicleDynamics.obj
 0003:0001291c       $SG25805                   000000018005d91c     c5_sl_groundvehicleDynamics.obj
 0003:00012924       $SG25809                   000000018005d924     c5_sl_groundvehicleDynamics.obj
 0003:00012928       $SG25810                   000000018005d928     c5_sl_groundvehicleDynamics.obj
 0003:0001292c       $SG25811                   000000018005d92c     c5_sl_groundvehicleDynamics.obj
 0003:00012930       $SG25812                   000000018005d930     c5_sl_groundvehicleDynamics.obj
 0003:00012938       $SG25813                   000000018005d938     c5_sl_groundvehicleDynamics.obj
 0003:00012944       $SG25814                   000000018005d944     c5_sl_groundvehicleDynamics.obj
 0003:0001294c       $SG25816                   000000018005d94c     c5_sl_groundvehicleDynamics.obj
 0003:00012950       $SG25817                   000000018005d950     c5_sl_groundvehicleDynamics.obj
 0003:00012958       $SG25818                   000000018005d958     c5_sl_groundvehicleDynamics.obj
 0003:00012960       $SG25819                   000000018005d960     c5_sl_groundvehicleDynamics.obj
 0003:0001296c       $SG25820                   000000018005d96c     c5_sl_groundvehicleDynamics.obj
 0003:00012978       ?c5_b_cv4@?1??c5_plannerAStarGrid_validateStartGoal@@9@9 000000018005d978     c5_sl_groundvehicleDynamics.obj
 0003:000129a8       ?c5_b_cv6@?1??c5_plannerAStarGrid_validateStartGoal@@9@9 000000018005d9a8     c5_sl_groundvehicleDynamics.obj
 0003:000129d8       ?c5_b_cv@?1??c5_plannerAStarGrid_validateStartGoal@@9@9 000000018005d9d8     c5_sl_groundvehicleDynamics.obj
 0003:000129f8       ?c5_b_cv5@?1??c5_plannerAStarGrid_validateStartGoal@@9@9 000000018005d9f8     c5_sl_groundvehicleDynamics.obj
 0003:00012a08       ?c5_b_cv7@?1??c5_plannerAStarGrid_validateStartGoal@@9@9 000000018005da08     c5_sl_groundvehicleDynamics.obj
 0003:00012a18       ?c5_b_cv1@?1??c5_plannerAStarGrid_validateStartGoal@@9@9 000000018005da18     c5_sl_groundvehicleDynamics.obj
 0003:00012a24       ?c5_b_cv3@?1??c5_plannerAStarGrid_validateStartGoal@@9@9 000000018005da24     c5_sl_groundvehicleDynamics.obj
 0003:00012a2c       ?c5_rfmt@?1??c5_plannerAStarGrid_validateStartGoal@@9@9 000000018005da2c     c5_sl_groundvehicleDynamics.obj
 0003:00012a34       ?c5_b_cv8@?1??c5_plannerAStarGrid_validateStartGoal@@9@9 000000018005da34     c5_sl_groundvehicleDynamics.obj
 0003:00012a3c       ?c5_b_cv2@?1??c5_plannerAStarGrid_validateStartGoal@@9@9 000000018005da3c     c5_sl_groundvehicleDynamics.obj
 0003:00012a40       ?c5_b_cv9@?1??c5_plannerAStarGrid_validateStartGoal@@9@9 000000018005da40     c5_sl_groundvehicleDynamics.obj
 0003:00012a44       $SG26124                   000000018005da44     c5_sl_groundvehicleDynamics.obj
 0003:00012a48       $SG26125                   000000018005da48     c5_sl_groundvehicleDynamics.obj
 0003:00012a4c       $SG26126                   000000018005da4c     c5_sl_groundvehicleDynamics.obj
 0003:00012a50       $SG26127                   000000018005da50     c5_sl_groundvehicleDynamics.obj
 0003:00012a58       $SG26128                   000000018005da58     c5_sl_groundvehicleDynamics.obj
 0003:00012a64       $SG26129                   000000018005da64     c5_sl_groundvehicleDynamics.obj
 0003:00012a6c       $SG26136                   000000018005da6c     c5_sl_groundvehicleDynamics.obj
 0003:00012a70       $SG26137                   000000018005da70     c5_sl_groundvehicleDynamics.obj
 0003:00012a78       $SG26138                   000000018005da78     c5_sl_groundvehicleDynamics.obj
 0003:00012a80       $SG26139                   000000018005da80     c5_sl_groundvehicleDynamics.obj
 0003:00012a8c       $SG26140                   000000018005da8c     c5_sl_groundvehicleDynamics.obj
 0003:00012a94       $SG26143                   000000018005da94     c5_sl_groundvehicleDynamics.obj
 0003:00012a98       $SG26144                   000000018005da98     c5_sl_groundvehicleDynamics.obj
 0003:00012a9c       $SG26145                   000000018005da9c     c5_sl_groundvehicleDynamics.obj
 0003:00012aa0       $SG26146                   000000018005daa0     c5_sl_groundvehicleDynamics.obj
 0003:00012aa8       $SG26147                   000000018005daa8     c5_sl_groundvehicleDynamics.obj
 0003:00012abc       $SG26148                   000000018005dabc     c5_sl_groundvehicleDynamics.obj
 0003:00012ac0       $SG26149                   000000018005dac0     c5_sl_groundvehicleDynamics.obj
 0003:00012ac4       $SG26150                   000000018005dac4     c5_sl_groundvehicleDynamics.obj
 0003:00012ac8       $SG26151                   000000018005dac8     c5_sl_groundvehicleDynamics.obj
 0003:00012adc       $SG26152                   000000018005dadc     c5_sl_groundvehicleDynamics.obj
 0003:00012ae0       $SG26153                   000000018005dae0     c5_sl_groundvehicleDynamics.obj
 0003:00012ae4       $SG26154                   000000018005dae4     c5_sl_groundvehicleDynamics.obj
 0003:00012ae8       $SG26155                   000000018005dae8     c5_sl_groundvehicleDynamics.obj
 0003:00012af0       $SG26156                   000000018005daf0     c5_sl_groundvehicleDynamics.obj
 0003:00012b04       $SG26157                   000000018005db04     c5_sl_groundvehicleDynamics.obj
 0003:00012b08       $SG26158                   000000018005db08     c5_sl_groundvehicleDynamics.obj
 0003:00012b0c       $SG26159                   000000018005db0c     c5_sl_groundvehicleDynamics.obj
 0003:00012b10       $SG26160                   000000018005db10     c5_sl_groundvehicleDynamics.obj
 0003:00012b24       $SG26161                   000000018005db24     c5_sl_groundvehicleDynamics.obj
 0003:00012b28       $SG26162                   000000018005db28     c5_sl_groundvehicleDynamics.obj
 0003:00012b30       $SG26163                   000000018005db30     c5_sl_groundvehicleDynamics.obj
 0003:00012b38       $SG26164                   000000018005db38     c5_sl_groundvehicleDynamics.obj
 0003:00012b44       $SG26165                   000000018005db44     c5_sl_groundvehicleDynamics.obj
 0003:00012b4c       $SG26179                   000000018005db4c     c5_sl_groundvehicleDynamics.obj
 0003:00012b50       $SG26180                   000000018005db50     c5_sl_groundvehicleDynamics.obj
 0003:00012b54       $SG26181                   000000018005db54     c5_sl_groundvehicleDynamics.obj
 0003:00012b58       $SG26182                   000000018005db58     c5_sl_groundvehicleDynamics.obj
 0003:00012b60       $SG26183                   000000018005db60     c5_sl_groundvehicleDynamics.obj
 0003:00012b6c       $SG26184                   000000018005db6c     c5_sl_groundvehicleDynamics.obj
 0003:00012b74       $SG26186                   000000018005db74     c5_sl_groundvehicleDynamics.obj
 0003:00012b78       $SG26187                   000000018005db78     c5_sl_groundvehicleDynamics.obj
 0003:00012b7c       $SG26188                   000000018005db7c     c5_sl_groundvehicleDynamics.obj
 0003:00012b80       $SG26189                   000000018005db80     c5_sl_groundvehicleDynamics.obj
 0003:00012b88       $SG26190                   000000018005db88     c5_sl_groundvehicleDynamics.obj
 0003:00012b94       $SG26191                   000000018005db94     c5_sl_groundvehicleDynamics.obj
 0003:00012b9c       $SG26320                   000000018005db9c     c5_sl_groundvehicleDynamics.obj
 0003:00012ba0       $SG26321                   000000018005dba0     c5_sl_groundvehicleDynamics.obj
 0003:00012ba8       $SG26322                   000000018005dba8     c5_sl_groundvehicleDynamics.obj
 0003:00012bb0       $SG26323                   000000018005dbb0     c5_sl_groundvehicleDynamics.obj
 0003:00012bbc       $SG26324                   000000018005dbbc     c5_sl_groundvehicleDynamics.obj
 0003:00012bc8       ?c5_b_cv@?1??c5_plannerAStarGrid_runPlan@@9@9 000000018005dbc8     c5_sl_groundvehicleDynamics.obj
 0003:00012be8       $SG27046                   000000018005dbe8     c5_sl_groundvehicleDynamics.obj
 0003:00012bec       $SG27047                   000000018005dbec     c5_sl_groundvehicleDynamics.obj
 0003:00012bf0       $SG27048                   000000018005dbf0     c5_sl_groundvehicleDynamics.obj
 0003:00012bf8       $SG27049                   000000018005dbf8     c5_sl_groundvehicleDynamics.obj
 0003:00012c04       $SG27050                   000000018005dc04     c5_sl_groundvehicleDynamics.obj
 0003:00012c0c       $SG27058                   000000018005dc0c     c5_sl_groundvehicleDynamics.obj
 0003:00012c10       $SG27059                   000000018005dc10     c5_sl_groundvehicleDynamics.obj
 0003:00012c18       $SG27060                   000000018005dc18     c5_sl_groundvehicleDynamics.obj
 0003:00012c20       $SG27061                   000000018005dc20     c5_sl_groundvehicleDynamics.obj
 0003:00012c2c       $SG27062                   000000018005dc2c     c5_sl_groundvehicleDynamics.obj
 0003:00012c34       $SG27117                   000000018005dc34     c5_sl_groundvehicleDynamics.obj
 0003:00012c38       $SG27118                   000000018005dc38     c5_sl_groundvehicleDynamics.obj
 0003:00012c40       $SG27119                   000000018005dc40     c5_sl_groundvehicleDynamics.obj
 0003:00012c48       $SG27120                   000000018005dc48     c5_sl_groundvehicleDynamics.obj
 0003:00012c54       $SG27121                   000000018005dc54     c5_sl_groundvehicleDynamics.obj
 0003:00012c5c       $SG27141                   000000018005dc5c     c5_sl_groundvehicleDynamics.obj
 0003:00012c60       $SG27142                   000000018005dc60     c5_sl_groundvehicleDynamics.obj
 0003:00012c68       $SG27143                   000000018005dc68     c5_sl_groundvehicleDynamics.obj
 0003:00012c70       $SG27144                   000000018005dc70     c5_sl_groundvehicleDynamics.obj
 0003:00012c7c       $SG27145                   000000018005dc7c     c5_sl_groundvehicleDynamics.obj
 0003:00012c84       $SG27236                   000000018005dc84     c5_sl_groundvehicleDynamics.obj
 0003:00012c88       $SG27237                   000000018005dc88     c5_sl_groundvehicleDynamics.obj
 0003:00012c8c       $SG27238                   000000018005dc8c     c5_sl_groundvehicleDynamics.obj
 0003:00012c90       $SG27239                   000000018005dc90     c5_sl_groundvehicleDynamics.obj
 0003:00012c98       $SG27240                   000000018005dc98     c5_sl_groundvehicleDynamics.obj
 0003:00012ca0       $SG27241                   000000018005dca0     c5_sl_groundvehicleDynamics.obj
 0003:00012cac       $SG27242                   000000018005dcac     c5_sl_groundvehicleDynamics.obj
 0003:00012cb4       ?c5_b_cv@?1??c5_plannerAStarGrid_getHeuristicMatrix@@9@9 000000018005dcb4     c5_sl_groundvehicleDynamics.obj
 0003:00012cb8       $SG27458                   000000018005dcb8     c5_sl_groundvehicleDynamics.obj
 0003:00012cbc       $SG27459                   000000018005dcbc     c5_sl_groundvehicleDynamics.obj
 0003:00012cc0       $SG27460                   000000018005dcc0     c5_sl_groundvehicleDynamics.obj
 0003:00012cc8       $SG27461                   000000018005dcc8     c5_sl_groundvehicleDynamics.obj
 0003:00012cd0       $SG27462                   000000018005dcd0     c5_sl_groundvehicleDynamics.obj
 0003:00012cdc       $SG27463                   000000018005dcdc     c5_sl_groundvehicleDynamics.obj
 0003:00012ce4       $SG27468                   000000018005dce4     c5_sl_groundvehicleDynamics.obj
 0003:00012ce8       $SG27469                   000000018005dce8     c5_sl_groundvehicleDynamics.obj
 0003:00012cf0       $SG27470                   000000018005dcf0     c5_sl_groundvehicleDynamics.obj
 0003:00012cf8       $SG27471                   000000018005dcf8     c5_sl_groundvehicleDynamics.obj
 0003:00012d04       $SG27472                   000000018005dd04     c5_sl_groundvehicleDynamics.obj
 0003:00012d0c       ?c5_b_cv@?1??c5_plannerAStarGrid_Euclidean@@9@9 000000018005dd0c     c5_sl_groundvehicleDynamics.obj
 0003:00012d10       $SG27581                   000000018005dd10     c5_sl_groundvehicleDynamics.obj
 0003:00012d14       $SG27582                   000000018005dd14     c5_sl_groundvehicleDynamics.obj
 0003:00012d18       $SG27583                   000000018005dd18     c5_sl_groundvehicleDynamics.obj
 0003:00012d20       $SG27584                   000000018005dd20     c5_sl_groundvehicleDynamics.obj
 0003:00012d28       $SG27585                   000000018005dd28     c5_sl_groundvehicleDynamics.obj
 0003:00012d34       $SG27586                   000000018005dd34     c5_sl_groundvehicleDynamics.obj
 0003:00012d40       ?c5_Neighbors@?1??c5_plannerAStarGrid_getNeighbors@@9@9 000000018005dd40     c5_sl_groundvehicleDynamics.obj
 0003:00012dc0       ?c5_b_Neighbors@?1??c5_plannerAStarGrid_getNeighbors@@9@9 000000018005ddc0     c5_sl_groundvehicleDynamics.obj
 0003:00012e00       ?c5_b_cv@?1??c5_plannerAStarGrid_reconstructPath@@9@9 000000018005de00     c5_sl_groundvehicleDynamics.obj
 0003:00012e10       $SG27772                   000000018005de10     c5_sl_groundvehicleDynamics.obj
 0003:00012e14       $SG27773                   000000018005de14     c5_sl_groundvehicleDynamics.obj
 0003:00012e18       $SG27774                   000000018005de18     c5_sl_groundvehicleDynamics.obj
 0003:00012e1c       $SG27775                   000000018005de1c     c5_sl_groundvehicleDynamics.obj
 0003:00012e20       $SG27776                   000000018005de20     c5_sl_groundvehicleDynamics.obj
 0003:00012e28       $SG27777                   000000018005de28     c5_sl_groundvehicleDynamics.obj
 0003:00012e34       $SG27778                   000000018005de34     c5_sl_groundvehicleDynamics.obj
 0003:00012e3c       ?c5_b_cv@?1??c5_plannerAStarGrid_gcostValue@@9@9 000000018005de3c     c5_sl_groundvehicleDynamics.obj
 0003:00012e40       $SG27929                   000000018005de40     c5_sl_groundvehicleDynamics.obj
 0003:00012e44       $SG27930                   000000018005de44     c5_sl_groundvehicleDynamics.obj
 0003:00012e48       $SG27931                   000000018005de48     c5_sl_groundvehicleDynamics.obj
 0003:00012e50       $SG27932                   000000018005de50     c5_sl_groundvehicleDynamics.obj
 0003:00012e58       $SG27933                   000000018005de58     c5_sl_groundvehicleDynamics.obj
 0003:00012e64       $SG27934                   000000018005de64     c5_sl_groundvehicleDynamics.obj
 0003:00012e6c       $SG27939                   000000018005de6c     c5_sl_groundvehicleDynamics.obj
 0003:00012e70       $SG27940                   000000018005de70     c5_sl_groundvehicleDynamics.obj
 0003:00012e78       $SG27941                   000000018005de78     c5_sl_groundvehicleDynamics.obj
 0003:00012e80       $SG27942                   000000018005de80     c5_sl_groundvehicleDynamics.obj
 0003:00012e8c       $SG27943                   000000018005de8c     c5_sl_groundvehicleDynamics.obj
 0003:00012e98       ?c5_b_cv@?1??c5_plannerAStarGrid_getEssentialOutput@@9@9 000000018005de98     c5_sl_groundvehicleDynamics.obj
 0003:00012ea4       $SG28137                   000000018005dea4     c5_sl_groundvehicleDynamics.obj
 0003:00012ea8       $SG28138                   000000018005dea8     c5_sl_groundvehicleDynamics.obj
 0003:00012eac       $SG28139                   000000018005deac     c5_sl_groundvehicleDynamics.obj
 0003:00012eb0       $SG28140                   000000018005deb0     c5_sl_groundvehicleDynamics.obj
 0003:00012eb8       $SG28141                   000000018005deb8     c5_sl_groundvehicleDynamics.obj
 0003:00012ec0       $SG28142                   000000018005dec0     c5_sl_groundvehicleDynamics.obj
 0003:00012ecc       $SG28143                   000000018005decc     c5_sl_groundvehicleDynamics.obj
 0003:00012ed4       $SG28162                   000000018005ded4     c5_sl_groundvehicleDynamics.obj
 0003:00012ed8       $SG28163                   000000018005ded8     c5_sl_groundvehicleDynamics.obj
 0003:00012edc       $SG28164                   000000018005dedc     c5_sl_groundvehicleDynamics.obj
 0003:00012ee0       $SG28165                   000000018005dee0     c5_sl_groundvehicleDynamics.obj
 0003:00012ee8       $SG28166                   000000018005dee8     c5_sl_groundvehicleDynamics.obj
 0003:00012ef0       $SG28167                   000000018005def0     c5_sl_groundvehicleDynamics.obj
 0003:00012efc       $SG28168                   000000018005defc     c5_sl_groundvehicleDynamics.obj
 0003:00012f08       ?c5_msgID@?1??c5_warning@@9@9 000000018005df08     c5_sl_groundvehicleDynamics.obj
 0003:00012f30       ?c5_b_cv@?1??c5_warning@@9@9 000000018005df30     c5_sl_groundvehicleDynamics.obj
 0003:00012f38       ?c5_b_cv1@?1??c5_warning@@9@9 000000018005df38     c5_sl_groundvehicleDynamics.obj
 0003:00012f40       $SG28193                   000000018005df40     c5_sl_groundvehicleDynamics.obj
 0003:00012f44       $SG28194                   000000018005df44     c5_sl_groundvehicleDynamics.obj
 0003:00012f48       $SG28195                   000000018005df48     c5_sl_groundvehicleDynamics.obj
 0003:00012f4c       $SG28492                   000000018005df4c     c5_sl_groundvehicleDynamics.obj
 0003:00012f50       $SG28493                   000000018005df50     c5_sl_groundvehicleDynamics.obj
 0003:00012f54       $SG28494                   000000018005df54     c5_sl_groundvehicleDynamics.obj
 0003:00012f58       $SG28495                   000000018005df58     c5_sl_groundvehicleDynamics.obj
 0003:00012f60       $SG28496                   000000018005df60     c5_sl_groundvehicleDynamics.obj
 0003:00012f6c       $SG28497                   000000018005df6c     c5_sl_groundvehicleDynamics.obj
 0003:00012f74       $SG28499                   000000018005df74     c5_sl_groundvehicleDynamics.obj
 0003:00012f78       $SG28500                   000000018005df78     c5_sl_groundvehicleDynamics.obj
 0003:00012f7c       $SG28501                   000000018005df7c     c5_sl_groundvehicleDynamics.obj
 0003:00012f80       $SG28502                   000000018005df80     c5_sl_groundvehicleDynamics.obj
 0003:00012f88       $SG28503                   000000018005df88     c5_sl_groundvehicleDynamics.obj
 0003:00012f94       $SG28504                   000000018005df94     c5_sl_groundvehicleDynamics.obj
 0003:00012f9c       $SG28511                   000000018005df9c     c5_sl_groundvehicleDynamics.obj
 0003:00012fa0       $SG28512                   000000018005dfa0     c5_sl_groundvehicleDynamics.obj
 0003:00012fa8       $SG28513                   000000018005dfa8     c5_sl_groundvehicleDynamics.obj
 0003:00012fb0       $SG28514                   000000018005dfb0     c5_sl_groundvehicleDynamics.obj
 0003:00012fbc       $SG28515                   000000018005dfbc     c5_sl_groundvehicleDynamics.obj
 0003:00012fc4       $SG28635                   000000018005dfc4     c5_sl_groundvehicleDynamics.obj
 0003:00012fc8       $SG28636                   000000018005dfc8     c5_sl_groundvehicleDynamics.obj
 0003:00012fd0       $SG28637                   000000018005dfd0     c5_sl_groundvehicleDynamics.obj
 0003:00012fd8       $SG28638                   000000018005dfd8     c5_sl_groundvehicleDynamics.obj
 0003:00012fe4       $SG28639                   000000018005dfe4     c5_sl_groundvehicleDynamics.obj
 0003:00012fec       $SG28643                   000000018005dfec     c5_sl_groundvehicleDynamics.obj
 0003:00012ff0       $SG28644                   000000018005dff0     c5_sl_groundvehicleDynamics.obj
 0003:00012ff8       $SG28645                   000000018005dff8     c5_sl_groundvehicleDynamics.obj
 0003:00013000       $SG28646                   000000018005e000     c5_sl_groundvehicleDynamics.obj
 0003:0001300c       $SG28647                   000000018005e00c     c5_sl_groundvehicleDynamics.obj
 0003:00013018       ?c5_b_cv1@?1??c5_MapInterface_grid2world@@9@9 000000018005e018     c5_sl_groundvehicleDynamics.obj
 0003:00013048       ?c5_b_cv@?1??c5_MapInterface_grid2world@@9@9 000000018005e048     c5_sl_groundvehicleDynamics.obj
 0003:0001306c       $SG28763                   000000018005e06c     c5_sl_groundvehicleDynamics.obj
 0003:00013070       $SG28764                   000000018005e070     c5_sl_groundvehicleDynamics.obj
 0003:00013074       $SG28765                   000000018005e074     c5_sl_groundvehicleDynamics.obj
 0003:00013078       $SG28766                   000000018005e078     c5_sl_groundvehicleDynamics.obj
 0003:00013080       $SG28767                   000000018005e080     c5_sl_groundvehicleDynamics.obj
 0003:0001308c       $SG28768                   000000018005e08c     c5_sl_groundvehicleDynamics.obj
 0003:00013094       $SG28771                   000000018005e094     c5_sl_groundvehicleDynamics.obj
 0003:00013098       $SG28772                   000000018005e098     c5_sl_groundvehicleDynamics.obj
 0003:0001309c       $SG28773                   000000018005e09c     c5_sl_groundvehicleDynamics.obj
 0003:000130a0       $SG28774                   000000018005e0a0     c5_sl_groundvehicleDynamics.obj
 0003:000130a8       $SG28775                   000000018005e0a8     c5_sl_groundvehicleDynamics.obj
 0003:000130b4       $SG28776                   000000018005e0b4     c5_sl_groundvehicleDynamics.obj
 0003:000130bc       $SG28778                   000000018005e0bc     c5_sl_groundvehicleDynamics.obj
 0003:000130c0       $SG28779                   000000018005e0c0     c5_sl_groundvehicleDynamics.obj
 0003:000130c4       $SG28780                   000000018005e0c4     c5_sl_groundvehicleDynamics.obj
 0003:000130c8       $SG28781                   000000018005e0c8     c5_sl_groundvehicleDynamics.obj
 0003:000130d0       $SG28782                   000000018005e0d0     c5_sl_groundvehicleDynamics.obj
 0003:000130d8       $SG28783                   000000018005e0d8     c5_sl_groundvehicleDynamics.obj
 0003:000130e4       $SG28784                   000000018005e0e4     c5_sl_groundvehicleDynamics.obj
 0003:000130ec       $SG28900                   000000018005e0ec     c5_sl_groundvehicleDynamics.obj
 0003:000130f0       $SG28901                   000000018005e0f0     c5_sl_groundvehicleDynamics.obj
 0003:000130f8       $SG28902                   000000018005e0f8     c5_sl_groundvehicleDynamics.obj
 0003:00013100       $SG28903                   000000018005e100     c5_sl_groundvehicleDynamics.obj
 0003:0001310c       $SG28904                   000000018005e10c     c5_sl_groundvehicleDynamics.obj
 0003:00013114       $SG28908                   000000018005e114     c5_sl_groundvehicleDynamics.obj
 0003:00013118       $SG28909                   000000018005e118     c5_sl_groundvehicleDynamics.obj
 0003:00013120       $SG28910                   000000018005e120     c5_sl_groundvehicleDynamics.obj
 0003:00013128       $SG28911                   000000018005e128     c5_sl_groundvehicleDynamics.obj
 0003:00013134       $SG28912                   000000018005e134     c5_sl_groundvehicleDynamics.obj
 0003:00013140       $SG29010                   000000018005e140     c5_sl_groundvehicleDynamics.obj
 0003:0001314c       $SG29011                   000000018005e14c     c5_sl_groundvehicleDynamics.obj
 0003:00013154       $SG29012                   000000018005e154     c5_sl_groundvehicleDynamics.obj
 0003:00013160       $SG29013                   000000018005e160     c5_sl_groundvehicleDynamics.obj
 0003:00013170       $SG29014                   000000018005e170     c5_sl_groundvehicleDynamics.obj
 0003:0001317c       $SG29015                   000000018005e17c     c5_sl_groundvehicleDynamics.obj
 0003:00013188       $SG29016                   000000018005e188     c5_sl_groundvehicleDynamics.obj
 0003:00013190       $SG29019                   000000018005e190     c5_sl_groundvehicleDynamics.obj
 0003:000131a0       $SG29021                   000000018005e1a0     c5_sl_groundvehicleDynamics.obj
 0003:00013208       $SG29036                   000000018005e208     c5_sl_groundvehicleDynamics.obj
 0003:00013214       $SG29039                   000000018005e214     c5_sl_groundvehicleDynamics.obj
 0003:00013220       $SG29042                   000000018005e220     c5_sl_groundvehicleDynamics.obj
 0003:00013230       $SG29045                   000000018005e230     c5_sl_groundvehicleDynamics.obj
 0003:0001323c       $SG29084                   000000018005e23c     c5_sl_groundvehicleDynamics.obj
 0003:00013240       $SG29092                   000000018005e240     c5_sl_groundvehicleDynamics.obj
 0003:00013244       $SG29100                   000000018005e244     c5_sl_groundvehicleDynamics.obj
 0003:00013250       $SG29127                   000000018005e250     c5_sl_groundvehicleDynamics.obj
 0003:00013360       $SG29129                   000000018005e360     c5_sl_groundvehicleDynamics.obj
 0003:00013470       $SG29131                   000000018005e470     c5_sl_groundvehicleDynamics.obj
 0003:0001353c       $SG29220                   000000018005e53c     c5_sl_groundvehicleDynamics.obj
 0003:00013540       $SG29221                   000000018005e540     c5_sl_groundvehicleDynamics.obj
 0003:00013544       $SG29263                   000000018005e544     c5_sl_groundvehicleDynamics.obj
 0003:00013548       $SG29264                   000000018005e548     c5_sl_groundvehicleDynamics.obj
 0003:0001354c       $SG29307                   000000018005e54c     c5_sl_groundvehicleDynamics.obj
 0003:00013550       $SG29358                   000000018005e550     c5_sl_groundvehicleDynamics.obj
 0003:00013554       $SG29403                   000000018005e554     c5_sl_groundvehicleDynamics.obj
 0003:00013558       $SG29435                   000000018005e558     c5_sl_groundvehicleDynamics.obj
 0003:00013560       ?c5_sv@?1??c5_sf_marshallOut_s_Y7g3XIg0UrmNkIXtokcBk@@9@9 000000018005e560     c5_sl_groundvehicleDynamics.obj
 0003:00013570       $SG29508                   000000018005e570     c5_sl_groundvehicleDynamics.obj
 0003:0001357c       $SG29509                   000000018005e57c     c5_sl_groundvehicleDynamics.obj
 0003:00013580       $SG29510                   000000018005e580     c5_sl_groundvehicleDynamics.obj
 0003:00013584       $SG29511                   000000018005e584     c5_sl_groundvehicleDynamics.obj
 0003:00013588       $SG29512                   000000018005e588     c5_sl_groundvehicleDynamics.obj
 0003:00013590       ?c5_fieldNames@?1??c5_l_emlrt_marshallIn@@9@9 000000018005e590     c5_sl_groundvehicleDynamics.obj
 0003:000135a0       $SG29525                   000000018005e5a0     c5_sl_groundvehicleDynamics.obj
 0003:000135a4       $SG29526                   000000018005e5a4     c5_sl_groundvehicleDynamics.obj
 0003:000135a8       $SG29527                   000000018005e5a8     c5_sl_groundvehicleDynamics.obj
 0003:000135ac       $SG29528                   000000018005e5ac     c5_sl_groundvehicleDynamics.obj
 0003:000135b0       $SG29529                   000000018005e5b0     c5_sl_groundvehicleDynamics.obj
 0003:000135b4       $SG29530                   000000018005e5b4     c5_sl_groundvehicleDynamics.obj
 0003:000135b8       $SG29591                   000000018005e5b8     c5_sl_groundvehicleDynamics.obj
 0003:000135bc       $SG29670                   000000018005e5bc     c5_sl_groundvehicleDynamics.obj
 0003:000135c0       ?c5_bv1@?1??c5_o_emlrt_marshallIn@@9@9 000000018005e5c0     c5_sl_groundvehicleDynamics.obj
 0003:000135c4       $SG29744                   000000018005e5c4     c5_sl_groundvehicleDynamics.obj
 0003:000135cc       $SG29746                   000000018005e5cc     c5_sl_groundvehicleDynamics.obj
 0003:000135d4       $SG29749                   000000018005e5d4     c5_sl_groundvehicleDynamics.obj
 0003:000135dc       $SG29751                   000000018005e5dc     c5_sl_groundvehicleDynamics.obj
 0003:000135e4       $SG29753                   000000018005e5e4     c5_sl_groundvehicleDynamics.obj
 0003:000135ec       $SG29755                   000000018005e5ec     c5_sl_groundvehicleDynamics.obj
 0003:000135f4       $SG29757                   000000018005e5f4     c5_sl_groundvehicleDynamics.obj
 0003:000135fc       $SG29759                   000000018005e5fc     c5_sl_groundvehicleDynamics.obj
 0003:00013604       $SG29761                   000000018005e604     c5_sl_groundvehicleDynamics.obj
 0003:0001360c       $SG29771                   000000018005e60c     c5_sl_groundvehicleDynamics.obj
 0003:00013614       $SG29783                   000000018005e614     c5_sl_groundvehicleDynamics.obj
 0003:0001361c       $SG29793                   000000018005e61c     c5_sl_groundvehicleDynamics.obj
 0003:00013624       $SG29805                   000000018005e624     c5_sl_groundvehicleDynamics.obj
 0003:00013630       $SG29816                   000000018005e630     c5_sl_groundvehicleDynamics.obj
 0003:00013638       $SG29827                   000000018005e638     c5_sl_groundvehicleDynamics.obj
 0003:00013640       $SG29835                   000000018005e640     c5_sl_groundvehicleDynamics.obj
 0003:00013648       ?c5_b_cv@?1??c5_b_sqrt@@9@9 000000018005e648     c5_sl_groundvehicleDynamics.obj
 0003:0001364c       $SG29860                   000000018005e64c     c5_sl_groundvehicleDynamics.obj
 0003:00013650       $SG29861                   000000018005e650     c5_sl_groundvehicleDynamics.obj
 0003:00013654       $SG29862                   000000018005e654     c5_sl_groundvehicleDynamics.obj
 0003:00013658       $SG29863                   000000018005e658     c5_sl_groundvehicleDynamics.obj
 0003:00013660       $SG29864                   000000018005e660     c5_sl_groundvehicleDynamics.obj
 0003:0001366c       $SG29865                   000000018005e66c     c5_sl_groundvehicleDynamics.obj
 0003:00013678       $SG30193                   000000018005e678     c5_sl_groundvehicleDynamics.obj
 0003:000136a0       $SG30205                   000000018005e6a0     c5_sl_groundvehicleDynamics.obj
 0003:000136b0       $SG30207                   000000018005e6b0     c5_sl_groundvehicleDynamics.obj
 0003:000136c0       $SG30209                   000000018005e6c0     c5_sl_groundvehicleDynamics.obj
 0003:000136d8       $SG30211                   000000018005e6d8     c5_sl_groundvehicleDynamics.obj
 0003:000136f0       $SG30213                   000000018005e6f0     c5_sl_groundvehicleDynamics.obj
 0003:00013704       $SG30214                   000000018005e704     c5_sl_groundvehicleDynamics.obj
 0003:00013710       $SG30215                   000000018005e710     c5_sl_groundvehicleDynamics.obj
 0003:00013728       $SG30218                   000000018005e728     c5_sl_groundvehicleDynamics.obj
 0003:00013750       $SG30231                   000000018005e750     c5_sl_groundvehicleDynamics.obj
 0003:00013760       $SG30233                   000000018005e760     c5_sl_groundvehicleDynamics.obj
 0003:00013770       $SG30234                   000000018005e770     c5_sl_groundvehicleDynamics.obj
 0003:00013960       $SG30307                   000000018005e960     c5_sl_groundvehicleDynamics.obj
 0003:000139b0       $SG30309                   000000018005e9b0     c5_sl_groundvehicleDynamics.obj
 0003:00013a00       $SG30311                   000000018005ea00     c5_sl_groundvehicleDynamics.obj
 0003:00013a50       $SG30313                   000000018005ea50     c5_sl_groundvehicleDynamics.obj
 0003:00013aa0       $SG30315                   000000018005eaa0     c5_sl_groundvehicleDynamics.obj
 0003:00013af0       $SG30317                   000000018005eaf0     c5_sl_groundvehicleDynamics.obj
 0003:00013b40       $SG30319                   000000018005eb40     c5_sl_groundvehicleDynamics.obj
 0003:00013b90       $SG30321                   000000018005eb90     c5_sl_groundvehicleDynamics.obj
 0003:00013be0       $SG30323                   000000018005ebe0     c5_sl_groundvehicleDynamics.obj
 0003:00013c30       $SG30325                   000000018005ec30     c5_sl_groundvehicleDynamics.obj
 0003:00013c80       $SG30327                   000000018005ec80     c5_sl_groundvehicleDynamics.obj
 0003:00013cd0       $SG30329                   000000018005ecd0     c5_sl_groundvehicleDynamics.obj
 0003:00013d20       $SG30331                   000000018005ed20     c5_sl_groundvehicleDynamics.obj
 0003:00013d70       $SG30333                   000000018005ed70     c5_sl_groundvehicleDynamics.obj
 0003:00013dc0       $SG30335                   000000018005edc0     c5_sl_groundvehicleDynamics.obj
 0003:00013e10       $SG30337                   000000018005ee10     c5_sl_groundvehicleDynamics.obj
 0003:00013e60       $SG30339                   000000018005ee60     c5_sl_groundvehicleDynamics.obj
 0003:00013eb0       $SG30341                   000000018005eeb0     c5_sl_groundvehicleDynamics.obj
 0003:00013f00       $SG30343                   000000018005ef00     c5_sl_groundvehicleDynamics.obj
 0003:00013f50       $SG30345                   000000018005ef50     c5_sl_groundvehicleDynamics.obj
 0003:00013fa0       $SG30347                   000000018005efa0     c5_sl_groundvehicleDynamics.obj
 0003:00013ff0       $SG30349                   000000018005eff0     c5_sl_groundvehicleDynamics.obj
 0003:00014040       $SG30351                   000000018005f040     c5_sl_groundvehicleDynamics.obj
 0003:00014090       $SG30353                   000000018005f090     c5_sl_groundvehicleDynamics.obj
 0003:000140e0       $SG30355                   000000018005f0e0     c5_sl_groundvehicleDynamics.obj
 0003:00014130       $SG30357                   000000018005f130     c5_sl_groundvehicleDynamics.obj
 0003:00014180       $SG30359                   000000018005f180     c5_sl_groundvehicleDynamics.obj
 0003:000141d0       $SG30361                   000000018005f1d0     c5_sl_groundvehicleDynamics.obj
 0003:00014210       $SG30372                   000000018005f210     c5_sl_groundvehicleDynamics.obj
 0003:00014220       $SG30373                   000000018005f220     c5_sl_groundvehicleDynamics.obj
 0003:00014238       $SG30395                   000000018005f238     c5_sl_groundvehicleDynamics.obj
 0003:00014270       $SG30408                   000000018005f270     c5_sl_groundvehicleDynamics.obj
 0003:000142e8       $SG20653                   000000018005f2e8     sl_groundvehicleDynamics_sfun_registry.obj
 0003:00014308       $SG20655                   000000018005f308     sl_groundvehicleDynamics_sfun_registry.obj
 0003:00014328       $SG20683                   000000018005f328     sl_groundvehicleDynamics_sfun_registry.obj
 0003:00014340       $SG20685                   000000018005f340     sl_groundvehicleDynamics_sfun_registry.obj
 0003:00014360       $SG20713                   000000018005f360     sl_groundvehicleDynamics_sfun_registry.obj
 0003:00014378       $SG20715                   000000018005f378     sl_groundvehicleDynamics_sfun_registry.obj
 0003:00014398       $SG20743                   000000018005f398     sl_groundvehicleDynamics_sfun_registry.obj
 0003:000143b8       $SG20745                   000000018005f3b8     sl_groundvehicleDynamics_sfun_registry.obj
 0003:000143d8       $SG20773                   000000018005f3d8     sl_groundvehicleDynamics_sfun_registry.obj
 0003:000143f8       $SG20775                   000000018005f3f8     sl_groundvehicleDynamics_sfun_registry.obj
 0003:00014418       $SG20791                   000000018005f418     sl_groundvehicleDynamics_sfun_registry.obj
 0003:00014428       $SG20805                   000000018005f428     sl_groundvehicleDynamics_sfun_registry.obj
 0003:00014440       $SG20825                   000000018005f440     sl_groundvehicleDynamics_sfun_registry.obj
 0003:0001445c       $SG20898                   000000018005f45c     sl_groundvehicleDynamics_sfun_registry.obj
 0003:00014468       $SG20899                   000000018005f468     sl_groundvehicleDynamics_sfun_registry.obj
 0003:0001447c       $SG20903                   000000018005f47c     sl_groundvehicleDynamics_sfun_registry.obj
 0003:00014488       $SG20904                   000000018005f488     sl_groundvehicleDynamics_sfun_registry.obj
 0003:000144a8       $SG21018                   000000018005f4a8     sl_groundvehicleDynamics_sfun_registry.obj
 0003:000144d0       _sfcnName                  000000018005f4d0     sl_groundvehicleDynamics_sfun_registry.obj
 0003:000144f0       $SG21033                   000000018005f4f0     sl_groundvehicleDynamics_sfun_registry.obj
 0003:00014568       $SG21338                   000000018005f568     sl_groundvehicleDynamics_sfun_registry.obj
 0003:00014570       $SG21339                   000000018005f570     sl_groundvehicleDynamics_sfun_registry.obj
 0003:00014578       $SG21351                   000000018005f578     sl_groundvehicleDynamics_sfun_registry.obj
 0003:00014588       $SG21487                   000000018005f588     sl_groundvehicleDynamics_sfun_registry.obj
 0003:000145c8       $SG21488                   000000018005f5c8     sl_groundvehicleDynamics_sfun_registry.obj
 0003:000145d8       $SG21489                   000000018005f5d8     sl_groundvehicleDynamics_sfun_registry.obj
 0003:000145e0       $SG21493                   000000018005f5e0     sl_groundvehicleDynamics_sfun_registry.obj
 0003:00014628       $SG21494                   000000018005f628     sl_groundvehicleDynamics_sfun_registry.obj
 0003:00014638       $SG21495                   000000018005f638     sl_groundvehicleDynamics_sfun_registry.obj
 0003:00014640       $SG21496                   000000018005f640     sl_groundvehicleDynamics_sfun_registry.obj
 0003:00014698       $SG21497                   000000018005f698     sl_groundvehicleDynamics_sfun_registry.obj
 0003:000146a8       $SG21498                   000000018005f6a8     sl_groundvehicleDynamics_sfun_registry.obj
 0003:000146b0       $SG21518                   000000018005f6b0     sl_groundvehicleDynamics_sfun_registry.obj
 0003:000146f0       $SG21519                   000000018005f6f0     sl_groundvehicleDynamics_sfun_registry.obj
 0003:00014700       $SG21520                   000000018005f700     sl_groundvehicleDynamics_sfun_registry.obj
 0003:00014710       $SG21524                   000000018005f710     sl_groundvehicleDynamics_sfun_registry.obj
 0003:00014758       $SG21525                   000000018005f758     sl_groundvehicleDynamics_sfun_registry.obj
 0003:00014768       $SG21526                   000000018005f768     sl_groundvehicleDynamics_sfun_registry.obj
 0003:00014770       $SG21527                   000000018005f770     sl_groundvehicleDynamics_sfun_registry.obj
 0003:000147c8       $SG21528                   000000018005f7c8     sl_groundvehicleDynamics_sfun_registry.obj
 0003:000147d8       $SG21529                   000000018005f7d8     sl_groundvehicleDynamics_sfun_registry.obj
 0003:000147e0       $SG21548                   000000018005f7e0     sl_groundvehicleDynamics_sfun_registry.obj
 0003:00014830       $SG21549                   000000018005f830     sl_groundvehicleDynamics_sfun_registry.obj
 0003:00014840       $SG21550                   000000018005f840     sl_groundvehicleDynamics_sfun_registry.obj
 0003:00014850       $SG21559                   000000018005f850     sl_groundvehicleDynamics_sfun_registry.obj
 0003:000148b0       $SG21560                   000000018005f8b0     sl_groundvehicleDynamics_sfun_registry.obj
 0003:000148b8       $SG21561                   000000018005f8b8     sl_groundvehicleDynamics_sfun_registry.obj
 0003:000148c0       $SG21570                   000000018005f8c0     sl_groundvehicleDynamics_sfun_registry.obj
 0003:00014920       $SG21571                   000000018005f920     sl_groundvehicleDynamics_sfun_registry.obj
 0003:00014928       $SG21572                   000000018005f928     sl_groundvehicleDynamics_sfun_registry.obj
 0003:00014930       $SG21878                   000000018005f930     sl_groundvehicleDynamics_sfun_registry.obj
 0003:000149b0       $SG21881                   000000018005f9b0     sl_groundvehicleDynamics_sfun_registry.obj
 0003:00014a30       $SG21886                   000000018005fa30     sl_groundvehicleDynamics_sfun_registry.obj
 0003:00014ab0       $SG21894                   000000018005fab0     sl_groundvehicleDynamics_sfun_registry.obj
 0003:00014b20       $SG22167                   000000018005fb20     sl_groundvehicleDynamics_sfun_registry.obj
 0003:00014ba0       $SG22172                   000000018005fba0     sl_groundvehicleDynamics_sfun_registry.obj
 0003:00014c18       $SG22496                   000000018005fc18     sl_groundvehicleDynamics_sfun_registry.obj
 0003:00014c30       $SG22509                   000000018005fc30     sl_groundvehicleDynamics_sfun_registry.obj
 0003:00014ca8       $SG22512                   000000018005fca8     sl_groundvehicleDynamics_sfun_registry.obj
 0003:00014cac       $SG22564                   000000018005fcac     sl_groundvehicleDynamics_sfun_registry.obj
 0003:00014cb4       $SG22565                   000000018005fcb4     sl_groundvehicleDynamics_sfun_registry.obj
 0003:00014cbc       $SG22566                   000000018005fcbc     sl_groundvehicleDynamics_sfun_registry.obj
 0003:00014cd0       $SG22567                   000000018005fcd0     sl_groundvehicleDynamics_sfun_registry.obj
 0003:00014d50       $SG22569                   000000018005fd50     sl_groundvehicleDynamics_sfun_registry.obj
 0003:00014dcc       $SG22572                   000000018005fdcc     sl_groundvehicleDynamics_sfun_registry.obj
 0003:00014dd4       $SG22575                   000000018005fdd4     sl_groundvehicleDynamics_sfun_registry.obj
 0003:00014ddc       $SG22578                   000000018005fddc     sl_groundvehicleDynamics_sfun_registry.obj
 0003:00014df0       $SG22579                   000000018005fdf0     sl_groundvehicleDynamics_sfun_registry.obj
 0003:00014e70       $SG22580                   000000018005fe70     sl_groundvehicleDynamics_sfun_registry.obj
 0003:00014e80       $SG22582                   000000018005fe80     sl_groundvehicleDynamics_sfun_registry.obj
 0003:00014e8c       $SG22584                   000000018005fe8c     sl_groundvehicleDynamics_sfun_registry.obj
 0003:00014e94       $SG22586                   000000018005fe94     sl_groundvehicleDynamics_sfun_registry.obj
 0003:00014ea0       $SG22588                   000000018005fea0     sl_groundvehicleDynamics_sfun_registry.obj
 0003:00014eac       $SG22590                   000000018005feac     sl_groundvehicleDynamics_sfun_registry.obj
 0003:00014eb0       $SG22593                   000000018005feb0     sl_groundvehicleDynamics_sfun_registry.obj
 0003:00014f98       $SG22703                   000000018005ff98     sl_groundvehicleDynamics_sfun_registry.obj
 0003:00014fc8       $SG22704                   000000018005ffc8     sl_groundvehicleDynamics_sfun_registry.obj
 0003:00014fd8       $SG22705                   000000018005ffd8     sl_groundvehicleDynamics_sfun_registry.obj
 0003:00014fe0       $SG22707                   000000018005ffe0     sl_groundvehicleDynamics_sfun_registry.obj
 0003:00015018       $SG22708                   0000000180060018     sl_groundvehicleDynamics_sfun_registry.obj
 0003:00015028       $SG22709                   0000000180060028     sl_groundvehicleDynamics_sfun_registry.obj
 0003:00015030       $SG22712                   0000000180060030     sl_groundvehicleDynamics_sfun_registry.obj
 0003:00015068       $SG22713                   0000000180060068     sl_groundvehicleDynamics_sfun_registry.obj
 0003:00015078       $SG22714                   0000000180060078     sl_groundvehicleDynamics_sfun_registry.obj
 0003:00015080       $SG22716                   0000000180060080     sl_groundvehicleDynamics_sfun_registry.obj
 0003:000150b8       $SG22717                   00000001800600b8     sl_groundvehicleDynamics_sfun_registry.obj
 0003:000150c8       $SG22718                   00000001800600c8     sl_groundvehicleDynamics_sfun_registry.obj
 0003:000150d0       $SG22720                   00000001800600d0     sl_groundvehicleDynamics_sfun_registry.obj
 0003:00015108       $SG22721                   0000000180060108     sl_groundvehicleDynamics_sfun_registry.obj
 0003:00015118       $SG22722                   0000000180060118     sl_groundvehicleDynamics_sfun_registry.obj
 0003:00015120       $SG22725                   0000000180060120     sl_groundvehicleDynamics_sfun_registry.obj
 0003:00015128       $SG22727                   0000000180060128     sl_groundvehicleDynamics_sfun_registry.obj
 0003:00015140       $SG22728                   0000000180060140     sl_groundvehicleDynamics_sfun_registry.obj
 0003:00015178       $SG22729                   0000000180060178     sl_groundvehicleDynamics_sfun_registry.obj
 0003:00015188       $SG22730                   0000000180060188     sl_groundvehicleDynamics_sfun_registry.obj
 0003:00015190       $SG22896                   0000000180060190     sl_groundvehicleDynamics_sfun_registry.obj
 0003:000151b0       $SG22897                   00000001800601b0     sl_groundvehicleDynamics_sfun_registry.obj
 0003:00015240       $SG22903                   0000000180060240     sl_groundvehicleDynamics_sfun_registry.obj
 0003:00015260       $SG22904                   0000000180060260     sl_groundvehicleDynamics_sfun_registry.obj
 0003:000152f0       $SG22910                   00000001800602f0     sl_groundvehicleDynamics_sfun_registry.obj
 0003:00015310       $SG22911                   0000000180060310     sl_groundvehicleDynamics_sfun_registry.obj
 0003:000153a0       $SG22917                   00000001800603a0     sl_groundvehicleDynamics_sfun_registry.obj
 0003:000153c0       $SG22918                   00000001800603c0     sl_groundvehicleDynamics_sfun_registry.obj
 0003:00015450       $SG22924                   0000000180060450     sl_groundvehicleDynamics_sfun_registry.obj
 0003:00015470       $SG22925                   0000000180060470     sl_groundvehicleDynamics_sfun_registry.obj
 0003:00015500       $SG22929                   0000000180060500     sl_groundvehicleDynamics_sfun_registry.obj
 0003:00015520       $SG22930                   0000000180060520     sl_groundvehicleDynamics_sfun_registry.obj
 0003:000155b0       $SG22934                   00000001800605b0     sl_groundvehicleDynamics_sfun_registry.obj
 0003:000155e0       $SG22935                   00000001800605e0     sl_groundvehicleDynamics_sfun_registry.obj
 0003:00015670       $SG22939                   0000000180060670     sl_groundvehicleDynamics_sfun_registry.obj
 0003:000156a0       $SG22940                   00000001800606a0     sl_groundvehicleDynamics_sfun_registry.obj
 0003:00015730       $SG22944                   0000000180060730     sl_groundvehicleDynamics_sfun_registry.obj
 0003:00015750       $SG22945                   0000000180060750     sl_groundvehicleDynamics_sfun_registry.obj
 0003:000157e0       $SG22949                   00000001800607e0     sl_groundvehicleDynamics_sfun_registry.obj
 0003:00015800       $SG22950                   0000000180060800     sl_groundvehicleDynamics_sfun_registry.obj
 0003:00015890       $SG22954                   0000000180060890     sl_groundvehicleDynamics_sfun_registry.obj
 0003:000158b0       $SG22955                   00000001800608b0     sl_groundvehicleDynamics_sfun_registry.obj
 0003:00015940       $SG22959                   0000000180060940     sl_groundvehicleDynamics_sfun_registry.obj
 0003:00015960       $SG22960                   0000000180060960     sl_groundvehicleDynamics_sfun_registry.obj
 0003:000159f0       $SG22964                   00000001800609f0     sl_groundvehicleDynamics_sfun_registry.obj
 0003:00015a10       $SG22965                   0000000180060a10     sl_groundvehicleDynamics_sfun_registry.obj
 0003:00015aa0       $SG22969                   0000000180060aa0     sl_groundvehicleDynamics_sfun_registry.obj
 0003:00015ac0       $SG22970                   0000000180060ac0     sl_groundvehicleDynamics_sfun_registry.obj
 0003:00015b50       $SG22974                   0000000180060b50     sl_groundvehicleDynamics_sfun_registry.obj
 0003:00015b70       $SG22975                   0000000180060b70     sl_groundvehicleDynamics_sfun_registry.obj
 0003:00015c00       $SG22979                   0000000180060c00     sl_groundvehicleDynamics_sfun_registry.obj
 0003:00015c20       $SG22980                   0000000180060c20     sl_groundvehicleDynamics_sfun_registry.obj
 0003:00015cb0       $SG22984                   0000000180060cb0     sl_groundvehicleDynamics_sfun_registry.obj
 0003:00015cd0       $SG22985                   0000000180060cd0     sl_groundvehicleDynamics_sfun_registry.obj
 0003:00015d60       $SG22990                   0000000180060d60     sl_groundvehicleDynamics_sfun_registry.obj
 0003:00015d80       $SG22991                   0000000180060d80     sl_groundvehicleDynamics_sfun_registry.obj
 0003:00015e10       $SG22996                   0000000180060e10     sl_groundvehicleDynamics_sfun_registry.obj
 0003:00015e20       $SG22997                   0000000180060e20     sl_groundvehicleDynamics_sfun_registry.obj
 0003:00015eb0       $SG23001                   0000000180060eb0     sl_groundvehicleDynamics_sfun_registry.obj
 0003:00015ed0       $SG23002                   0000000180060ed0     sl_groundvehicleDynamics_sfun_registry.obj
 0003:00015f60       $SG23006                   0000000180060f60     sl_groundvehicleDynamics_sfun_registry.obj
 0003:00015f70       $SG23007                   0000000180060f70     sl_groundvehicleDynamics_sfun_registry.obj
 0003:00016000       $SG23011                   0000000180061000     sl_groundvehicleDynamics_sfun_registry.obj
 0003:00016020       $SG23012                   0000000180061020     sl_groundvehicleDynamics_sfun_registry.obj
 0003:000160b0       $SG23016                   00000001800610b0     sl_groundvehicleDynamics_sfun_registry.obj
 0003:000160d0       $SG23017                   00000001800610d0     sl_groundvehicleDynamics_sfun_registry.obj
 0003:00016160       $SG23021                   0000000180061160     sl_groundvehicleDynamics_sfun_registry.obj
 0003:00016170       $SG23022                   0000000180061170     sl_groundvehicleDynamics_sfun_registry.obj
 0003:00016200       $SG23026                   0000000180061200     sl_groundvehicleDynamics_sfun_registry.obj
 0003:00016210       $SG23027                   0000000180061210     sl_groundvehicleDynamics_sfun_registry.obj
 0003:000162a0       $SG23031                   00000001800612a0     sl_groundvehicleDynamics_sfun_registry.obj
 0003:000162c0       $SG23032                   00000001800612c0     sl_groundvehicleDynamics_sfun_registry.obj
 0003:00016350       $SG23036                   0000000180061350     sl_groundvehicleDynamics_sfun_registry.obj
 0003:00016370       $SG23037                   0000000180061370     sl_groundvehicleDynamics_sfun_registry.obj
 0003:00016400       $SG23041                   0000000180061400     sl_groundvehicleDynamics_sfun_registry.obj
 0003:00016410       $SG23042                   0000000180061410     sl_groundvehicleDynamics_sfun_registry.obj
 0003:000164a0       $SG23050                   00000001800614a0     sl_groundvehicleDynamics_sfun_registry.obj
 0003:000164b0       $SG23051                   00000001800614b0     sl_groundvehicleDynamics_sfun_registry.obj
 0003:00016540       $SG23057                   0000000180061540     sl_groundvehicleDynamics_sfun_registry.obj
 0003:00016550       $SG23058                   0000000180061550     sl_groundvehicleDynamics_sfun_registry.obj
 0003:000165e0       $SG23062                   00000001800615e0     sl_groundvehicleDynamics_sfun_registry.obj
 0003:000165f0       $SG23063                   00000001800615f0     sl_groundvehicleDynamics_sfun_registry.obj
 0003:00016680       $SG23068                   0000000180061680     sl_groundvehicleDynamics_sfun_registry.obj
 0003:00016690       $SG23069                   0000000180061690     sl_groundvehicleDynamics_sfun_registry.obj
 0003:00016720       $SG23073                   0000000180061720     sl_groundvehicleDynamics_sfun_registry.obj
 0003:000167a0       $SG23096                   00000001800617a0     sl_groundvehicleDynamics_sfun_registry.obj
 0003:000168b8       $SG23104                   00000001800618b8     sl_groundvehicleDynamics_sfun_registry.obj
 0003:000168c8       $SG23111                   00000001800618c8     sl_groundvehicleDynamics_sfun_registry.obj
 0003:000168d8       $SG23119                   00000001800618d8     sl_groundvehicleDynamics_sfun_registry.obj
 0003:000168e8       $SG23126                   00000001800618e8     sl_groundvehicleDynamics_sfun_registry.obj
 0003:000168f8       $SG23134                   00000001800618f8     sl_groundvehicleDynamics_sfun_registry.obj
 0003:00016908       $SG23141                   0000000180061908     sl_groundvehicleDynamics_sfun_registry.obj
 0003:00016918       $SG23147                   0000000180061918     sl_groundvehicleDynamics_sfun_registry.obj
 0003:00016938       $SG23157                   0000000180061938     sl_groundvehicleDynamics_sfun_registry.obj
 0003:00016968       $SG23158                   0000000180061968     sl_groundvehicleDynamics_sfun_registry.obj
 0003:00016970       $SG23159                   0000000180061970     sl_groundvehicleDynamics_sfun_registry.obj
 0003:00016978       $SG23169                   0000000180061978     sl_groundvehicleDynamics_sfun_registry.obj
 0003:000169b0       $SG23170                   00000001800619b0     sl_groundvehicleDynamics_sfun_registry.obj
 0003:000169b8       $SG23171                   00000001800619b8     sl_groundvehicleDynamics_sfun_registry.obj
 0003:00016ae0       sRtwOptimizationInfoStruct 0000000180061ae0     sl_groundvehicleDynamics_sfun.obj
 0003:00016ae8       sOptimizationInfoFlags     0000000180061ae8     sl_groundvehicleDynamics_sfun.obj
 0003:00016af0       $SG22275                   0000000180061af0     c5_sl_groundvehicleDynamics.obj
 0003:00016af1       $SG22279                   0000000180061af1     c5_sl_groundvehicleDynamics.obj
 0003:00016af2       $SG22283                   0000000180061af2     c5_sl_groundvehicleDynamics.obj
 0003:00016af3       $SG22290                   0000000180061af3     c5_sl_groundvehicleDynamics.obj
 0003:00016af4       $SG22297                   0000000180061af4     c5_sl_groundvehicleDynamics.obj
 0003:00016af5       $SG22304                   0000000180061af5     c5_sl_groundvehicleDynamics.obj
 0003:00016af6       $SG22311                   0000000180061af6     c5_sl_groundvehicleDynamics.obj
 0003:00016af7       $SG22318                   0000000180061af7     c5_sl_groundvehicleDynamics.obj
 0003:00016af8       $SG22322                   0000000180061af8     c5_sl_groundvehicleDynamics.obj
 0003:00016af9       $SG22326                   0000000180061af9     c5_sl_groundvehicleDynamics.obj
 0003:00016afa       $SG22330                   0000000180061afa     c5_sl_groundvehicleDynamics.obj
 0003:00016afb       $SG22337                   0000000180061afb     c5_sl_groundvehicleDynamics.obj
 0003:00016afc       $SG22344                   0000000180061afc     c5_sl_groundvehicleDynamics.obj
 0003:00016afd       $SG22348                   0000000180061afd     c5_sl_groundvehicleDynamics.obj
 0003:00016afe       $SG22352                   0000000180061afe     c5_sl_groundvehicleDynamics.obj
 0003:00016aff       $SG22356                   0000000180061aff     c5_sl_groundvehicleDynamics.obj
 0003:00016b00       $SG22360                   0000000180061b00     c5_sl_groundvehicleDynamics.obj
 0003:00016b01       $SG22364                   0000000180061b01     c5_sl_groundvehicleDynamics.obj
 0003:00016b02       $SG22368                   0000000180061b02     c5_sl_groundvehicleDynamics.obj
 0003:00016b03       $SG22372                   0000000180061b03     c5_sl_groundvehicleDynamics.obj
 0003:00016b04       $SG22376                   0000000180061b04     c5_sl_groundvehicleDynamics.obj
 0003:00016b05       $SG22380                   0000000180061b05     c5_sl_groundvehicleDynamics.obj
 0003:00016b06       $SG22384                   0000000180061b06     c5_sl_groundvehicleDynamics.obj
 0003:00016b07       $SG22388                   0000000180061b07     c5_sl_groundvehicleDynamics.obj
 0003:00016b08       $SG22392                   0000000180061b08     c5_sl_groundvehicleDynamics.obj
 0003:00016b09       $SG22396                   0000000180061b09     c5_sl_groundvehicleDynamics.obj
 0003:00016b0a       $SG22400                   0000000180061b0a     c5_sl_groundvehicleDynamics.obj
 0003:00016b0b       $SG22404                   0000000180061b0b     c5_sl_groundvehicleDynamics.obj
 0003:00016b0c       $SG22408                   0000000180061b0c     c5_sl_groundvehicleDynamics.obj
 0003:00016b0d       $SG22415                   0000000180061b0d     c5_sl_groundvehicleDynamics.obj
 0003:00016b0e       $SG22425                   0000000180061b0e     c5_sl_groundvehicleDynamics.obj
 0003:00016b0f       $SG22435                   0000000180061b0f     c5_sl_groundvehicleDynamics.obj
 0003:00016b10       $SG22442                   0000000180061b10     c5_sl_groundvehicleDynamics.obj
 0003:00016b11       $SG22446                   0000000180061b11     c5_sl_groundvehicleDynamics.obj
 0003:00016b12       $SG22453                   0000000180061b12     c5_sl_groundvehicleDynamics.obj
 0003:00016b13       $SG22460                   0000000180061b13     c5_sl_groundvehicleDynamics.obj
 0003:00016b14       $SG22467                   0000000180061b14     c5_sl_groundvehicleDynamics.obj
 0003:00016b15       $SG22474                   0000000180061b15     c5_sl_groundvehicleDynamics.obj
 0003:00016b16       $SG22481                   0000000180061b16     c5_sl_groundvehicleDynamics.obj
 0003:00016b17       $SG22485                   0000000180061b17     c5_sl_groundvehicleDynamics.obj
 0003:00016b18       $SG22492                   0000000180061b18     c5_sl_groundvehicleDynamics.obj
 0003:00016b19       $SG22496                   0000000180061b19     c5_sl_groundvehicleDynamics.obj
 0003:00016b1a       $SG22503                   0000000180061b1a     c5_sl_groundvehicleDynamics.obj
 0003:00016b1b       $SG22507                   0000000180061b1b     c5_sl_groundvehicleDynamics.obj
 0003:00016b1c       $SG22514                   0000000180061b1c     c5_sl_groundvehicleDynamics.obj
 0003:00016b1d       $SG22518                   0000000180061b1d     c5_sl_groundvehicleDynamics.obj
 0003:00016b1e       $SG22525                   0000000180061b1e     c5_sl_groundvehicleDynamics.obj
 0003:00016b1f       $SG22532                   0000000180061b1f     c5_sl_groundvehicleDynamics.obj
 0003:00016b20       $SG22539                   0000000180061b20     c5_sl_groundvehicleDynamics.obj
 0003:00016b21       $SG22552                   0000000180061b21     c5_sl_groundvehicleDynamics.obj
 0003:00016b22       $SG22559                   0000000180061b22     c5_sl_groundvehicleDynamics.obj
 0003:00016b23       $SG22566                   0000000180061b23     c5_sl_groundvehicleDynamics.obj
 0003:00016b24       $SG22573                   0000000180061b24     c5_sl_groundvehicleDynamics.obj
 0003:00016b25       $SG22580                   0000000180061b25     c5_sl_groundvehicleDynamics.obj
 0003:00016b26       $SG22587                   0000000180061b26     c5_sl_groundvehicleDynamics.obj
 0003:00016b27       $SG22594                   0000000180061b27     c5_sl_groundvehicleDynamics.obj
 0003:00016b28       $SG22601                   0000000180061b28     c5_sl_groundvehicleDynamics.obj
 0003:00016b29       $SG22608                   0000000180061b29     c5_sl_groundvehicleDynamics.obj
 0003:00016b2a       $SG22615                   0000000180061b2a     c5_sl_groundvehicleDynamics.obj
 0003:00016b2b       $SG22622                   0000000180061b2b     c5_sl_groundvehicleDynamics.obj
 0003:00016b2c       $SG22626                   0000000180061b2c     c5_sl_groundvehicleDynamics.obj
 0003:00016b2d       $SG22630                   0000000180061b2d     c5_sl_groundvehicleDynamics.obj
 0003:00016b2e       $SG22634                   0000000180061b2e     c5_sl_groundvehicleDynamics.obj
 0003:00016b2f       $SG22638                   0000000180061b2f     c5_sl_groundvehicleDynamics.obj
 0003:00016b30       $SG22645                   0000000180061b30     c5_sl_groundvehicleDynamics.obj
 0003:00016b31       $SG22649                   0000000180061b31     c5_sl_groundvehicleDynamics.obj
 0003:00016b32       $SG22653                   0000000180061b32     c5_sl_groundvehicleDynamics.obj
 0003:00016b33       $SG22657                   0000000180061b33     c5_sl_groundvehicleDynamics.obj
 0003:00016b34       $SG22661                   0000000180061b34     c5_sl_groundvehicleDynamics.obj
 0003:00016b35       $SG22665                   0000000180061b35     c5_sl_groundvehicleDynamics.obj
 0003:00016b36       $SG22669                   0000000180061b36     c5_sl_groundvehicleDynamics.obj
 0003:00016b37       $SG22673                   0000000180061b37     c5_sl_groundvehicleDynamics.obj
 0003:00016b38       $SG22677                   0000000180061b38     c5_sl_groundvehicleDynamics.obj
 0003:00016b39       $SG22681                   0000000180061b39     c5_sl_groundvehicleDynamics.obj
 0003:00016b3a       $SG22685                   0000000180061b3a     c5_sl_groundvehicleDynamics.obj
 0003:00016b3b       $SG22689                   0000000180061b3b     c5_sl_groundvehicleDynamics.obj
 0003:00016b3c       $SG22693                   0000000180061b3c     c5_sl_groundvehicleDynamics.obj
 0003:00016b3d       $SG22697                   0000000180061b3d     c5_sl_groundvehicleDynamics.obj
 0003:00016b3e       $SG22701                   0000000180061b3e     c5_sl_groundvehicleDynamics.obj
 0003:00016b3f       $SG22705                   0000000180061b3f     c5_sl_groundvehicleDynamics.obj
 0003:00016b40       $SG22709                   0000000180061b40     c5_sl_groundvehicleDynamics.obj
 0003:00016b41       $SG22713                   0000000180061b41     c5_sl_groundvehicleDynamics.obj
 0003:00016b42       $SG22717                   0000000180061b42     c5_sl_groundvehicleDynamics.obj
 0003:00016b43       $SG22721                   0000000180061b43     c5_sl_groundvehicleDynamics.obj
 0003:00016b44       $SG22725                   0000000180061b44     c5_sl_groundvehicleDynamics.obj
 0003:00016b45       $SG22729                   0000000180061b45     c5_sl_groundvehicleDynamics.obj
 0003:00016b46       $SG22733                   0000000180061b46     c5_sl_groundvehicleDynamics.obj
 0003:00016b47       $SG22740                   0000000180061b47     c5_sl_groundvehicleDynamics.obj
 0003:00016b48       $SG22759                   0000000180061b48     c5_sl_groundvehicleDynamics.obj
 0003:00016b49       $SG22766                   0000000180061b49     c5_sl_groundvehicleDynamics.obj
 0003:00016b4a       $SG22773                   0000000180061b4a     c5_sl_groundvehicleDynamics.obj
 0003:00016b4b       $SG22780                   0000000180061b4b     c5_sl_groundvehicleDynamics.obj
 0003:00016b4c       $SG22790                   0000000180061b4c     c5_sl_groundvehicleDynamics.obj
 0003:00016b4d       $SG22800                   0000000180061b4d     c5_sl_groundvehicleDynamics.obj
 0003:00016b4e       $SG22807                   0000000180061b4e     c5_sl_groundvehicleDynamics.obj
 0003:00016b4f       $SG22814                   0000000180061b4f     c5_sl_groundvehicleDynamics.obj
 0003:00016b50       $SG22821                   0000000180061b50     c5_sl_groundvehicleDynamics.obj
 0003:00016b51       $SG22828                   0000000180061b51     c5_sl_groundvehicleDynamics.obj
 0003:00016b52       $SG22838                   0000000180061b52     c5_sl_groundvehicleDynamics.obj
 0003:00016b53       $SG22848                   0000000180061b53     c5_sl_groundvehicleDynamics.obj
 0003:00016b54       $SG22855                   0000000180061b54     c5_sl_groundvehicleDynamics.obj
 0003:00016b55       $SG22862                   0000000180061b55     c5_sl_groundvehicleDynamics.obj
 0003:00016b56       $SG22866                   0000000180061b56     c5_sl_groundvehicleDynamics.obj
 0003:00016b57       $SG22873                   0000000180061b57     c5_sl_groundvehicleDynamics.obj
 0003:00016b58       $SG22877                   0000000180061b58     c5_sl_groundvehicleDynamics.obj
 0003:00016b59       $SG23492                   0000000180061b59     c5_sl_groundvehicleDynamics.obj
 0003:00016b5a       $SG24333                   0000000180061b5a     c5_sl_groundvehicleDynamics.obj
 0003:00016b5b       $SG29020                   0000000180061b5b     c5_sl_groundvehicleDynamics.obj
 0003:00016b5c       $SG29133                   0000000180061b5c     c5_sl_groundvehicleDynamics.obj
 0003:00016b5d       $SG30216                   0000000180061b5d     c5_sl_groundvehicleDynamics.obj
 0003:00016b5e       $SG30217                   0000000180061b5e     c5_sl_groundvehicleDynamics.obj
 0003:00016b5f       $SG30363                   0000000180061b5f     c5_sl_groundvehicleDynamics.obj
 0003:00016b60       _sfTime_                   0000000180061b60     c5_sl_groundvehicleDynamics.obj
 0003:00016b70       ?newstr@?1??sf_c5_sl_groundvehicleDynamics_get_post_codegen_info@@9@9 0000000180061b70     c5_sl_groundvehicleDynamics.obj
 0003:0001739c       sfGlobalMdlStartCallCounts 000000018006239c     sl_groundvehicleDynamics_sfun_registry.obj
 0003:000173a0       $SG22560                   00000001800623a0     sl_groundvehicleDynamics_sfun_registry.obj
 0003:000173a2       ?warningGuard@?1??ssGetRootSS@@9@9 00000001800623a2     sl_groundvehicleDynamics_sfun_registry.obj
 0003:000173a3       ?warningGuard@?1??ssGetParentSS@@9@9 00000001800623a3     sl_groundvehicleDynamics_sfun_registry.obj
 0003:000173b0       GS_ExceptionRecord         00000001800623b0     MSVCRT:gs_report.obj
 0003:00017450       GS_ContextRecord           0000000180062450     MSVCRT:gs_report.obj
 0003:00017920       ?__proc_attached@@3HA      0000000180062920     MSVCRT:dll_dllmain.obj
 0003:00017960       ?is_initialized_as_dll@@3_NA 0000000180062960     MSVCRT:utility.obj
 0003:00017961       ?module_local_atexit_table_initialized@@3_NA 0000000180062961     MSVCRT:utility.obj
 0003:00017968       ?module_local_atexit_table@@3U_onexit_table_t@@A 0000000180062968     MSVCRT:utility.obj
 0003:00017980       ?module_local_at_quick_exit_table@@3U_onexit_table_t@@A 0000000180062980     MSVCRT:utility.obj
